 leveldown

 Timestamp is 5c3fc1be (Wed Jan 16 21:43:58 2019)

 Preferred load address is 0000000180000000

 Start         Length     Name                   Class
 0001:00000000 00000090H .text$di                CODE
 0001:00000090 00052c20H .text$mn                CODE
 0001:00052cb0 00000020H .text$mn$00             CODE
 0001:00052cd0 000078a0H .text$x                 CODE
 0001:0005a570 0000006eH .text$yd                CODE
 0002:00000000 00000310H .idata$5                DATA
 0002:00000310 00000010H .00cfg                  DATA
 0002:00000320 00000008H .CRT$XCA                DATA
 0002:00000328 00000028H .CRT$XCU                DATA
 0002:00000350 00000008H .CRT$XCZ                DATA
 0002:00000358 00000008H .CRT$XIA                DATA
 0002:00000360 00000020H .CRT$XIC                DATA
 0002:00000380 00000008H .CRT$XIZ                DATA
 0002:00000388 00000008H .CRT$XLA                DATA
 0002:00000390 00000008H .CRT$XLZ                DATA
 0002:00000398 00000008H .CRT$XPA                DATA
 0002:000003a0 00000010H .CRT$XPX                DATA
 0002:000003b0 00000008H .CRT$XPXA               DATA
 0002:000003b8 00000008H .CRT$XPZ                DATA
 0002:000003c0 00000008H .CRT$XTA                DATA
 0002:000003c8 00000008H .CRT$XTZ                DATA
 0002:000003d0 00000000H .gfids$y                DATA
 0002:000003d0 00013c70H .rdata                  DATA
 0002:00014040 00000028H .rdata$T                DATA
 0002:00014068 0000037cH .rdata$r                DATA
 0002:000143e4 00000484H .rdata$zzzdbg           DATA
 0002:00014868 00000008H .rtc$IAA                DATA
 0002:00014870 00000008H .rtc$IZZ                DATA
 0002:00014878 00000008H .rtc$TAA                DATA
 0002:00014880 00000008H .rtc$TZZ                DATA
 0002:00014888 00000004H .tls                    DATA
 0002:0001488c 00000004H .tls$                   DATA
 0002:00014890 00000010H .tls$ZZZ                DATA
 0002:000148a0 0000c948H .xdata                  DATA
 0002:000211e8 000001dcH .xdata$x                DATA
 0002:000213c4 00000020H .didat$2                DATA
 0002:000213e4 00000024H .didat$3                DATA
 0002:00021408 000002a8H .didat$4                DATA
 0002:000216b0 000012c0H .didat$6                DATA
 0002:00022970 000002b0H .didat$7                DATA
 0002:00022c20 00000058H .edata                  DATA
 0002:00022c78 00000014H .idata$2                DATA
 0002:00022c8c 00000014H .idata$3                DATA
 0002:00022ca0 00000310H .idata$4                DATA
 0002:00022fb0 000006fcH .idata$6                DATA
 0003:00000000 00000a90H .data                   DATA
 0003:00000a90 00000118H .data$r                 DATA
 0003:00000ba8 000002a8H .didat$5                DATA
 0003:00000e50 000012ecH .bss                    DATA
 0004:00000000 00004dc4H .pdata                  DATA
 0005:00000000 00000060H .rsrc$01                DATA
 0005:00000060 00000180H .rsrc$02                DATA

  Address         Publics by Value              Rva+Base               Lib:Object

 0000:00000000       __guard_fids_count         0000000000000000     <absolute>
 0000:00000000       __guard_longjmp_count      0000000000000000     <absolute>
 0000:00000000       __hybrid_code_map          0000000000000000     <absolute>
 0000:00000000       __guard_iat_count          0000000000000000     <absolute>
 0000:00000000       __guard_longjmp_table      0000000000000000     <absolute>
 0000:00000000       __volatile_metadata        0000000000000000     <absolute>
 0000:00000000       __guard_iat_table          0000000000000000     <absolute>
 0000:00000000       __hybrid_code_map_count    0000000000000000     <absolute>
 0000:00000000       __enclave_config           0000000000000000     <absolute>
 0000:00000000       ___safe_se_handler_count   0000000000000000     <absolute>
 0000:00000000       ___safe_se_handler_table   0000000000000000     <absolute>
 0000:00000000       __guard_fids_table         0000000000000000     <absolute>
 0000:00000000       __hybrid_auxiliary_iat     0000000000000000     <absolute>
 0000:00000000       __dynamic_value_reloc_table 0000000000000000     <absolute>
 0000:00000100       __guard_flags              0000000000000100     <absolute>
 0000:00000000       __ImageBase                0000000180000000     <linker-defined>
 0001:00000170       ?New@?$Factory@VFunctionTemplate@v8@@@imp@Nan@@SA?AV?$Local@VFunctionTemplate@v8@@@v8@@P6AXAEBV?$FunctionCallbackInfo@VValue@v8@@@3@@ZV?$Local@VValue@v8@@@5@V?$Local@VSignature@v8@@@5@@Z 0000000180001170 f i batch.obj
 0001:00000340       ??0AsyncResource@Nan@@QEAA@PEBDV?$Local@VObject@v8@@@v8@@@Z 0000000180001340 f i batch.obj
 0001:00000400       ??1AsyncResource@Nan@@QEAA@XZ 0000000180001400 f i batch.obj
 0001:00000440       ??1EscapableHandleScope@Nan@@QEAA@XZ 0000000180001440 f i batch.obj
 0001:00000470       ?ThrowError@Nan@@YAXPEBD@Z 0000000180001470 f i batch.obj
 0001:00000510       ??1HandleScope@Nan@@QEAA@XZ 0000000180001510 f i batch.obj
 0001:00000530       ??1?$Persistent@VFunction@v8@@V?$NonCopyablePersistentTraits@VFunction@v8@@@2@@Nan@@QEAA@XZ 0000000180001530 f i batch.obj
 0001:00000530       ??1?$Persistent@VObject@v8@@V?$NonCopyablePersistentTraits@VObject@v8@@@2@@Nan@@QEAA@XZ 0000000180001530 f i batch.obj
 0001:00000550       ?SaveToPersistent@AsyncWorker@Nan@@QEAAXPEBDAEBV?$Local@VValue@v8@@@v8@@@Z 0000000180001550 f i batch.obj
 0001:00000610       ?AsyncExecute@Nan@@YAXPEAUuv_work_s@@@Z 0000000180001610 f i batch.obj
 0001:00000620       ?AsyncExecuteComplete@Nan@@YAXPEAUuv_work_s@@@Z 0000000180001620 f i batch.obj
 0001:00000650       ?SetPrototypeMethod@Nan@@YAXV?$Local@VFunctionTemplate@v8@@@v8@@PEBDP6AXAEBV?$FunctionCallbackInfo@VValue@v8@@@1@@Z@Z 0000000180001650 f i batch.obj
 0001:00000740       ??1ObjectWrap@Nan@@UEAA@XZ 0000000180001740 f i batch.obj
 0001:000007c0       ?Wrap@ObjectWrap@Nan@@IEAAXV?$Local@VObject@v8@@@v8@@@Z 00000001800017c0 f i batch.obj
 0001:000008a0       ?Ref@ObjectWrap@Nan@@MEAAXXZ 00000001800018a0 f i batch.obj
 0001:000008e0       ?Unref@ObjectWrap@Nan@@MEAAXXZ 00000001800018e0 f i batch.obj
 0001:00000990       ?WeakCallback@ObjectWrap@Nan@@CAXAEBV?$WeakCallbackInfo@VObjectWrap@Nan@@@v8@@@Z 0000000180001990 f i batch.obj
 0001:00000a20       ??_EObjectWrap@Nan@@UEAAPEAXI@Z 0000000180001a20 f i * CIL library *:* CIL module *
 0001:00000a20       ??_GObjectWrap@Nan@@UEAAPEAXI@Z 0000000180001a20 f i batch.obj
 0001:00000a60       ??1Status@leveldb@@QEAA@XZ 0000000180001a60 f i batch.obj
 0001:00000a70       ?BooleanOptionValue@leveldown@@YA_NV?$Local@VObject@v8@@@v8@@PEBD_N@Z 0000000180001a70 f i batch.obj
 0001:00000b30       ??_EBatch@leveldown@@UEAAPEAXI@Z 0000000180001b30 f i * CIL library *:* CIL module *
 0001:00000b30       ??_GBatch@leveldown@@UEAAPEAXI@Z 0000000180001b30 f i batch.obj
 0001:00000ba0       ??_GWriteBatch@leveldb@@QEAAPEAXI@Z 0000000180001ba0 f i batch.obj
 0001:00000c20       ?Write@Batch@leveldown@@QEAA?AVStatus@leveldb@@XZ 0000000180001c20 f   batch.obj
 0001:00000c80       ?New@Batch@leveldown@@CAXAEBV?$FunctionCallbackInfo@VValue@v8@@@Nan@@@Z 0000000180001c80 f   batch.obj
 0001:00000e10       ?NewInstance@Batch@leveldown@@SA?AV?$Local@VValue@v8@@@v8@@V?$Local@VObject@v8@@@4@0@Z 0000000180001e10 f   batch.obj
 0001:00000fd0       ?Put@Batch@leveldown@@CAXAEBV?$FunctionCallbackInfo@VValue@v8@@@Nan@@@Z 0000000180001fd0 f   batch.obj
 0001:00001320       ?Del@Batch@leveldown@@CAXAEBV?$FunctionCallbackInfo@VValue@v8@@@Nan@@@Z 0000000180002320 f   batch.obj
 0001:000014f0       ?Clear@Batch@leveldown@@CAXAEBV?$FunctionCallbackInfo@VValue@v8@@@Nan@@@Z 00000001800024f0 f   batch.obj
 0001:00001570       ?Write@Batch@leveldown@@CAXAEBV?$FunctionCallbackInfo@VValue@v8@@@Nan@@@Z 0000000180002570 f   batch.obj
 0001:00001860       ??1?$Persistent@VObject@v8@@V?$NonCopyablePersistentTraits@VObject@v8@@@2@@v8@@QEAA@XZ 0000000180002860 f i batch.obj
 0001:00001860       ??1?$Persistent@VFunctionTemplate@v8@@V?$NonCopyablePersistentTraits@VFunctionTemplate@v8@@@2@@v8@@QEAA@XZ 0000000180002860 f i batch.obj
 0001:00001860       ??1?$Persistent@VFunction@v8@@V?$NonCopyablePersistentTraits@VFunction@v8@@@2@@v8@@QEAA@XZ 0000000180002860 f i batch.obj
 0001:00001880       ??$Unwrap@VDatabase@leveldown@@@ObjectWrap@Nan@@SAPEAVDatabase@leveldown@@V?$Local@VObject@v8@@@v8@@@Z 0000000180002880 f i batch.obj
 0001:00001880       ??$Unwrap@VIterator@leveldown@@@ObjectWrap@Nan@@SAPEAVIterator@leveldown@@V?$Local@VObject@v8@@@v8@@@Z 0000000180002880 f i database.obj
 0001:00001880       ??$Unwrap@VBatch@leveldown@@@ObjectWrap@Nan@@SAPEAVBatch@leveldown@@V?$Local@VObject@v8@@@v8@@@Z 0000000180002880 f i batch.obj
 0001:00001910       ??4Status@leveldb@@QEAAXAEBV01@@Z 0000000180002910 f i batch_async.obj
 0001:00001980       ?Call@Callback@Nan@@QEBA?AV?$MaybeLocal@VValue@v8@@@v8@@HQEAV?$Local@VValue@v8@@@4@PEAVAsyncResource@2@@Z 0000000180002980 f i batch_async.obj
 0001:00001ab0       ??1AsyncWorker@Nan@@UEAA@XZ 0000000180002ab0 f i batch_async.obj
 0001:00001bb0       ?WorkComplete@AsyncWorker@Nan@@UEAAXXZ 0000000180002bb0 f i batch_async.obj
 0001:00001c50       ?Destroy@AsyncWorker@Nan@@UEAAXXZ 0000000180002c50 f i batch_async.obj
 0001:00001c70       ?HandleOKCallback@AsyncWorker@Nan@@MEAAXXZ 0000000180002c70 f i batch_async.obj
 0001:00001cd0       ?HandleErrorCallback@AsyncWorker@Nan@@MEAAXXZ 0000000180002cd0 f i batch_async.obj
 0001:00001d90       ??_EAsyncWorker@Nan@@UEAAPEAXI@Z 0000000180002d90 f i * CIL library *:* CIL module *
 0001:00001d90       ??_GAsyncWorker@Nan@@UEAAPEAXI@Z 0000000180002d90 f i batch_async.obj
 0001:00001dd0       ??0AsyncWorker@leveldown@@QEAA@PEAVDatabase@1@PEAVCallback@Nan@@PEBD@Z 0000000180002dd0 f i batch_async.obj
 0001:00001ef0       ?SetStatus@AsyncWorker@leveldown@@IEAAXVStatus@leveldb@@@Z 0000000180002ef0 f i batch_async.obj
 0001:00002050       ??_GAsyncWorker@leveldown@@UEAAPEAXI@Z 0000000180003050 f i batch_async.obj
 0001:00002050       ??_EAsyncWorker@leveldown@@UEAAPEAXI@Z 0000000180003050 f i * CIL library *:* CIL module *
 0001:000020b0       ??1AsyncWorker@leveldown@@UEAA@XZ 00000001800030b0 f i batch_async.obj
 0001:000020e0       ??_GBatchWriteWorker@leveldown@@UEAAPEAXI@Z 00000001800030e0 f i batch_async.obj
 0001:000020e0       ??_EBatchWriteWorker@leveldown@@UEAAPEAXI@Z 00000001800030e0 f i * CIL library *:* CIL module *
 0001:00002140       ?Execute@BatchWriteWorker@leveldown@@UEAAXXZ 0000000180003140 f   batch_async.obj
 0001:00002180       ?c_str@?$basic_string@DU?$char_traits@D@std@@V?$allocator@D@2@@std@@QEBAPEBDXZ 0000000180003180 f i batch_async.obj
 0001:00002190       ??1?$basic_string@DU?$char_traits@D@std@@V?$allocator@D@2@@std@@QEAA@XZ 0000000180003190 f i batch_async.obj
 0001:00002200       ?_Tidy_deallocate@?$basic_string@DU?$char_traits@D@std@@V?$allocator@D@2@@std@@QEAAXXZ 0000000180003200 f i batch_async.obj
 0001:00002260       ??0Utf8String@Nan@@QEAA@V?$Local@VValue@v8@@@v8@@@Z 0000000180003260 f i database.obj
 0001:00002380       ?UInt32OptionValue@leveldown@@YAIV?$Local@VObject@v8@@@v8@@PEBDI@Z 0000000180003380 f i database.obj
 0001:00002460       ??_GDatabase@leveldown@@UEAAPEAXI@Z 0000000180003460 f i database.obj
 0001:00002460       ??_EDatabase@leveldown@@UEAAPEAXI@Z 0000000180003460 f i * CIL library *:* CIL module *
 0001:00002520       ??1?$map@IPEAVIterator@leveldown@@U?$less@I@std@@V?$allocator@U?$pair@$$CBIPEAVIterator@leveldown@@@std@@@4@@std@@QEAA@XZ 0000000180003520 f i database.obj
 0001:00002560       ?OpenDatabase@Database@leveldown@@QEAA?AVStatus@leveldb@@PEAUOptions@4@@Z 0000000180003560 f   database.obj
 0001:00002660       ?PutToDatabase@Database@leveldown@@QEAA?AVStatus@leveldb@@PEAUWriteOptions@4@VSlice@4@1@Z 0000000180003660 f   database.obj
 0001:000026b0       ?GetFromDatabase@Database@leveldown@@QEAA?AVStatus@leveldb@@PEAUReadOptions@4@VSlice@4@AEAV?$basic_string@DU?$char_traits@D@std@@V?$allocator@D@2@@std@@@Z 00000001800036b0 f   database.obj
 0001:00002700       ?DeleteFromDatabase@Database@leveldown@@QEAA?AVStatus@leveldb@@PEAUWriteOptions@4@VSlice@4@@Z 0000000180003700 f   database.obj
 0001:00002740       ?WriteBatchToDatabase@Database@leveldown@@QEAA?AVStatus@leveldb@@PEAUWriteOptions@4@PEAVWriteBatch@4@@Z 0000000180003740 f   database.obj
 0001:00002780       ?LevelDOWN@leveldown@@YAXAEBV?$FunctionCallbackInfo@VValue@v8@@@Nan@@@Z 0000000180003780 f   database.obj
 0001:000028f0       ?New@Database@leveldown@@CAXAEBV?$FunctionCallbackInfo@VValue@v8@@@Nan@@@Z 00000001800038f0 f   database.obj
 0001:00002a10       ?Open@Database@leveldown@@CAXAEBV?$FunctionCallbackInfo@VValue@v8@@@Nan@@@Z 0000000180003a10 f   database.obj
 0001:00002ea0       ?EmptyMethod@leveldown@@YAXAEBV?$FunctionCallbackInfo@VValue@v8@@@Nan@@@Z 0000000180003ea0 f   database.obj
 0001:00002ea0       _guard_check_icall_nop     0000000180003ea0 f   LIBCMT:guard_support.obj
 0001:00002ea0       ?Prune@Cache@leveldb@@UEAAXXZ 0000000180003ea0 f   leveldb:cache.obj
 0001:00002eb0       ?Close@Database@leveldown@@CAXAEBV?$FunctionCallbackInfo@VValue@v8@@@Nan@@@Z 0000000180003eb0 f   database.obj
 0001:000032e0       ?Put@Database@leveldown@@CAXAEBV?$FunctionCallbackInfo@VValue@v8@@@Nan@@@Z 00000001800042e0 f   database.obj
 0001:00003870       ?Get@Database@leveldown@@CAXAEBV?$FunctionCallbackInfo@VValue@v8@@@Nan@@@Z 0000000180004870 f   database.obj
 0001:00003c60       ?Delete@Database@leveldown@@CAXAEBV?$FunctionCallbackInfo@VValue@v8@@@Nan@@@Z 0000000180004c60 f   database.obj
 0001:00004050       ?Batch@Database@leveldown@@CAXAEBV?$FunctionCallbackInfo@VValue@v8@@@Nan@@@Z 0000000180005050 f   database.obj
 0001:00004b50       ?ApproximateSize@Database@leveldown@@CAXAEBV?$FunctionCallbackInfo@VValue@v8@@@Nan@@@Z 0000000180005b50 f   database.obj
 0001:00004f70       ?CompactRange@Database@leveldown@@CAXAEBV?$FunctionCallbackInfo@VValue@v8@@@Nan@@@Z 0000000180005f70 f   database.obj
 0001:00005390       ?GetProperty@Database@leveldown@@CAXAEBV?$FunctionCallbackInfo@VValue@v8@@@Nan@@@Z 0000000180006390 f   database.obj
 0001:000055f0       ?Iterator@Database@leveldown@@CAXAEBV?$FunctionCallbackInfo@VValue@v8@@@Nan@@@Z 00000001800065f0 f   database.obj
 0001:000057d0       ??1TryCatch@Nan@@QEAA@XZ   00000001800067d0 f i database.obj
 0001:000057f0       ??1?$_Tree@V?$_Tmap_traits@IPEAVIterator@leveldown@@U?$less@I@std@@V?$allocator@U?$pair@$$CBIPEAVIterator@leveldown@@@std@@@4@$0A@@std@@@std@@QEAA@XZ 00000001800067f0 f i database.obj
 0001:00005830       ??0?$basic_string@DU?$char_traits@D@std@@V?$allocator@D@2@@std@@QEAA@XZ 0000000180006830 f i database.obj
 0001:00005850       ??1?$_Tree_comp_alloc@V?$_Tmap_traits@IPEAVIterator@leveldown@@U?$less@I@std@@V?$allocator@U?$pair@$$CBIPEAVIterator@leveldown@@@std@@@4@$0A@@std@@@std@@QEAA@XZ 0000000180006850 f i database.obj
 0001:00005850       ??1?$_Tree_comp_alloc@V?$_Tset_traits@U?$pair@H_K@std@@U?$less@U?$pair@H_K@std@@@2@V?$allocator@U?$pair@H_K@std@@@2@$0A@@std@@@std@@QEAA@XZ 0000000180006850 f i leveldb:db_impl.obj
 0001:00005870       ?erase@?$_Tree@V?$_Tmap_traits@IPEAVIterator@leveldown@@U?$less@I@std@@V?$allocator@U?$pair@$$CBIPEAVIterator@leveldown@@@std@@@4@$0A@@std@@@std@@QEAA?AV?$_Tree_iterator@V?$_Tree_val@U?$_Tree_simple_types@U?$pair@$$CBIPEAVIterator@leveldown@@@std@@@std@@@std@@@2@V?$_Tree_const_iterator@V?$_Tree_val@U?$_Tree_simple_types@U?$pair@$$CBIPEAVIterator@leveldown@@@std@@@std@@@std@@@2@0@Z 0000000180006870 f i database.obj
 0001:000059f0       ?assign@?$basic_string@DU?$char_traits@D@std@@V?$allocator@D@2@@std@@QEAAAEAV12@QEBD_K@Z 00000001800069f0 f i database.obj
 0001:00005b40       ?_Extract@?$_Tree_val@U?$_Tree_simple_types@U?$pair@$$CBIPEAVIterator@leveldown@@@std@@@std@@@std@@QEAAPEAU?$_Tree_node@U?$pair@$$CBIPEAVIterator@leveldown@@@std@@PEAX@2@V?$_Tree_const_iterator@V?$_Tree_val@U?$_Tree_simple_types@U?$pair@$$CBIPEAVIterator@leveldown@@@std@@@std@@@std@@@2@@Z 0000000180006b40 f i database.obj
 0001:00005b40       ?_Extract@?$_Tree_val@U?$_Tree_simple_types@_K@std@@@std@@QEAAPEAU?$_Tree_node@_KPEAX@2@V?$_Tree_const_iterator@V?$_Tree_val@U?$_Tree_simple_types@_K@std@@@std@@@2@@Z 0000000180006b40 f i leveldb:db_impl.obj
 0001:00005fe0       ?_Erase@?$_Tree@V?$_Tset_traits@U?$pair@H_K@std@@U?$less@U?$pair@H_K@std@@@2@V?$allocator@U?$pair@H_K@std@@@2@$0A@@std@@@std@@IEAAXPEAU?$_Tree_node@U?$pair@H_K@std@@PEAX@2@@Z 0000000180006fe0 f i leveldb:db_impl.obj
 0001:00005fe0       ?_Erase@?$_Tree@V?$_Tmap_traits@IPEAVIterator@leveldown@@U?$less@I@std@@V?$allocator@U?$pair@$$CBIPEAVIterator@leveldown@@@std@@@4@$0A@@std@@@std@@IEAAXPEAU?$_Tree_node@U?$pair@$$CBIPEAVIterator@leveldown@@@std@@PEAX@2@@Z 0000000180006fe0 f i database.obj
 0001:00006040       ?_Xlen@?$basic_string@DU?$char_traits@D@std@@V?$allocator@D@2@@std@@SAXXZ 0000000180007040 f i database.obj
 0001:00006060       ??$_Insert_hint@AEAU?$pair@$$CBIPEAVIterator@leveldown@@@std@@PEAU?$_Tree_node@U?$pair@$$CBIPEAVIterator@leveldown@@@std@@PEAX@2@@?$_Tree@V?$_Tmap_traits@IPEAVIterator@leveldown@@U?$less@I@std@@V?$allocator@U?$pair@$$CBIPEAVIterator@leveldown@@@std@@@4@$0A@@std@@@std@@IEAA?AV?$_Tree_iterator@V?$_Tree_val@U?$_Tree_simple_types@U?$pair@$$CBIPEAVIterator@leveldown@@@std@@@std@@@std@@@1@V?$_Tree_const_iterator@V?$_Tree_val@U?$_Tree_simple_types@U?$pair@$$CBIPEAVIterator@leveldown@@@std@@@std@@@std@@@1@AEAU?$pair@$$CBIPEAVIterator@leveldown@@@1@PEAU?$_Tree_node@U?$pair@$$CBIPEAVIterator@leveldown@@@std@@PEAX@1@@Z 0000000180007060 f i database.obj
 0001:00006380       ?_Destroy_if_node@?$_Tree@V?$_Tmap_traits@IPEAVIterator@leveldown@@U?$less@I@std@@V?$allocator@U?$pair@$$CBIPEAVIterator@leveldown@@@std@@@4@$0A@@std@@@std@@IEAAXPEAU?$_Tree_node@U?$pair@$$CBIPEAVIterator@leveldown@@@std@@PEAX@2@@Z 0000000180007380 f i database.obj
 0001:00006390       ??$_Insert_at@AEAU?$pair@$$CBIPEAVIterator@leveldown@@@std@@PEAU?$_Tree_node@U?$pair@$$CBIPEAVIterator@leveldown@@@std@@PEAX@2@@?$_Tree@V?$_Tmap_traits@IPEAVIterator@leveldown@@U?$less@I@std@@V?$allocator@U?$pair@$$CBIPEAVIterator@leveldown@@@std@@@4@$0A@@std@@@std@@IEAA?AV?$_Tree_iterator@V?$_Tree_val@U?$_Tree_simple_types@U?$pair@$$CBIPEAVIterator@leveldown@@@std@@@std@@@std@@@1@_NPEAU?$_Tree_node@U?$pair@$$CBIPEAVIterator@leveldown@@@std@@PEAX@1@AEAU?$pair@$$CBIPEAVIterator@leveldown@@@1@1@Z 0000000180007390 f i database.obj
 0001:00006640       ?GetFromPersistent@AsyncWorker@Nan@@QEBA?AV?$Local@VValue@v8@@@v8@@PEBD@Z 0000000180007640 f i database_async.obj
 0001:00006720       ??_GCloseWorker@leveldown@@UEAAPEAXI@Z 0000000180007720 f i database_async.obj
 0001:00006720       ??_ECloseWorker@leveldown@@UEAAPEAXI@Z 0000000180007720 f i * CIL library *:* CIL module *
 0001:00006780       ??1IOWorker@leveldown@@UEAA@XZ 0000000180007780 f i database_async.obj
 0001:000067c0       ??_EIOWorker@leveldown@@UEAAPEAXI@Z 00000001800077c0 f i * CIL library *:* CIL module *
 0001:000067c0       ??_GIOWorker@leveldown@@UEAAPEAXI@Z 00000001800077c0 f i database_async.obj
 0001:00006820       ??_GWriteWorker@leveldown@@UEAAPEAXI@Z 0000000180007820 f i database_async.obj
 0001:00006820       ??_EWriteWorker@leveldown@@UEAAPEAXI@Z 0000000180007820 f i * CIL library *:* CIL module *
 0001:000068b0       ??_GApproximateSizeWorker@leveldown@@UEAAPEAXI@Z 00000001800078b0 f i database_async.obj
 0001:000068b0       ??_EApproximateSizeWorker@leveldown@@UEAAPEAXI@Z 00000001800078b0 f i * CIL library *:* CIL module *
 0001:00006910       ??_GCompactRangeWorker@leveldown@@UEAAPEAXI@Z 0000000180007910 f i database_async.obj
 0001:00006910       ??_ECompactRangeWorker@leveldown@@UEAAPEAXI@Z 0000000180007910 f i * CIL library *:* CIL module *
 0001:00006970       ??_EOpenWorker@leveldown@@UEAAPEAXI@Z 0000000180007970 f i * CIL library *:* CIL module *
 0001:00006970       ??_GOpenWorker@leveldown@@UEAAPEAXI@Z 0000000180007970 f i database_async.obj
 0001:000069e0       ?Execute@OpenWorker@leveldown@@UEAAXXZ 00000001800079e0 f   database_async.obj
 0001:00006a30       ?Execute@CloseWorker@leveldown@@UEAAXXZ 0000000180007a30 f   database_async.obj
 0001:00006aa0       ?WorkComplete@CloseWorker@leveldown@@UEAAXXZ 0000000180007aa0 f   database_async.obj
 0001:00006b30       ??0IOWorker@leveldown@@QEAA@PEAVDatabase@1@PEAVCallback@Nan@@PEBDVSlice@leveldb@@AEAV?$Local@VObject@v8@@@v8@@@Z 0000000180007b30 f   database_async.obj
 0001:00006c50       ?WorkComplete@IOWorker@leveldown@@UEAAXXZ 0000000180007c50 f   database_async.obj
 0001:00006cf0       ??0ReadWorker@leveldown@@QEAA@PEAVDatabase@1@PEAVCallback@Nan@@VSlice@leveldb@@_N3AEAV?$Local@VObject@v8@@@v8@@@Z 0000000180007cf0 f   database_async.obj
 0001:00006f40       ??_GReadWorker@leveldown@@UEAAPEAXI@Z 0000000180007f40 f i database_async.obj
 0001:00006f40       ??_EReadWorker@leveldown@@UEAAPEAXI@Z 0000000180007f40 f i * CIL library *:* CIL module *
 0001:00007020       ?Execute@ReadWorker@leveldown@@UEAAXXZ 0000000180008020 f   database_async.obj
 0001:00007090       ?HandleOKCallback@ReadWorker@leveldown@@UEAAXXZ 0000000180008090 f   database_async.obj
 0001:000071d0       ??0DeleteWorker@leveldown@@QEAA@PEAVDatabase@1@PEAVCallback@Nan@@VSlice@leveldb@@_NAEAV?$Local@VObject@v8@@@v8@@PEBD@Z 00000001800081d0 f   database_async.obj
 0001:00007320       ??_GDeleteWorker@leveldown@@UEAAPEAXI@Z 0000000180008320 f i database_async.obj
 0001:00007320       ??_EDeleteWorker@leveldown@@UEAAPEAXI@Z 0000000180008320 f i * CIL library *:* CIL module *
 0001:000073a0       ??1DeleteWorker@leveldown@@UEAA@XZ 00000001800083a0 f   database_async.obj
 0001:00007400       ?Execute@DeleteWorker@leveldown@@UEAAXXZ 0000000180008400 f   database_async.obj
 0001:00007460       ?Execute@WriteWorker@leveldown@@UEAAXXZ 0000000180008460 f   database_async.obj
 0001:000074d0       ?WorkComplete@WriteWorker@leveldown@@UEAAXXZ 00000001800084d0 f   database_async.obj
 0001:000075e0       ??_GBatchWorker@leveldown@@UEAAPEAXI@Z 00000001800085e0 f i database_async.obj
 0001:000075e0       ??_EBatchWorker@leveldown@@UEAAPEAXI@Z 00000001800085e0 f i * CIL library *:* CIL module *
 0001:00007670       ?Execute@BatchWorker@leveldown@@UEAAXXZ 0000000180008670 f   database_async.obj
 0001:000076c0       ??0ApproximateSizeWorker@leveldown@@QEAA@PEAVDatabase@1@PEAVCallback@Nan@@VSlice@leveldb@@2AEAV?$Local@VObject@v8@@@v8@@3@Z 00000001800086c0 f   database_async.obj
 0001:000078a0       ?Execute@ApproximateSizeWorker@leveldown@@UEAAXXZ 00000001800088a0 f   database_async.obj
 0001:000078e0       ?WorkComplete@ApproximateSizeWorker@leveldown@@UEAAXXZ 00000001800088e0 f   database_async.obj
 0001:000079d0       ?HandleOKCallback@ApproximateSizeWorker@leveldown@@UEAAXXZ 00000001800089d0 f   database_async.obj
 0001:00007a90       ??0CompactRangeWorker@leveldown@@QEAA@PEAVDatabase@1@PEAVCallback@Nan@@VSlice@leveldb@@2AEAV?$Local@VObject@v8@@@v8@@3@Z 0000000180008a90 f   database_async.obj
 0001:00007c90       ?Execute@CompactRangeWorker@leveldown@@UEAAXXZ 0000000180008c90 f   database_async.obj
 0001:00007cc0       ?WorkComplete@CompactRangeWorker@leveldown@@UEAAXXZ 0000000180008cc0 f   database_async.obj
 0001:00007db0       ?HandleOKCallback@CompactRangeWorker@leveldown@@UEAAXXZ 0000000180008db0 f   database_async.obj
 0001:00007e20       ?ToString@Slice@leveldb@@QEBA?AV?$basic_string@DU?$char_traits@D@std@@V?$allocator@D@2@@std@@XZ 0000000180008e20 f i iterator.obj
 0001:00007e70       ?compare@Slice@leveldb@@QEBAHAEBV12@@Z 0000000180008e70 f i iterator.obj
 0001:00007f70       ??_EIterator@leveldown@@UEAAPEAXI@Z 0000000180008f70 f i * CIL library *:* CIL module *
 0001:00007f70       ??_GIterator@leveldown@@UEAAPEAXI@Z 0000000180008f70 f i iterator.obj
 0001:00007fb0       ??1Iterator@leveldown@@UEAA@XZ 0000000180008fb0 f   iterator.obj
 0001:00008290       ?GetIterator@Iterator@leveldown@@AEAA_NXZ 0000000180009290 f   iterator.obj
 0001:00008680       ?Read@Iterator@leveldown@@AEAA_NAEAV?$basic_string@DU?$char_traits@D@std@@V?$allocator@D@2@@std@@0@Z 0000000180009680 f   iterator.obj
 0001:00008a60       ?OutOfRange@Iterator@leveldown@@AEAA_NPEAVSlice@leveldb@@@Z 0000000180009a60 f   iterator.obj
 0001:00008c40       ?IteratorNext@Iterator@leveldown@@QEAA_NAEAV?$vector@U?$pair@V?$basic_string@DU?$char_traits@D@std@@V?$allocator@D@2@@std@@V12@@std@@V?$allocator@U?$pair@V?$basic_string@DU?$char_traits@D@std@@V?$allocator@D@2@@std@@V12@@std@@@2@@std@@@Z 0000000180009c40 f   iterator.obj
 0001:00008fd0       ??1?$pair@V?$basic_string@DU?$char_traits@D@std@@V?$allocator@D@2@@std@@V12@@std@@QEAA@XZ 0000000180009fd0 f i iterator.obj
 0001:00009090       ?IteratorStatus@Iterator@leveldown@@QEAA?AVStatus@leveldb@@XZ 000000018000a090 f   iterator.obj
 0001:000090d0       ?checkEndCallback@leveldown@@YAXPEAVIterator@1@@Z 000000018000a0d0 f   iterator.obj
 0001:00009160       ?Seek@Iterator@leveldown@@CAXAEBV?$FunctionCallbackInfo@VValue@v8@@@Nan@@@Z 000000018000a160 f   iterator.obj
 0001:00009420       ?Next@Iterator@leveldown@@CAXAEBV?$FunctionCallbackInfo@VValue@v8@@@Nan@@@Z 000000018000a420 f   iterator.obj
 0001:00009730       ?End@Iterator@leveldown@@CAXAEBV?$FunctionCallbackInfo@VValue@v8@@@Nan@@@Z 000000018000a730 f   iterator.obj
 0001:000098c0       ?NewInstance@Iterator@leveldown@@SA?AV?$Local@VObject@v8@@@v8@@V34@V?$Local@VNumber@v8@@@4@0@Z 000000018000a8c0 f   iterator.obj
 0001:00009a80       ?New@Iterator@leveldown@@CAXAEBV?$FunctionCallbackInfo@VValue@v8@@@Nan@@@Z 000000018000aa80 f   iterator.obj
 0001:0000ae60       ?compare@?$basic_string@DU?$char_traits@D@std@@V?$allocator@D@2@@std@@QEBAHAEBV12@@Z 000000018000be60 f i iterator.obj
 0001:0000aed0       ??0?$basic_string@DU?$char_traits@D@std@@V?$allocator@D@2@@std@@QEAA@AEBV01@@Z 000000018000bed0 f i iterator.obj
 0001:0000afb0       ??$_Emplace_reallocate@U?$pair@V?$basic_string@DU?$char_traits@D@std@@V?$allocator@D@2@@std@@V12@@std@@@?$vector@U?$pair@V?$basic_string@DU?$char_traits@D@std@@V?$allocator@D@2@@std@@V12@@std@@V?$allocator@U?$pair@V?$basic_string@DU?$char_traits@D@std@@V?$allocator@D@2@@std@@V12@@std@@@2@@std@@QEAAPEAU?$pair@V?$basic_string@DU?$char_traits@D@std@@V?$allocator@D@2@@std@@V12@@1@QEAU21@$$QEAU21@@Z 000000018000bfb0 f i iterator.obj
 0001:0000b1d0       ?_Xlength@?$vector@VSlice@leveldb@@V?$allocator@VSlice@leveldb@@@std@@@std@@CAXXZ 000000018000c1d0 f i leveldb:filter_block.obj
 0001:0000b1d0       ?_Xlength@?$vector@PEAVIterator@leveldb@@V?$allocator@PEAVIterator@leveldb@@@std@@@std@@CAXXZ 000000018000c1d0 f i leveldb:db_impl.obj
 0001:0000b1d0       ?_Xlength@?$vector@U?$pair@V?$basic_string@DU?$char_traits@D@std@@V?$allocator@D@2@@std@@V12@@std@@V?$allocator@U?$pair@V?$basic_string@DU?$char_traits@D@std@@V?$allocator@D@2@@std@@V12@@std@@@2@@std@@CAXXZ 000000018000c1d0 f i iterator.obj
 0001:0000b1d0       ?_Xlength@?$vector@PEADV?$allocator@PEAD@std@@@std@@CAXXZ 000000018000c1d0 f i leveldb:arena.obj
 0001:0000b1d0       ?_Xlength@?$vector@U?$pair@HVInternalKey@leveldb@@@std@@V?$allocator@U?$pair@HVInternalKey@leveldb@@@std@@@2@@std@@CAXXZ 000000018000c1d0 f i leveldb:version_set.obj
 0001:0000b1d0       ?_Xlength@?$vector@V?$basic_string@DU?$char_traits@D@std@@V?$allocator@D@2@@std@@V?$allocator@V?$basic_string@DU?$char_traits@D@std@@V?$allocator@D@2@@std@@@2@@std@@CAXXZ 000000018000c1d0 f i leveldb:repair.obj
 0001:0000b1d0       ?_Xlength@?$vector@PEAUFileMetaData@leveldb@@V?$allocator@PEAUFileMetaData@leveldb@@@std@@@std@@CAXXZ 000000018000c1d0 f i leveldb:version_set.obj
 0001:0000b1d0       ?_Xlength@?$vector@IV?$allocator@I@std@@@std@@CAXXZ 000000018000c1d0 f i leveldb:block_builder.obj
 0001:0000b1d0       ?_Xlength@?$vector@_KV?$allocator@_K@std@@@std@@CAXXZ 000000018000c1d0 f i leveldb:db_impl.obj
 0001:0000b1d0       ?_Xlength@?$vector@U?$pair@HUFileMetaData@leveldb@@@std@@V?$allocator@U?$pair@HUFileMetaData@leveldb@@@std@@@2@@std@@CAXXZ 000000018000c1d0 f i leveldb:db_impl.obj
 0001:0000b1d0       ?_Xlength@?$vector@UOutput@CompactionState@DBImpl@leveldb@@V?$allocator@UOutput@CompactionState@DBImpl@leveldb@@@std@@@std@@CAXXZ 000000018000c1d0 f i leveldb:db_impl.obj
 0001:0000b1f0       ??$_Uninitialized_move@PEAU?$pair@V?$basic_string@DU?$char_traits@D@std@@V?$allocator@D@2@@std@@V12@@std@@PEAU12@V?$allocator@U?$pair@V?$basic_string@DU?$char_traits@D@std@@V?$allocator@D@2@@std@@V12@@std@@@2@@std@@YAPEAU?$pair@V?$basic_string@DU?$char_traits@D@std@@V?$allocator@D@2@@std@@V12@@0@QEAU10@0PEAU10@AEAV?$allocator@U?$pair@V?$basic_string@DU?$char_traits@D@std@@V?$allocator@D@2@@std@@V12@@std@@@0@@Z 000000018000c1f0 f i iterator.obj
 0001:0000b2a0       ??1?$_Uninitialized_backout_al@PEAU?$pair@V?$basic_string@DU?$char_traits@D@std@@V?$allocator@D@2@@std@@V12@@std@@V?$allocator@U?$pair@V?$basic_string@DU?$char_traits@D@std@@V?$allocator@D@2@@std@@V12@@std@@@2@@std@@QEAA@XZ 000000018000c2a0 f i iterator.obj
 0001:0000b2e0       ??_ENextWorker@leveldown@@UEAAPEAXI@Z 000000018000c2e0 f i * CIL library *:* CIL module *
 0001:0000b2e0       ??_GNextWorker@leveldown@@UEAAPEAXI@Z 000000018000c2e0 f i iterator_async.obj
 0001:0000b3e0       ??_GEndWorker@leveldown@@UEAAPEAXI@Z 000000018000c3e0 f i iterator_async.obj
 0001:0000b3e0       ??_EEndWorker@leveldown@@UEAAPEAXI@Z 000000018000c3e0 f i * CIL library *:* CIL module *
 0001:0000b440       ?Execute@NextWorker@leveldown@@UEAAXXZ 000000018000c440 f   iterator_async.obj
 0001:0000b4a0       ?HandleOKCallback@NextWorker@leveldown@@UEAAXXZ 000000018000c4a0 f   iterator_async.obj
 0001:0000bbd0       ?Execute@EndWorker@leveldown@@UEAAXXZ 000000018000cbd0 f   iterator_async.obj
 0001:0000bc20       ?HandleOKCallback@EndWorker@leveldown@@UEAAXXZ 000000018000cc20 f   iterator_async.obj
 0001:0000bd90       ??1?$vector@U?$pair@V?$basic_string@DU?$char_traits@D@std@@V?$allocator@D@2@@std@@V12@@std@@V?$allocator@U?$pair@V?$basic_string@DU?$char_traits@D@std@@V?$allocator@D@2@@std@@V12@@std@@@2@@std@@QEAA@XZ 000000018000cd90 f i iterator_async.obj
 0001:0000be30       ?DestroyDB@leveldown@@YAXAEBV?$FunctionCallbackInfo@VValue@v8@@@Nan@@@Z 000000018000ce30 f   leveldown.obj
 0001:0000bf70       ?RepairDB@leveldown@@YAXAEBV?$FunctionCallbackInfo@VValue@v8@@@Nan@@@Z 000000018000cf70 f   leveldown.obj
 0001:0000c0b0       ?Init@leveldown@@YAXV?$Local@VObject@v8@@@v8@@@Z 000000018000d0b0 f   leveldown.obj
 0001:0000c5c0       ??_GDestroyWorker@leveldown@@UEAAPEAXI@Z 000000018000d5c0 f i leveldown_async.obj
 0001:0000c5c0       ??_EDestroyWorker@leveldown@@UEAAPEAXI@Z 000000018000d5c0 f i * CIL library *:* CIL module *
 0001:0000c660       ?Execute@DestroyWorker@leveldown@@UEAAXXZ 000000018000d660 f   leveldown_async.obj
 0001:0000c790       ??_GRepairWorker@leveldown@@UEAAPEAXI@Z 000000018000d790 f i leveldown_async.obj
 0001:0000c790       ??_ERepairWorker@leveldown@@UEAAPEAXI@Z 000000018000d790 f i * CIL library *:* CIL module *
 0001:0000c830       ?Execute@RepairWorker@leveldown@@UEAAXXZ 000000018000d830 f   leveldown_async.obj
 0001:0000c9b0       ?remove_prefix@Slice@leveldb@@QEAAX_K@Z 000000018000d9b0 f i leveldb:write_batch.obj
 0001:0000ca00       ?OK@Status@leveldb@@SA?AV12@XZ 000000018000da00 f i leveldb:write_batch.obj
 0001:0000ca30       ??0WriteBatch@leveldb@@QEAA@XZ 000000018000da30 f   leveldb:write_batch.obj
 0001:0000ca80       ??1InternalKey@leveldb@@QEAA@XZ 000000018000da80 f   leveldb:db_impl.obj
 0001:0000ca80       ??1WriteBatch@leveldb@@QEAA@XZ 000000018000da80 f   leveldb:write_batch.obj
 0001:0000caf0       ??1SequentialFile@leveldb@@UEAA@XZ 000000018000daf0 f   leveldb:env.obj
 0001:0000caf0       ??1Handler@WriteBatch@leveldb@@UEAA@XZ 000000018000daf0 f   leveldb:write_batch.obj
 0001:0000cb00       ??_ESequentialFile@leveldb@@UEAAPEAXI@Z 000000018000db00 f i * CIL library *:* CIL module *
 0001:0000cb00       ??_GHandler@WriteBatch@leveldb@@UEAAPEAXI@Z 000000018000db00 f i leveldb:write_batch.obj
 0001:0000cb00       ??_EHandler@WriteBatch@leveldb@@UEAAPEAXI@Z 000000018000db00 f i * CIL library *:* CIL module *
 0001:0000cb00       ??_GSequentialFile@leveldb@@UEAAPEAXI@Z 000000018000db00 f i leveldb:env.obj
 0001:0000cb30       ?Iterate@WriteBatch@leveldb@@QEBA?AVStatus@2@PEAVHandler@12@@Z 000000018000db30 f   leveldb:write_batch.obj
 0001:0000d0b0       ?InsertInto@WriteBatchInternal@leveldb@@SA?AVStatus@2@PEBVWriteBatch@2@PEAVMemTable@2@@Z 000000018000e0b0 f   leveldb:write_batch.obj
 0001:0000d1a0       ?resize@?$basic_string@DU?$char_traits@D@std@@V?$allocator@D@2@@std@@QEAAX_KD@Z 000000018000e1a0 f i leveldb:write_batch.obj
 0001:0000d230       ?push_back@?$basic_string@DU?$char_traits@D@std@@V?$allocator@D@2@@std@@QEAAXD@Z 000000018000e230 f i leveldb:write_batch.obj
 0001:0000d3c0       ?append@?$basic_string@DU?$char_traits@D@std@@V?$allocator@D@2@@std@@QEAAAEAV12@QEBD_K@Z 000000018000e3c0 f i leveldb:write_batch.obj
 0001:0000d440       ??$_Reallocate_grow_by@V<lambda_65e615be2a453ca0576c979606f46740>@@PEBD_K@?$basic_string@DU?$char_traits@D@std@@V?$allocator@D@2@@std@@QEAAAEAV01@_KV<lambda_65e615be2a453ca0576c979606f46740>@@PEBD_K@Z 000000018000e440 f i leveldb:write_batch.obj
 0001:0000d5c0       ??$_Reallocate_grow_by@V<lambda_e1befb086ad3257e3f042a63030725f7>@@_KD@?$basic_string@DU?$char_traits@D@std@@V?$allocator@D@2@@std@@QEAAAEAV01@_KV<lambda_e1befb086ad3257e3f042a63030725f7>@@_KD@Z 000000018000e5c0 f i leveldb:write_batch.obj
 0001:0000d730       __local_stdio_printf_options 000000018000e730 f i leveldb:status.obj
 0001:0000d740       snprintf                   000000018000e740 f i leveldb:status.obj
 0001:0000d7a0       ??0Status@leveldb@@AEAA@W4Code@01@AEBVSlice@1@1@Z 000000018000e7a0 f   leveldb:status.obj
 0001:0000d870       ?ToString@Status@leveldb@@QEBA?AV?$basic_string@DU?$char_traits@D@std@@V?$allocator@D@2@@std@@XZ 000000018000e870 f   leveldb:status.obj
 0001:0000dcd0       ??_EFilterPolicy@leveldb@@UEAAPEAXI@Z 000000018000ecd0 f i * CIL library *:* CIL module *
 0001:0000dcd0       ??_GSource@snappy@@UEAAPEAXI@Z 000000018000ecd0 f i snappy:snappy.obj
 0001:0000dcd0       ??_ESource@snappy@@UEAAPEAXI@Z 000000018000ecd0 f i * CIL library *:* CIL module *
 0001:0000dcd0       ??_GFilterPolicy@leveldb@@UEAAPEAXI@Z 000000018000ecd0 f i leveldb:bloom.obj
 0001:0000dd00       ?IOError@Status@leveldb@@SA?AV12@AEBVSlice@2@0@Z 000000018000ed00 f i leveldb:db_impl.obj
 0001:0000dd50       ??0Status@leveldb@@QEAA@AEBV01@@Z 000000018000ed50 f i leveldb:db_impl.obj
 0001:0000ddc0       ??_EDB@leveldb@@UEAAPEAXI@Z 000000018000edc0 f i * CIL library *:* CIL module *
 0001:0000ddc0       ??_GDB@leveldb@@UEAAPEAXI@Z 000000018000edc0 f i leveldb:db_impl.obj
 0001:0000ddf0       ??_GInternalKeyComparator@leveldb@@UEAAPEAXI@Z 000000018000edf0 f i leveldb:db_impl.obj
 0001:0000ddf0       ??_EInternalKeyComparator@leveldb@@UEAAPEAXI@Z 000000018000edf0 f i * CIL library *:* CIL module *
 0001:0000de30       ??1InternalKeyComparator@leveldb@@UEAA@XZ 000000018000ee30 f i leveldb:db_impl.obj
 0001:0000de50       ??_GWritableFile@leveldb@@UEAAPEAXI@Z 000000018000ee50 f i leveldb:env.obj
 0001:0000de50       ??_EComparator@leveldb@@UEAAPEAXI@Z 000000018000ee50 f i * CIL library *:* CIL module *
 0001:0000de50       ??_GComparator@leveldb@@UEAAPEAXI@Z 000000018000ee50 f i leveldb:db_impl.obj
 0001:0000de50       ??_EWritableFile@leveldb@@UEAAPEAXI@Z 000000018000ee50 f i * CIL library *:* CIL module *
 0001:0000de80       ??_EInternalFilterPolicy@leveldb@@UEAAPEAXI@Z 000000018000ee80 f i * CIL library *:* CIL module *
 0001:0000de80       ??_GInternalFilterPolicy@leveldb@@UEAAPEAXI@Z 000000018000ee80 f i leveldb:db_impl.obj
 0001:0000dec0       ??1InternalFilterPolicy@leveldb@@UEAA@XZ 000000018000eec0 f i leveldb:db_impl.obj
 0001:0000dee0       ??1LookupKey@leveldb@@QEAA@XZ 000000018000eee0 f i leveldb:db_impl.obj
 0001:0000df00       ??1SnapshotImpl@leveldb@@UEAA@XZ 000000018000ef00 f i leveldb:db_impl.obj
 0001:0000df20       ??_GSnapshotImpl@leveldb@@UEAAPEAXI@Z 000000018000ef20 f i leveldb:db_impl.obj
 0001:0000df20       ??_ESnapshotImpl@leveldb@@UEAAPEAXI@Z 000000018000ef20 f i * CIL library *:* CIL module *
 0001:0000df60       ??_EFileLock@leveldb@@UEAAPEAXI@Z 000000018000ef60 f i * CIL library *:* CIL module *
 0001:0000df60       ??_ESnapshot@leveldb@@MEAAPEAXI@Z 000000018000ef60 f i * CIL library *:* CIL module *
 0001:0000df60       ??_GFileLock@leveldb@@UEAAPEAXI@Z 000000018000ef60 f i leveldb:env.obj
 0001:0000df60       ??_GSnapshot@leveldb@@MEAAPEAXI@Z 000000018000ef60 f i leveldb:db_impl.obj
 0001:0000df90       ?Unref@MemTable@leveldb@@QEAAXXZ 000000018000ef90 f i leveldb:db_impl.obj
 0001:0000e050       ??0VersionEdit@leveldb@@QEAA@XZ 000000018000f050 f i leveldb:db_impl.obj
 0001:0000e0f0       ??1VersionEdit@leveldb@@QEAA@XZ 000000018000f0f0 f i leveldb:db_impl.obj
 0001:0000e2c0       ?SetComparatorName@VersionEdit@leveldb@@QEAAXAEBVSlice@2@@Z 000000018000f2c0 f i leveldb:db_impl.obj
 0001:0000e3e0       ?AddFile@VersionEdit@leveldb@@QEAAXH_K0AEBVInternalKey@2@1@Z 000000018000f3e0 f i leveldb:db_impl.obj
 0001:0000e580       ??1?$set@U?$pair@H_K@std@@U?$less@U?$pair@H_K@std@@@2@V?$allocator@U?$pair@H_K@std@@@2@@std@@QEAA@XZ 000000018000f580 f i leveldb:db_impl.obj
 0001:0000e5b0       ??1?$pair@HVInternalKey@leveldb@@@std@@QEAA@XZ 000000018000f5b0 f i leveldb:db_impl.obj
 0001:0000e630       ??1FileMetaData@leveldb@@QEAA@XZ 000000018000f630 f i leveldb:db_impl.obj
 0001:0000e710       ??1?$pair@HUFileMetaData@leveldb@@@std@@QEAA@XZ 000000018000f710 f i leveldb:db_impl.obj
 0001:0000e730       ?SetLastSequence@VersionSet@leveldb@@QEAAX_K@Z 000000018000f730 f i leveldb:db_impl.obj
 0001:0000e780       ??1MutexLock@leveldb@@QEAA@XZ 000000018000f780 f i leveldb:db_impl.obj
 0001:0000e7a0       ?SanitizeOptions@leveldb@@YA?AUOptions@1@AEBV?$basic_string@DU?$char_traits@D@std@@V?$allocator@D@2@@std@@PEBVInternalKeyComparator@1@PEBVInternalFilterPolicy@1@AEBU21@@Z 000000018000f7a0 f   leveldb:db_impl.obj
 0001:0000ebc0       ??0DBImpl@leveldb@@QEAA@AEBUOptions@1@AEBV?$basic_string@DU?$char_traits@D@std@@V?$allocator@D@2@@std@@@Z 000000018000fbc0 f   leveldb:db_impl.obj
 0001:0000efe0       ??1DBImpl@leveldb@@UEAA@XZ 000000018000ffe0 f   leveldb:db_impl.obj
 0001:0000f410       ?NewDB@DBImpl@leveldb@@AEAA?AVStatus@2@XZ 0000000180010410 f   leveldb:db_impl.obj
 0001:0000f8c0       ?MaybeIgnoreError@DBImpl@leveldb@@AEBAXPEAVStatus@2@@Z 00000001800108c0 f   leveldb:db_impl.obj
 0001:0000f9d0       ?DeleteObsoleteFiles@DBImpl@leveldb@@AEAAXXZ 00000001800109d0 f   leveldb:db_impl.obj
 0001:0000ff10       ?Recover@DBImpl@leveldb@@AEAA?AVStatus@2@PEAVVersionEdit@2@PEA_N@Z 0000000180010f10 f   leveldb:db_impl.obj
 0001:00010b40       ?RecoverLogFile@DBImpl@leveldb@@AEAA?AVStatus@2@_K_NPEA_NPEAVVersionEdit@2@PEA_K@Z 0000000180011b40 f   leveldb:db_impl.obj
 0001:00011620       ?WriteLevel0Table@DBImpl@leveldb@@AEAA?AVStatus@2@PEAVMemTable@2@PEAVVersionEdit@2@PEAVVersion@2@@Z 0000000180012620 f   leveldb:db_impl.obj
 0001:000119f0       ?CompactMemTable@DBImpl@leveldb@@AEAAXXZ 00000001800129f0 f   leveldb:db_impl.obj
 0001:00011cd0       ?CompactRange@DBImpl@leveldb@@UEAAXPEBVSlice@2@0@Z 0000000180012cd0 f   leveldb:db_impl.obj
 0001:00011e60       ?TEST_CompactRange@DBImpl@leveldb@@QEAAXHPEBVSlice@2@0@Z 0000000180012e60 f   leveldb:db_impl.obj
 0001:000122b0       ?MaybeScheduleCompaction@DBImpl@leveldb@@AEAAXXZ 00000001800132b0 f   leveldb:db_impl.obj
 0001:00012340       ?BGWork@DBImpl@leveldb@@CAXPEAX@Z 0000000180013340 f   leveldb:db_impl.obj
 0001:000123e0       ?BackgroundCompaction@DBImpl@leveldb@@AEAAXXZ 00000001800133e0 f   leveldb:db_impl.obj
 0001:00012c80       ?CleanupCompaction@DBImpl@leveldb@@AEAAXPEAUCompactionState@12@@Z 0000000180013c80 f   leveldb:db_impl.obj
 0001:00012e60       ?OpenCompactionOutputFile@DBImpl@leveldb@@AEAA?AVStatus@2@PEAUCompactionState@12@@Z 0000000180013e60 f   leveldb:db_impl.obj
 0001:000130d0       ?FinishCompactionOutputFile@DBImpl@leveldb@@AEAA?AVStatus@2@PEAUCompactionState@12@PEAVIterator@2@@Z 00000001800140d0 f   leveldb:db_impl.obj
 0001:000133d0       ?InstallCompactionResults@DBImpl@leveldb@@AEAA?AVStatus@2@PEAUCompactionState@12@@Z 00000001800143d0 f   leveldb:db_impl.obj
 0001:000135f0       ?DoCompactionWork@DBImpl@leveldb@@AEAA?AVStatus@2@PEAUCompactionState@12@@Z 00000001800145f0 f   leveldb:db_impl.obj
 0001:000142d0       ?NewInternalIterator@DBImpl@leveldb@@AEAAPEAVIterator@2@AEBUReadOptions@2@PEA_KPEAI@Z 00000001800152d0 f   leveldb:db_impl.obj
 0001:00014690       ?Get@DBImpl@leveldb@@UEAA?AVStatus@2@AEBUReadOptions@2@AEBVSlice@2@PEAV?$basic_string@DU?$char_traits@D@std@@V?$allocator@D@2@@std@@@Z 0000000180015690 f   leveldb:db_impl.obj
 0001:00014930       ?NewIterator@DBImpl@leveldb@@UEAAPEAVIterator@2@AEBUReadOptions@2@@Z 0000000180015930 f   leveldb:db_impl.obj
 0001:00014a60       ?GetSnapshot@DBImpl@leveldb@@UEAAPEBVSnapshot@2@XZ 0000000180015a60 f   leveldb:db_impl.obj
 0001:00014b10       ?ReleaseSnapshot@DBImpl@leveldb@@UEAAXPEBVSnapshot@2@@Z 0000000180015b10 f   leveldb:db_impl.obj
 0001:00014bb0       ?Put@DBImpl@leveldb@@UEAA?AVStatus@2@AEBUWriteOptions@2@AEBVSlice@2@1@Z 0000000180015bb0 f   leveldb:db_impl.obj
 0001:00014bf0       ?Delete@DBImpl@leveldb@@UEAA?AVStatus@2@AEBUWriteOptions@2@AEBVSlice@2@@Z 0000000180015bf0 f   leveldb:db_impl.obj
 0001:00014d50       ?Write@DBImpl@leveldb@@UEAA?AVStatus@2@AEBUWriteOptions@2@PEAVWriteBatch@2@@Z 0000000180015d50 f   leveldb:db_impl.obj
 0001:00015300       ?BuildBatchGroup@DBImpl@leveldb@@AEAAPEAVWriteBatch@2@PEAPEAUWriter@12@@Z 0000000180016300 f   leveldb:db_impl.obj
 0001:000155f0       ?MakeRoomForWrite@DBImpl@leveldb@@AEAA?AVStatus@2@_N@Z 00000001800165f0 f   leveldb:db_impl.obj
 0001:000159f0       ?GetProperty@DBImpl@leveldb@@UEAA_NAEBVSlice@2@PEAV?$basic_string@DU?$char_traits@D@std@@V?$allocator@D@2@@std@@@Z 00000001800169f0 f   leveldb:db_impl.obj
 0001:00015f80       ?GetApproximateSizes@DBImpl@leveldb@@UEAAXPEBURange@2@HPEA_K@Z 0000000180016f80 f   leveldb:db_impl.obj
 0001:00016250       ?Put@DB@leveldb@@UEAA?AVStatus@2@AEBUWriteOptions@2@AEBVSlice@2@1@Z 0000000180017250 f   leveldb:db_impl.obj
 0001:000163b0       ??1DB@leveldb@@UEAA@XZ     00000001800173b0 f   leveldb:db_impl.obj
 0001:000163c0       ?Open@DB@leveldb@@SA?AVStatus@2@AEBUOptions@2@AEBV?$basic_string@DU?$char_traits@D@std@@V?$allocator@D@2@@std@@PEAPEAV12@@Z 00000001800173c0 f   leveldb:db_impl.obj
 0001:000167a0       ??1Snapshot@leveldb@@MEAA@XZ 00000001800177a0 f   leveldb:db_impl.obj
 0001:000167a0       ??1FileLock@leveldb@@UEAA@XZ 00000001800177a0 f   leveldb:env.obj
 0001:000167b0       ?DestroyDB@leveldb@@YA?AVStatus@1@AEBV?$basic_string@DU?$char_traits@D@std@@V?$allocator@D@2@@std@@AEBUOptions@1@@Z 00000001800177b0 f   leveldb:db_impl.obj
 0001:00016ca0       ??_GDBImpl@leveldb@@UEAAPEAXI@Z 0000000180017ca0 f i leveldb:db_impl.obj
 0001:00016ca0       ??_EDBImpl@leveldb@@UEAAPEAXI@Z 0000000180017ca0 f i * CIL library *:* CIL module *
 0001:00016ce0       ??1SnapshotList@leveldb@@QEAA@XZ 0000000180017ce0 f i leveldb:db_impl.obj
 0001:00016d10       ??1?$set@_KU?$less@_K@std@@V?$allocator@_K@2@@std@@QEAA@XZ 0000000180017d10 f i leveldb:db_impl.obj
 0001:00016d50       ??_GTableCache@leveldb@@QEAAPEAXI@Z 0000000180017d50 f i leveldb:db_impl.obj
 0001:00016e50       ??1ManualCompaction@DBImpl@leveldb@@QEAA@XZ 0000000180017e50 f i leveldb:db_impl.obj
 0001:00016ed0       ??1Output@CompactionState@DBImpl@leveldb@@QEAA@XZ 0000000180017ed0 f i leveldb:db_impl.obj
 0001:00016fb0       ??1Writer@DBImpl@leveldb@@QEAA@XZ 0000000180017fb0 f i leveldb:db_impl.obj
 0001:00016fe0       ??_EReporter@Reader@log@leveldb@@UEAAPEAXI@Z 0000000180017fe0 f i * CIL library *:* CIL module *
 0001:00016fe0       ??_GLogger@leveldb@@UEAAPEAXI@Z 0000000180017fe0 f i leveldb:env.obj
 0001:00016fe0       ??_ELogger@leveldb@@UEAAPEAXI@Z 0000000180017fe0 f i * CIL library *:* CIL module *
 0001:00016fe0       ??_ERandomAccessFile@leveldb@@UEAAPEAXI@Z 0000000180017fe0 f i * CIL library *:* CIL module *
 0001:00016fe0       ??_GRandomAccessFile@leveldb@@UEAAPEAXI@Z 0000000180017fe0 f i leveldb:env.obj
 0001:00016fe0       ??_GReporter@Reader@log@leveldb@@UEAAPEAXI@Z 0000000180017fe0 f i leveldb:db_impl.obj
 0001:00017010       ??1?$vector@PEADV?$allocator@PEAD@std@@@std@@QEAA@XZ 0000000180018010 f i leveldb:arena.obj
 0001:00017010       ??1?$vector@_KV?$allocator@_K@std@@@std@@QEAA@XZ 0000000180018010 f i leveldb:db_impl.obj
 0001:00017010       ??1?$vector@PEAVIterator@leveldb@@V?$allocator@PEAVIterator@leveldb@@@std@@@std@@QEAA@XZ 0000000180018010 f i leveldb:db_impl.obj
 0001:00017010       ??1?$vector@PEAUFileMetaData@leveldb@@V?$allocator@PEAUFileMetaData@leveldb@@@std@@@std@@QEAA@XZ 0000000180018010 f i leveldb:version_set.obj
 0001:00017080       ??1?$vector@UOutput@CompactionState@DBImpl@leveldb@@V?$allocator@UOutput@CompactionState@DBImpl@leveldb@@@std@@@std@@QEAA@XZ 0000000180018080 f i leveldb:db_impl.obj
 0001:00017140       ?push_back@?$vector@U?$pair@HUFileMetaData@leveldb@@@std@@V?$allocator@U?$pair@HUFileMetaData@leveldb@@@std@@@2@@std@@QEAAX$$QEAU?$pair@HUFileMetaData@leveldb@@@2@@Z 0000000180018140 f i leveldb:db_impl.obj
 0001:00017210       ??1?$vector@U?$pair@HUFileMetaData@leveldb@@@std@@V?$allocator@U?$pair@HUFileMetaData@leveldb@@@std@@@2@@std@@QEAA@XZ 0000000180018210 f i leveldb:db_impl.obj
 0001:000172e0       ??1?$_Tree@V?$_Tset_traits@U?$pair@H_K@std@@U?$less@U?$pair@H_K@std@@@2@V?$allocator@U?$pair@H_K@std@@@2@$0A@@std@@@std@@QEAA@XZ 00000001800182e0 f i leveldb:db_impl.obj
 0001:00017310       ??1?$vector@U?$pair@HVInternalKey@leveldb@@@std@@V?$allocator@U?$pair@HVInternalKey@leveldb@@@std@@@2@@std@@QEAA@XZ 0000000180018310 f i leveldb:db_impl.obj
 0001:000173b0       ?erase@?$_Tree@V?$_Tset_traits@_KU?$less@_K@std@@V?$allocator@_K@2@$0A@@std@@@std@@QEAA_KAEB_K@Z 00000001800183b0 f i leveldb:db_impl.obj
 0001:000174d0       ??1?$_Tree@V?$_Tset_traits@_KU?$less@_K@std@@V?$allocator@_K@2@$0A@@std@@@std@@QEAA@XZ 00000001800184d0 f i leveldb:db_impl.obj
 0001:00017510       ??1?$deque@PEAUWriter@DBImpl@leveldb@@V?$allocator@PEAUWriter@DBImpl@leveldb@@@std@@@std@@QEAA@XZ 0000000180018510 f i leveldb:db_impl.obj
 0001:000175f0       ??1?$vector@V?$basic_string@DU?$char_traits@D@std@@V?$allocator@D@2@@std@@V?$allocator@V?$basic_string@DU?$char_traits@D@std@@V?$allocator@D@2@@std@@@2@@std@@QEAA@XZ 00000001800185f0 f i leveldb:db_impl.obj
 0001:00017670       ??4?$basic_string@DU?$char_traits@D@std@@V?$allocator@D@2@@std@@QEAAAEAV01@$$QEAV01@@Z 0000000180018670 f i leveldb:db_impl.obj
 0001:000176d0       ??1?$_Tree_comp_alloc@V?$_Tset_traits@_KU?$less@_K@std@@V?$allocator@_K@2@$0A@@std@@@std@@QEAA@XZ 00000001800186d0 f i leveldb:db_impl.obj
 0001:000176f0       ?erase@?$_Tree@V?$_Tset_traits@_KU?$less@_K@std@@V?$allocator@_K@2@$0A@@std@@@std@@QEAA?AV?$_Tree_const_iterator@V?$_Tree_val@U?$_Tree_simple_types@_K@std@@@std@@@2@V32@0@Z 00000001800186f0 f i leveldb:db_impl.obj
 0001:00017870       ??1?$_Deque_alloc@U?$_Deque_base_types@PEAUWriter@DBImpl@leveldb@@V?$allocator@PEAUWriter@DBImpl@leveldb@@@std@@@std@@@std@@QEAA@XZ 0000000180018870 f i leveldb:db_impl.obj
 0001:000178a0       ?_Growmap@?$deque@PEAUWriter@DBImpl@leveldb@@V?$allocator@PEAUWriter@DBImpl@leveldb@@@std@@@std@@IEAAX_K@Z 00000001800188a0 f i leveldb:db_impl.obj
 0001:00017a80       ?_Xlen@?$deque@PEAUWriter@DBImpl@leveldb@@V?$allocator@PEAUWriter@DBImpl@leveldb@@@std@@@std@@IEBAXXZ 0000000180018a80 f i leveldb:db_impl.obj
 0001:00017aa0       ?clear@?$_Tree@V?$_Tset_traits@U?$pair@H_K@std@@U?$less@U?$pair@H_K@std@@@2@V?$allocator@U?$pair@H_K@std@@@2@$0A@@std@@@std@@QEAAXXZ 0000000180018aa0 f i leveldb:db_impl.obj
 0001:00017b30       ?_Erase@?$_Tree@V?$_Tset_traits@PEAUFileMetaData@leveldb@@UBySmallestKey@Builder@VersionSet@2@V?$allocator@PEAUFileMetaData@leveldb@@@std@@$0A@@std@@@std@@IEAAXPEAU?$_Tree_node@PEAUFileMetaData@leveldb@@PEAX@2@@Z 0000000180018b30 f i leveldb:version_set.obj
 0001:00017b30       ?_Erase@?$_Tree@V?$_Tset_traits@_KU?$less@_K@std@@V?$allocator@_K@2@$0A@@std@@@std@@IEAAXPEAU?$_Tree_node@_KPEAX@2@@Z 0000000180018b30 f i leveldb:db_impl.obj
 0001:00017b90       ??$?HDU?$char_traits@D@std@@V?$allocator@D@1@@std@@YA?AV?$basic_string@DU?$char_traits@D@std@@V?$allocator@D@2@@0@AEBV10@QEBD@Z 0000000180018b90 f i leveldb:db_impl.obj
 0001:00017c40       ??$?HDU?$char_traits@D@std@@V?$allocator@D@1@@std@@YA?AV?$basic_string@DU?$char_traits@D@std@@V?$allocator@D@2@@0@$$QEAV10@AEBV10@@Z 0000000180018c40 f i leveldb:db_impl.obj
 0001:00017cc0       ??$insert@$0A@$0A@@?$_Tree@V?$_Tset_traits@_KU?$less@_K@std@@V?$allocator@_K@2@$0A@@std@@@std@@QEAA?AU?$pair@V?$_Tree_const_iterator@V?$_Tree_val@U?$_Tree_simple_types@_K@std@@@std@@@std@@_N@1@AEB_K@Z 0000000180018cc0 f i leveldb:db_impl.obj
 0001:00017df0       ??$_Emplace_reallocate@AEB_K@?$vector@_KV?$allocator@_K@std@@@std@@QEAAPEA_KQEA_KAEB_K@Z 0000000180018df0 f i leveldb:db_impl.obj
 0001:00017df0       ??$_Emplace_reallocate@AEBQEAUFileMetaData@leveldb@@@?$vector@PEAUFileMetaData@leveldb@@V?$allocator@PEAUFileMetaData@leveldb@@@std@@@std@@QEAAPEAPEAUFileMetaData@leveldb@@QEAPEAU23@AEBQEAU23@@Z 0000000180018df0 f i leveldb:version_set.obj
 0001:00017df0       ??$_Emplace_reallocate@_K@?$vector@_KV?$allocator@_K@std@@@std@@QEAAPEA_KQEA_K$$QEA_K@Z 0000000180018df0 f i leveldb:filter_block.obj
 0001:00017f50       ??$_Emplace_reallocate@AEBUOutput@CompactionState@DBImpl@leveldb@@@?$vector@UOutput@CompactionState@DBImpl@leveldb@@V?$allocator@UOutput@CompactionState@DBImpl@leveldb@@@std@@@std@@QEAAPEAUOutput@CompactionState@DBImpl@leveldb@@QEAU2345@AEBU2345@@Z 0000000180018f50 f i leveldb:db_impl.obj
 0001:000181a0       ??$_Emplace_reallocate@PEAVIterator@leveldb@@@?$vector@PEAVIterator@leveldb@@V?$allocator@PEAVIterator@leveldb@@@std@@@std@@QEAAPEAPEAVIterator@leveldb@@QEAPEAV23@$$QEAPEAV23@@Z 00000001800191a0 f i leveldb:db_impl.obj
 0001:000181a0       ??$_Emplace_reallocate@AEBQEAD@?$vector@PEADV?$allocator@PEAD@std@@@std@@QEAAPEAPEADQEAPEADAEBQEAD@Z 00000001800191a0 f i leveldb:arena.obj
 0001:00018340       ??$construct@U?$pair@HUFileMetaData@leveldb@@@std@@U12@@?$_Default_allocator_traits@V?$allocator@U?$pair@HUFileMetaData@leveldb@@@std@@@std@@@std@@SAXAEAV?$allocator@U?$pair@HUFileMetaData@leveldb@@@std@@@1@QEAU?$pair@HUFileMetaData@leveldb@@@1@$$QEAU31@@Z 0000000180019340 f i leveldb:db_impl.obj
 0001:000183f0       ??$_Emplace_reallocate@U?$pair@HUFileMetaData@leveldb@@@std@@@?$vector@U?$pair@HUFileMetaData@leveldb@@@std@@V?$allocator@U?$pair@HUFileMetaData@leveldb@@@std@@@2@@std@@QEAAPEAU?$pair@HUFileMetaData@leveldb@@@1@QEAU21@$$QEAU21@@Z 00000001800193f0 f i leveldb:db_impl.obj
 0001:00018630       ??$_Destroy_range@V?$allocator@U?$pair@HVInternalKey@leveldb@@@std@@@std@@@std@@YAXPEAU?$pair@HVInternalKey@leveldb@@@0@0AEAV?$allocator@U?$pair@HVInternalKey@leveldb@@@std@@@0@@Z 0000000180019630 f i leveldb:db_impl.obj
 0001:000186d0       ??$_Destroy_range@V?$allocator@V?$basic_string@DU?$char_traits@D@std@@V?$allocator@D@2@@std@@@std@@@std@@YAXPEAV?$basic_string@DU?$char_traits@D@std@@V?$allocator@D@2@@0@0AEAV?$allocator@V?$basic_string@DU?$char_traits@D@std@@V?$allocator@D@2@@std@@@0@@Z 00000001800196d0 f i leveldb:db_impl.obj
 0001:00018760       ?_Change_array@?$vector@PEAUFileMetaData@leveldb@@V?$allocator@PEAUFileMetaData@leveldb@@@std@@@std@@AEAAXQEAPEAUFileMetaData@leveldb@@_K1@Z 0000000180019760 f i leveldb:version_set.obj
 0001:00018760       ?_Change_array@?$vector@_KV?$allocator@_K@std@@@std@@AEAAXQEA_K_K1@Z 0000000180019760 f i leveldb:db_impl.obj
 0001:000187f0       ?reserve@?$basic_string@DU?$char_traits@D@std@@V?$allocator@D@2@@std@@QEAAX_K@Z 00000001800197f0 f i leveldb:db_impl.obj
 0001:000189b0       ??$_Eqrange@_K@?$_Tree@V?$_Tset_traits@_KU?$less@_K@std@@V?$allocator@_K@2@$0A@@std@@@std@@IEBA?AU?$pair@V?$_Tree_const_iterator@V?$_Tree_val@U?$_Tree_simple_types@_K@std@@@std@@@std@@V12@@1@AEB_K@Z 00000001800199b0 f i leveldb:db_impl.obj
 0001:00018a40       ??$_Insert_nohint@U?$pair@H_K@std@@U_Not_a_node_tag@2@@?$_Tree@V?$_Tset_traits@U?$pair@H_K@std@@U?$less@U?$pair@H_K@std@@@2@V?$allocator@U?$pair@H_K@std@@@2@$0A@@std@@@std@@IEAA?AU?$pair@V?$_Tree_const_iterator@V?$_Tree_val@U?$_Tree_simple_types@U?$pair@H_K@std@@@std@@@std@@@std@@_N@1@_N$$QEAU?$pair@H_K@1@U_Not_a_node_tag@1@@Z 0000000180019a40 f i leveldb:db_impl.obj
 0001:00018b80       ??$_Uninitialized_move@PEAUOutput@CompactionState@DBImpl@leveldb@@PEAU1234@V?$allocator@UOutput@CompactionState@DBImpl@leveldb@@@std@@@std@@YAPEAUOutput@CompactionState@DBImpl@leveldb@@QEAU1234@0PEAU1234@AEAV?$allocator@UOutput@CompactionState@DBImpl@leveldb@@@0@@Z 0000000180019b80 f i leveldb:db_impl.obj
 0001:00018c50       ??$_Uninitialized_move@PEAU?$pair@HUFileMetaData@leveldb@@@std@@PEAU12@V?$allocator@U?$pair@HUFileMetaData@leveldb@@@std@@@2@@std@@YAPEAU?$pair@HUFileMetaData@leveldb@@@0@QEAU10@0PEAU10@AEAV?$allocator@U?$pair@HUFileMetaData@leveldb@@@std@@@0@@Z 0000000180019c50 f i leveldb:db_impl.obj
 0001:00018d40       ??$_Insert_at@U?$pair@H_K@std@@U_Not_a_node_tag@2@@?$_Tree@V?$_Tset_traits@U?$pair@H_K@std@@U?$less@U?$pair@H_K@std@@@2@V?$allocator@U?$pair@H_K@std@@@2@$0A@@std@@@std@@IEAA?AV?$_Tree_const_iterator@V?$_Tree_val@U?$_Tree_simple_types@U?$pair@H_K@std@@@std@@@std@@@1@_NPEAU?$_Tree_node@U?$pair@H_K@std@@PEAX@1@$$QEAU?$pair@H_K@1@U_Not_a_node_tag@1@@Z 0000000180019d40 f i leveldb:db_impl.obj
 0001:00019020       ??$_Sort_unchecked@PEA_KU?$less@X@std@@@std@@YAXPEA_K0_JU?$less@X@0@@Z 000000018001a020 f i leveldb:db_impl.obj
 0001:00019320       ??$_Insert_at@AEB_KU_Not_a_node_tag@std@@@?$_Tree@V?$_Tset_traits@_KU?$less@_K@std@@V?$allocator@_K@2@$0A@@std@@@std@@IEAA?AV?$_Tree_const_iterator@V?$_Tree_val@U?$_Tree_simple_types@_K@std@@@std@@@1@_NPEAU?$_Tree_node@_KPEAX@1@AEB_KU_Not_a_node_tag@1@@Z 000000018001a320 f i leveldb:db_impl.obj
 0001:00019600       ??$_Copy_nodes@U_Copy_tag@?$_Tree@V?$_Tset_traits@_KU?$less@_K@std@@V?$allocator@_K@2@$0A@@std@@@std@@@?$_Tree@V?$_Tset_traits@_KU?$less@_K@std@@V?$allocator@_K@2@$0A@@std@@@std@@IEAAPEAU?$_Tree_node@_KPEAX@1@PEAU21@0U_Copy_tag@01@@Z 000000018001a600 f i leveldb:db_impl.obj
 0001:000196d0       ??1?$_Uninitialized_backout_al@PEAU?$pair@HUFileMetaData@leveldb@@@std@@V?$allocator@U?$pair@HUFileMetaData@leveldb@@@std@@@2@@std@@QEAA@XZ 000000018001a6d0 f i leveldb:db_impl.obj
 0001:00019720       ??1?$_Uninitialized_backout_al@PEAUOutput@CompactionState@DBImpl@leveldb@@V?$allocator@UOutput@CompactionState@DBImpl@leveldb@@@std@@@std@@QEAA@XZ 000000018001a720 f i leveldb:db_impl.obj
 0001:00019760       ??$_Partition_by_median_guess_unchecked@PEA_KU?$less@X@std@@@std@@YA?AU?$pair@PEA_KPEA_K@0@PEA_K0U?$less@X@0@@Z 000000018001a760 f i leveldb:db_impl.obj
 0001:000198f0       ??$_Guess_median_unchecked@PEA_KU?$less@X@std@@@std@@YAXPEA_K00U?$less@X@0@@Z 000000018001a8f0 f i leveldb:db_impl.obj
 0001:00019a50       ??_ECache@leveldb@@UEAAPEAXI@Z 000000018001aa50 f i * CIL library *:* CIL module *
 0001:00019a50       ??_GCache@leveldb@@UEAAPEAXI@Z 000000018001aa50 f i leveldb:cache.obj
 0001:00019a80       ??1Cache@leveldb@@UEAA@XZ  000000018001aa80 f   leveldb:cache.obj
 0001:0001a6f0       ?NewLRUCache@leveldb@@YAPEAVCache@1@_K@Z 000000018001b6f0 f   leveldb:cache.obj
 0001:0001a800       ??0Options@leveldb@@QEAA@XZ 000000018001b800 f   leveldb:options.obj
 0001:0001d390       ?RepairDB@leveldb@@YA?AVStatus@1@AEBV?$basic_string@DU?$char_traits@D@std@@V?$allocator@D@2@@std@@AEBUOptions@1@@Z 000000018001e390 f   leveldb:repair.obj
 0001:0001d950       ??$_Emplace_reallocate@AEBV?$basic_string@DU?$char_traits@D@std@@V?$allocator@D@2@@std@@@?$vector@V?$basic_string@DU?$char_traits@D@std@@V?$allocator@D@2@@std@@V?$allocator@V?$basic_string@DU?$char_traits@D@std@@V?$allocator@D@2@@std@@@2@@std@@QEAAPEAV?$basic_string@DU?$char_traits@D@std@@V?$allocator@D@2@@1@QEAV21@AEBV21@@Z 000000018001e950 f i leveldb:repair.obj
 0001:0001dc00       ??$_Uninitialized_move@PEAV?$basic_string@DU?$char_traits@D@std@@V?$allocator@D@2@@std@@PEAV12@V?$allocator@V?$basic_string@DU?$char_traits@D@std@@V?$allocator@D@2@@std@@@2@@std@@YAPEAV?$basic_string@DU?$char_traits@D@std@@V?$allocator@D@2@@0@QEAV10@0PEAV10@AEAV?$allocator@V?$basic_string@DU?$char_traits@D@std@@V?$allocator@D@2@@std@@@0@@Z 000000018001ec00 f i leveldb:repair.obj
 0001:0001dc80       ??1?$_Uninitialized_backout_al@PEAV?$basic_string@DU?$char_traits@D@std@@V?$allocator@D@2@@std@@V?$allocator@V?$basic_string@DU?$char_traits@D@std@@V?$allocator@D@2@@std@@@2@@std@@QEAA@XZ 000000018001ec80 f i leveldb:repair.obj
 0001:0001dce0       ?PutFixed64@leveldb@@YAXPEAV?$basic_string@DU?$char_traits@D@std@@V?$allocator@D@2@@std@@_K@Z 000000018001ece0 f   leveldb:coding.obj
 0001:0001dd80       ?EncodeVarint32@leveldb@@YAPEADPEADI@Z 000000018001ed80 f   leveldb:coding.obj
 0001:0001de00       ?PutVarint32@leveldb@@YAXPEAV?$basic_string@DU?$char_traits@D@std@@V?$allocator@D@2@@std@@I@Z 000000018001ee00 f   leveldb:coding.obj
 0001:0001df30       ?PutVarint64@leveldb@@YAXPEAV?$basic_string@DU?$char_traits@D@std@@V?$allocator@D@2@@std@@_K@Z 000000018001ef30 f   leveldb:coding.obj
 0001:0001e080       ??0MemTable@leveldb@@QEAA@AEBVInternalKeyComparator@1@@Z 000000018001f080 f   leveldb:memtable.obj
 0001:0001e220       ??1KeyComparator@MemTable@leveldb@@QEAA@XZ 000000018001f220 f i leveldb:memtable.obj
 0001:0001e250       ??1?$SkipList@PEBDUKeyComparator@MemTable@leveldb@@@leveldb@@QEAA@XZ 000000018001f250 f i leveldb:memtable.obj
 0001:0001e280       ??RKeyComparator@MemTable@leveldb@@QEBAHPEBD0@Z 000000018001f280 f   leveldb:memtable.obj
 0001:0001e340       ?Valid@MemTableIterator@leveldb@@UEBA_NXZ 000000018001f340 f i leveldb:memtable.obj
 0001:0001e350       ?Seek@MemTableIterator@leveldb@@UEAAXAEBVSlice@2@@Z 000000018001f350 f i leveldb:memtable.obj
 0001:0001e430       ?SeekToFirst@MemTableIterator@leveldb@@UEAAXXZ 000000018001f430 f i leveldb:memtable.obj
 0001:0001e450       ?SeekToLast@MemTableIterator@leveldb@@UEAAXXZ 000000018001f450 f i leveldb:memtable.obj
 0001:0001e4e0       ?Next@MemTableIterator@leveldb@@UEAAXXZ 000000018001f4e0 f i leveldb:memtable.obj
 0001:0001e530       ?Prev@MemTableIterator@leveldb@@UEAAXXZ 000000018001f530 f i leveldb:memtable.obj
 0001:0001e640       ?key@MemTableIterator@leveldb@@UEBA?AVSlice@2@XZ 000000018001f640 f i leveldb:memtable.obj
 0001:0001e690       ?value@MemTableIterator@leveldb@@UEBA?AVSlice@2@XZ 000000018001f690 f i leveldb:memtable.obj
 0001:0001e730       ?Flush@WinWritableFile@leveldb@@UEAA?AVStatus@2@XZ 000000018001f730 f i leveldb:env_win.obj
 0001:0001e730       ?status@MemTableIterator@leveldb@@UEBA?AVStatus@2@XZ 000000018001f730 f i leveldb:memtable.obj
 0001:0001e730       ?status@LevelFileNumIterator@Version@leveldb@@UEBA?AVStatus@3@XZ 000000018001f730 f i leveldb:version_set.obj
 0001:0001e770       ??_EMemTableIterator@leveldb@@UEAAPEAXI@Z 000000018001f770 f i * CIL library *:* CIL module *
 0001:0001e770       ??_GMemTableIterator@leveldb@@UEAAPEAXI@Z 000000018001f770 f i leveldb:memtable.obj
 0001:0001e810       ?NewIterator@MemTable@leveldb@@QEAAPEAVIterator@2@XZ 000000018001f810 f   leveldb:memtable.obj
 0001:0001e870       ?Add@MemTable@leveldb@@QEAAX_KW4ValueType@2@AEBVSlice@2@2@Z 000000018001f870 f   leveldb:memtable.obj
 0001:0001e9f0       ?Get@MemTable@leveldb@@QEAA_NAEBVLookupKey@2@PEAV?$basic_string@DU?$char_traits@D@std@@V?$allocator@D@2@@std@@PEAVStatus@2@@Z 000000018001f9f0 f   leveldb:memtable.obj
 0001:0001ec50       ?Insert@?$SkipList@PEBDUKeyComparator@MemTable@leveldb@@@leveldb@@QEAAXAEBQEBD@Z 000000018001fc50 f i leveldb:memtable.obj
 0001:0001ef10       ?Hash@leveldb@@YAIPEBD_KI@Z 000000018001ff10 f   leveldb:hash.obj
 0001:0001ef90       ??1Source@snappy@@UEAA@XZ  000000018001ff90 f   snappy:snappy-sinksource.obj
 0001:0001ef90       ??1FilterPolicy@leveldb@@UEAA@XZ 000000018001ff90 f   leveldb:filter_policy.obj
 0001:0001efa0       ?DebugString@ParsedInternalKey@leveldb@@QEBA?AV?$basic_string@DU?$char_traits@D@std@@V?$allocator@D@2@@std@@XZ 000000018001ffa0 f   leveldb:dbformat.obj
 0001:0001f190       ?DebugString@InternalKey@leveldb@@QEBA?AV?$basic_string@DU?$char_traits@D@std@@V?$allocator@D@2@@std@@XZ 0000000180020190 f   leveldb:dbformat.obj
 0001:0001f3a0       ?Name@InternalKeyComparator@leveldb@@UEBAPEBDXZ 00000001800203a0 f   leveldb:dbformat.obj
 0001:0001f3b0       ?Compare@InternalKeyComparator@leveldb@@UEBAHAEBVSlice@2@0@Z 00000001800203b0 f   leveldb:dbformat.obj
 0001:0001f4a0       ?FindShortestSeparator@InternalKeyComparator@leveldb@@UEBAXPEAV?$basic_string@DU?$char_traits@D@std@@V?$allocator@D@2@@std@@AEBVSlice@2@@Z 00000001800204a0 f   leveldb:dbformat.obj
 0001:0001f720       ?FindShortSuccessor@InternalKeyComparator@leveldb@@UEBAXPEAV?$basic_string@DU?$char_traits@D@std@@V?$allocator@D@2@@std@@@Z 0000000180020720 f   leveldb:dbformat.obj
 0001:0001f910       ?Name@InternalFilterPolicy@leveldb@@UEBAPEBDXZ 0000000180020910 f   leveldb:dbformat.obj
 0001:0001f920       ?CreateFilter@InternalFilterPolicy@leveldb@@UEBAXPEBVSlice@2@HPEAV?$basic_string@DU?$char_traits@D@std@@V?$allocator@D@2@@std@@@Z 0000000180020920 f   leveldb:dbformat.obj
 0001:0001f9d0       ?KeyMayMatch@InternalFilterPolicy@leveldb@@UEBA_NAEBVSlice@2@0@Z 00000001800209d0 f   leveldb:dbformat.obj
 0001:0001fa50       ?BuildTable@leveldb@@YA?AVStatus@1@AEBV?$basic_string@DU?$char_traits@D@std@@V?$allocator@D@2@@std@@PEAVEnv@1@AEBUOptions@1@PEAVTableCache@1@PEAVIterator@1@PEAUFileMetaData@1@@Z 0000000180020a50 f   leveldb:builder.obj
 0001:0001ffb0       ??1Mutex@port@leveldb@@QEAA@XZ 0000000180020fb0 f   leveldb:port_uv.obj
 0001:0001ffd0       ??1CondVar@port@leveldb@@QEAA@XZ 0000000180020fd0 f   leveldb:port_uv.obj
 0001:00020100       ?LogFileName@leveldb@@YA?AV?$basic_string@DU?$char_traits@D@std@@V?$allocator@D@2@@std@@AEBV23@_K@Z 0000000180021100 f   leveldb:filename.obj
 0001:00020180       ?TableFileName@leveldb@@YA?AV?$basic_string@DU?$char_traits@D@std@@V?$allocator@D@2@@std@@AEBV23@_K@Z 0000000180021180 f   leveldb:filename.obj
 0001:00020200       ?DescriptorFileName@leveldb@@YA?AV?$basic_string@DU?$char_traits@D@std@@V?$allocator@D@2@@std@@AEBV23@_K@Z 0000000180021200 f   leveldb:filename.obj
 0001:00020320       ?LockFileName@leveldb@@YA?AV?$basic_string@DU?$char_traits@D@std@@V?$allocator@D@2@@std@@AEBV23@@Z 0000000180021320 f   leveldb:filename.obj
 0001:000203c0       ?TempFileName@leveldb@@YA?AV?$basic_string@DU?$char_traits@D@std@@V?$allocator@D@2@@std@@AEBV23@_K@Z 00000001800213c0 f   leveldb:filename.obj
 0001:00020440       ?ParseFileName@leveldb@@YA_NAEBV?$basic_string@DU?$char_traits@D@std@@V?$allocator@D@2@@std@@PEA_KPEAW4FileType@1@@Z 0000000180021440 f   leveldb:filename.obj
 0001:000206e0       ?SetCurrentFile@leveldb@@YA?AVStatus@1@PEAVEnv@1@AEBV?$basic_string@DU?$char_traits@D@std@@V?$allocator@D@2@@std@@_K@Z 00000001800216e0 f   leveldb:filename.obj
 0001:00020ba0       ??$?HDU?$char_traits@D@std@@V?$allocator@D@1@@std@@YA?AV?$basic_string@DU?$char_traits@D@std@@V?$allocator@D@2@@0@$$QEAV10@QEBD@Z 0000000180021ba0 f i leveldb:filename.obj
 0001:00020c20       ??_EEnv@leveldb@@UEAAPEAXI@Z 0000000180021c20 f i * CIL library *:* CIL module *
 0001:00020c20       ??_GEnv@leveldb@@UEAAPEAXI@Z 0000000180021c20 f i leveldb:env.obj
 0001:00020c50       ??1Env@leveldb@@UEAA@XZ    0000000180021c50 f   leveldb:env.obj
 0001:00020c60       ?NewAppendableFile@Env@leveldb@@UEAA?AVStatus@2@AEBV?$basic_string@DU?$char_traits@D@std@@V?$allocator@D@2@@std@@PEAPEAVWritableFile@2@@Z 0000000180021c60 f   leveldb:env.obj
 0001:00020cf0       ??1RandomAccessFile@leveldb@@UEAA@XZ 0000000180021cf0 f   leveldb:env.obj
 0001:00020cf0       ??1Logger@leveldb@@UEAA@XZ 0000000180021cf0 f   leveldb:env.obj
 0001:00020cf0       ??1Reporter@Reader@log@leveldb@@UEAA@XZ 0000000180021cf0 f   leveldb:log_reader.obj
 0001:00020d00       ??1WritableFile@leveldb@@UEAA@XZ 0000000180021d00 f   leveldb:env.obj
 0001:00020d00       ??1Comparator@leveldb@@UEAA@XZ 0000000180021d00 f   leveldb:comparator.obj
 0001:00020d10       ?Log@leveldb@@YAXPEAVLogger@1@PEBDZZ 0000000180021d10 f   leveldb:env.obj
 0001:00020f70       ?ReadFileToString@leveldb@@YA?AVStatus@1@PEAVEnv@1@AEBV?$basic_string@DU?$char_traits@D@std@@V?$allocator@D@2@@std@@PEAV45@@Z 0000000180021f70 f   leveldb:env.obj
 0001:00021180       ??0IteratorWrapper@leveldb@@QEAA@XZ 0000000180022180 f i leveldb:merger.obj
 0001:000211a0       ??1IteratorWrapper@leveldb@@QEAA@XZ 00000001800221a0 f i leveldb:merger.obj
 0001:000211d0       ?status@IteratorWrapper@leveldb@@QEBA?AVStatus@2@XZ 00000001800221d0 f i leveldb:merger.obj
 0001:00021240       ?Next@IteratorWrapper@leveldb@@QEAAXXZ 0000000180022240 f i leveldb:merger.obj
 0001:000212a0       ?Seek@IteratorWrapper@leveldb@@QEAAXAEBVSlice@2@@Z 00000001800222a0 f i leveldb:merger.obj
 0001:00021310       ?SeekToFirst@IteratorWrapper@leveldb@@QEAAXXZ 0000000180022310 f i leveldb:merger.obj
 0001:00021370       ?SeekToLast@IteratorWrapper@leveldb@@QEAAXXZ 0000000180022370 f i leveldb:merger.obj
 0001:00021e40       ?NewMergingIterator@leveldb@@YAPEAVIterator@1@PEBVComparator@1@PEAPEAV21@H@Z 0000000180022e40 f   leveldb:merger.obj
 0001:00021fe0       fprintf                    0000000180022fe0 f i leveldb:version_set.obj
 0001:00022030       ?Compare@InternalKeyComparator@leveldb@@QEBAHAEBVInternalKey@2@0@Z 0000000180023030 f i leveldb:version_set.obj
 0001:000220e0       ?SetCompactPointer@VersionEdit@leveldb@@QEAAXHAEBVInternalKey@2@@Z 00000001800230e0 f i leveldb:version_set.obj
 0001:000221c0       ??0Version@leveldb@@AEAA@PEAVVersionSet@1@@Z 00000001800231c0 f i leveldb:version_set.obj
 0001:000222d0       ??1Version@leveldb@@AEAA@XZ 00000001800232d0 f   leveldb:version_set.obj
 0001:000223f0       ?FindFile@leveldb@@YAHAEBVInternalKeyComparator@1@AEBV?$vector@PEAUFileMetaData@leveldb@@V?$allocator@PEAUFileMetaData@leveldb@@@std@@@std@@AEBVSlice@1@@Z 00000001800233f0 f   leveldb:version_set.obj
 0001:000225f0       ?SomeFileOverlapsRange@leveldb@@YA_NAEBVInternalKeyComparator@1@_NAEBV?$vector@PEAUFileMetaData@leveldb@@V?$allocator@PEAUFileMetaData@leveldb@@@std@@@std@@PEBVSlice@1@3@Z 00000001800235f0 f   leveldb:version_set.obj
 0001:00022850       ?Valid@LevelFileNumIterator@Version@leveldb@@UEBA_NXZ 0000000180023850 f i leveldb:version_set.obj
 0001:00022870       ?Seek@LevelFileNumIterator@Version@leveldb@@UEAAXAEBVSlice@3@@Z 0000000180023870 f i leveldb:version_set.obj
 0001:000228a0       ?SeekToFirst@LevelFileNumIterator@Version@leveldb@@UEAAXXZ 00000001800238a0 f i leveldb:version_set.obj
 0001:000228b0       ?SeekToLast@LevelFileNumIterator@Version@leveldb@@UEAAXXZ 00000001800238b0 f i leveldb:version_set.obj
 0001:000228e0       ?Next@LevelFileNumIterator@Version@leveldb@@UEAAXXZ 00000001800238e0 f i leveldb:version_set.obj
 0001:00022920       ?Prev@LevelFileNumIterator@Version@leveldb@@UEAAXXZ 0000000180023920 f i leveldb:version_set.obj
 0001:00022980       ?key@LevelFileNumIterator@Version@leveldb@@UEBA?AVSlice@3@XZ 0000000180023980 f i leveldb:version_set.obj
 0001:00022a10       ?value@LevelFileNumIterator@Version@leveldb@@UEBA?AVSlice@3@XZ 0000000180023a10 f i leveldb:version_set.obj
 0001:00022a90       ??_GLevelFileNumIterator@Version@leveldb@@UEAAPEAXI@Z 0000000180023a90 f i leveldb:version_set.obj
 0001:00022a90       ??_ELevelFileNumIterator@Version@leveldb@@UEAAPEAXI@Z 0000000180023a90 f i * CIL library *:* CIL module *
 0001:00022c60       ?ForEachOverlapping@Version@leveldb@@AEAAXVSlice@2@0PEAXP6A_N1HPEAUFileMetaData@2@@Z@Z 0000000180023c60 f   leveldb:version_set.obj
 0001:00022fa0       ?Get@Version@leveldb@@QEAA?AVStatus@2@AEBUReadOptions@2@AEBVLookupKey@2@PEAV?$basic_string@DU?$char_traits@D@std@@V?$allocator@D@2@@std@@PEAUGetStats@12@@Z 0000000180023fa0 f   leveldb:version_set.obj
 0001:000238a0       ?Unref@Version@leveldb@@QEAAXXZ 00000001800248a0 f   leveldb:version_set.obj
 0001:00023920       ?PickLevelForMemTableOutput@Version@leveldb@@QEAAHAEBVSlice@2@0@Z 0000000180024920 f   leveldb:version_set.obj
 0001:00023f10       ?GetOverlappingInputs@Version@leveldb@@QEAAXHPEBVInternalKey@2@0PEAV?$vector@PEAUFileMetaData@leveldb@@V?$allocator@PEAUFileMetaData@leveldb@@@std@@@std@@@Z 0000000180024f10 f   leveldb:version_set.obj
 0001:000241f0       ?DebugString@Version@leveldb@@QEBA?AV?$basic_string@DU?$char_traits@D@std@@V?$allocator@D@2@@std@@XZ 00000001800251f0 f   leveldb:version_set.obj
 0001:00024500       ??0Builder@VersionSet@leveldb@@QEAA@PEAV12@PEAVVersion@2@@Z 0000000180025500 f i leveldb:version_set.obj
 0001:000245d0       ??1Builder@VersionSet@leveldb@@QEAA@XZ 00000001800255d0 f i leveldb:version_set.obj
 0001:000248a0       ?Apply@Builder@VersionSet@leveldb@@QEAAXPEAVVersionEdit@3@@Z 00000001800258a0 f i leveldb:version_set.obj
 0001:00024c40       ?SaveTo@Builder@VersionSet@leveldb@@QEAAXPEAVVersion@3@@Z 0000000180025c40 f i leveldb:version_set.obj
 0001:00025010       ?MaybeAddFile@Builder@VersionSet@leveldb@@QEAAXPEAVVersion@3@HPEAUFileMetaData@3@@Z 0000000180026010 f i leveldb:version_set.obj
 0001:00025160       ??0LevelState@Builder@VersionSet@leveldb@@QEAA@XZ 0000000180026160 f i leveldb:version_set.obj
 0001:000251b0       ??1LevelState@Builder@VersionSet@leveldb@@QEAA@XZ 00000001800261b0 f i leveldb:version_set.obj
 0001:00025200       ?AppendVersion@VersionSet@leveldb@@AEAAXPEAVVersion@2@@Z 0000000180026200 f   leveldb:version_set.obj
 0001:000252a0       ?LogAndApply@VersionSet@leveldb@@QEAA?AVStatus@2@PEAVVersionEdit@2@PEAVMutex@port@2@@Z 00000001800262a0 f   leveldb:version_set.obj
 0001:00025820       ?Recover@VersionSet@leveldb@@QEAA?AVStatus@2@PEA_N@Z 0000000180026820 f   leveldb:version_set.obj
 0001:000266f0       ?ReuseManifest@VersionSet@leveldb@@AEAA_NAEBV?$basic_string@DU?$char_traits@D@std@@V?$allocator@D@2@@std@@0@Z 00000001800276f0 f   leveldb:version_set.obj
 0001:00026940       ?Finalize@VersionSet@leveldb@@AEAAXPEAVVersion@2@@Z 0000000180027940 f   leveldb:version_set.obj
 0001:00026b00       ?WriteSnapshot@VersionSet@leveldb@@AEAA?AVStatus@2@PEAVWriter@log@2@@Z 0000000180027b00 f   leveldb:version_set.obj
 0001:00026ea0       ?NumLevelFiles@VersionSet@leveldb@@QEBAHH@Z 0000000180027ea0 f   leveldb:version_set.obj
 0001:00026f20       ?LevelSummary@VersionSet@leveldb@@QEBAPEBDPEAULevelSummaryStorage@12@@Z 0000000180027f20 f   leveldb:version_set.obj
 0001:00026fe0       ?ApproximateOffsetOf@VersionSet@leveldb@@QEAA_KPEAVVersion@2@AEBVInternalKey@2@@Z 0000000180027fe0 f   leveldb:version_set.obj
 0001:00027300       ?AddLiveFiles@VersionSet@leveldb@@QEAAXPEAV?$set@_KU?$less@_K@std@@V?$allocator@_K@2@@std@@@Z 0000000180028300 f   leveldb:version_set.obj
 0001:000273d0       ?GetRange@VersionSet@leveldb@@AEAAXAEBV?$vector@PEAUFileMetaData@leveldb@@V?$allocator@PEAUFileMetaData@leveldb@@@std@@@std@@PEAVInternalKey@2@1@Z 00000001800283d0 f   leveldb:version_set.obj
 0001:00027550       ?GetRange2@VersionSet@leveldb@@AEAAXAEBV?$vector@PEAUFileMetaData@leveldb@@V?$allocator@PEAUFileMetaData@leveldb@@@std@@@std@@0PEAVInternalKey@2@1@Z 0000000180028550 f   leveldb:version_set.obj
 0001:00027670       ?MakeInputIterator@VersionSet@leveldb@@QEAAPEAVIterator@2@PEAVCompaction@2@@Z 0000000180028670 f   leveldb:version_set.obj
 0001:000279b0       ?PickCompaction@VersionSet@leveldb@@QEAAPEAVCompaction@2@XZ 00000001800289b0 f   leveldb:version_set.obj
 0001:00027fc0       ?SetupOtherInputs@VersionSet@leveldb@@AEAAXPEAVCompaction@2@@Z 0000000180028fc0 f   leveldb:version_set.obj
 0001:00029140       ?CompactRange@VersionSet@leveldb@@QEAAPEAVCompaction@2@HPEBVInternalKey@2@0@Z 000000018002a140 f   leveldb:version_set.obj
 0001:00029290       ??0Compaction@leveldb@@AEAA@PEBUOptions@1@H@Z 000000018002a290 f   leveldb:version_set.obj
 0001:00029360       ??1?$_Tree@V?$_Tset_traits@PEAUFileMetaData@leveldb@@UBySmallestKey@Builder@VersionSet@2@V?$allocator@PEAUFileMetaData@leveldb@@@std@@$0A@@std@@@std@@QEAA@XZ 000000018002a360 f i leveldb:version_set.obj
 0001:00029410       ?reserve@?$vector@PEAUFileMetaData@leveldb@@V?$allocator@PEAUFileMetaData@leveldb@@@std@@@std@@QEAAX_K@Z 000000018002a410 f i leveldb:version_set.obj
 0001:00029500       ??4?$vector@PEAUFileMetaData@leveldb@@V?$allocator@PEAUFileMetaData@leveldb@@@std@@@std@@QEAAAEAV01@AEBV01@@Z 000000018002a500 f i leveldb:version_set.obj
 0001:00029660       ??0?$vector@PEAUFileMetaData@leveldb@@V?$allocator@PEAUFileMetaData@leveldb@@@std@@@std@@QEAA@XZ 000000018002a660 f i leveldb:version_set.obj
 0001:00029680       ?push_back@?$vector@U?$pair@HVInternalKey@leveldb@@@std@@V?$allocator@U?$pair@HVInternalKey@leveldb@@@std@@@2@@std@@QEAAX$$QEAU?$pair@HVInternalKey@leveldb@@@2@@Z 000000018002a680 f i leveldb:version_set.obj
 0001:000296f0       ??1?$_Tree_comp_alloc@V?$_Tset_traits@PEAUFileMetaData@leveldb@@UBySmallestKey@Builder@VersionSet@2@V?$allocator@PEAUFileMetaData@leveldb@@@std@@$0A@@std@@@std@@QEAA@XZ 000000018002a6f0 f i leveldb:version_set.obj
 0001:00029710       ?_Buy@?$vector@PEAUFileMetaData@leveldb@@V?$allocator@PEAUFileMetaData@leveldb@@@std@@@std@@AEAA_N_K@Z 000000018002a710 f i leveldb:version_set.obj
 0001:000297c0       ??$_Resize@V<lambda_9c2e681044e6d49512e65148943e3898>@@@?$vector@PEAUFileMetaData@leveldb@@V?$allocator@PEAUFileMetaData@leveldb@@@std@@@std@@AEAAX_KV<lambda_9c2e681044e6d49512e65148943e3898>@@@Z 000000018002a7c0 f i leveldb:version_set.obj
 0001:00029930       ??$_Emplace_reallocate@U?$pair@HVInternalKey@leveldb@@@std@@@?$vector@U?$pair@HVInternalKey@leveldb@@@std@@V?$allocator@U?$pair@HVInternalKey@leveldb@@@std@@@2@@std@@QEAAPEAU?$pair@HVInternalKey@leveldb@@@1@QEAU21@$$QEAU21@@Z 000000018002a930 f i leveldb:version_set.obj
 0001:00029b80       ??$_Sort_unchecked@PEAPEAUFileMetaData@leveldb@@P6A_NPEAU12@0@Z@std@@YAXPEAPEAUFileMetaData@leveldb@@0_JP6A_NPEAU12@2@Z@Z 000000018002ab80 f i leveldb:version_set.obj
 0001:00029e60       ??$_Insert_nohint@AEBQEAUFileMetaData@leveldb@@U_Not_a_node_tag@std@@@?$_Tree@V?$_Tset_traits@PEAUFileMetaData@leveldb@@UBySmallestKey@Builder@VersionSet@2@V?$allocator@PEAUFileMetaData@leveldb@@@std@@$0A@@std@@@std@@IEAA?AU?$pair@V?$_Tree_const_iterator@V?$_Tree_val@U?$_Tree_simple_types@PEAUFileMetaData@leveldb@@@std@@@std@@@std@@_N@1@_NAEBQEAUFileMetaData@leveldb@@U_Not_a_node_tag@1@@Z 000000018002ae60 f i leveldb:version_set.obj
 0001:00029ff0       ??$_Insert_range@PEBQEAUFileMetaData@leveldb@@@?$vector@PEAUFileMetaData@leveldb@@V?$allocator@PEAUFileMetaData@leveldb@@@std@@@std@@AEAAXV?$_Vector_const_iterator@V?$_Vector_val@U?$_Simple_types@PEAUFileMetaData@leveldb@@@std@@@std@@@1@PEBQEAUFileMetaData@leveldb@@1Uforward_iterator_tag@1@@Z 000000018002aff0 f i leveldb:version_set.obj
 0001:0002a210       ??$_Uninitialized_move@PEAU?$pair@HVInternalKey@leveldb@@@std@@PEAU12@V?$allocator@U?$pair@HVInternalKey@leveldb@@@std@@@2@@std@@YAPEAU?$pair@HVInternalKey@leveldb@@@0@QEAU10@0PEAU10@AEAV?$allocator@U?$pair@HVInternalKey@leveldb@@@std@@@0@@Z 000000018002b210 f i leveldb:version_set.obj
 0001:0002a2b0       ??$_Partition_by_median_guess_unchecked@PEAPEAUFileMetaData@leveldb@@P6A_NPEAU12@0@Z@std@@YA?AU?$pair@PEAPEAUFileMetaData@leveldb@@PEAPEAU12@@0@PEAPEAUFileMetaData@leveldb@@0P6A_NPEAU23@1@Z@Z 000000018002b2b0 f i leveldb:version_set.obj
 0001:0002a4a0       ??$_Insert_at@AEBQEAUFileMetaData@leveldb@@U_Not_a_node_tag@std@@@?$_Tree@V?$_Tset_traits@PEAUFileMetaData@leveldb@@UBySmallestKey@Builder@VersionSet@2@V?$allocator@PEAUFileMetaData@leveldb@@@std@@$0A@@std@@@std@@IEAA?AV?$_Tree_const_iterator@V?$_Tree_val@U?$_Tree_simple_types@PEAUFileMetaData@leveldb@@@std@@@std@@@1@_NPEAU?$_Tree_node@PEAUFileMetaData@leveldb@@PEAX@1@AEBQEAUFileMetaData@leveldb@@U_Not_a_node_tag@1@@Z 000000018002b4a0 f i leveldb:version_set.obj
 0001:0002a790       ??1?$_Uninitialized_backout_al@PEAU?$pair@HVInternalKey@leveldb@@@std@@V?$allocator@U?$pair@HVInternalKey@leveldb@@@std@@@2@@std@@QEAA@XZ 000000018002b790 f i leveldb:version_set.obj
 0001:0002a7a0       ??$_Guess_median_unchecked@PEAPEAUFileMetaData@leveldb@@P6A_NPEAU12@0@Z@std@@YAXPEAPEAUFileMetaData@leveldb@@00P6A_NPEAU12@1@Z@Z 000000018002b7a0 f i leveldb:version_set.obj
 0001:0002a9a0       ??$_Pop_heap_hole_by_index@PEAPEAUFileMetaData@leveldb@@PEAU12@P6A_NPEAU12@0@Z@std@@YAXPEAPEAUFileMetaData@leveldb@@_J1$$QEAPEAU12@P6A_NPEAU12@3@Z@Z 000000018002b9a0 f i leveldb:version_set.obj
 0001:0002ab80       ?FindTable@TableCache@leveldb@@AEAA?AVStatus@2@_K0PEAPEAUHandle@Cache@2@@Z 000000018002bb80 f   leveldb:table_cache.obj
 0001:0002aea0       ?NewIterator@TableCache@leveldb@@QEAAPEAVIterator@2@AEBUReadOptions@2@_K1PEAPEAVTable@2@@Z 000000018002bea0 f   leveldb:table_cache.obj
 0001:0002afe0       ?Clear@VersionEdit@leveldb@@QEAAXXZ 000000018002bfe0 f   leveldb:version_edit.obj
 0001:0002b090       ?EncodeTo@VersionEdit@leveldb@@QEBAXPEAV?$basic_string@DU?$char_traits@D@std@@V?$allocator@D@2@@std@@@Z 000000018002c090 f   leveldb:version_edit.obj
 0001:0002b8a0       ?DecodeFrom@VersionEdit@leveldb@@QEAA?AVStatus@2@AEBVSlice@2@@Z 000000018002c8a0 f   leveldb:version_edit.obj
 0001:0002c490       ??1Reader@log@leveldb@@QEAA@XZ 000000018002d490 f   leveldb:log_reader.obj
 0001:0002c4a0       ?ReadRecord@Reader@log@leveldb@@QEAA_NPEAVSlice@3@PEAV?$basic_string@DU?$char_traits@D@std@@V?$allocator@D@2@@std@@@Z 000000018002d4a0 f   leveldb:log_reader.obj
 0001:0002cae0       ?ReadPhysicalRecord@Reader@log@leveldb@@AEAAIPEAVSlice@3@@Z 000000018002dae0 f   leveldb:log_reader.obj
 0001:0002ce10       ??0Writer@log@leveldb@@QEAA@PEAVWritableFile@2@@Z 000000018002de10 f   leveldb:log_writer.obj
 0001:0002ce70       ??0Writer@log@leveldb@@QEAA@PEAVWritableFile@2@_K@Z 000000018002de70 f   leveldb:log_writer.obj
 0001:0002cee0       ?AddRecord@Writer@log@leveldb@@QEAA?AVStatus@3@AEBVSlice@3@@Z 000000018002dee0 f   leveldb:log_writer.obj
 0001:0002d1f0       ??_GIterator@leveldb@@UEAAPEAXI@Z 000000018002e1f0 f i leveldb:iterator.obj
 0001:0002d1f0       ??_EIterator@leveldb@@UEAAPEAXI@Z 000000018002e1f0 f i * CIL library *:* CIL module *
 0001:0002d230       ??1Iterator@leveldb@@UEAA@XZ 000000018002e230 f   leveldb:iterator.obj
 0001:0002d410       ?NewEmptyIterator@leveldb@@YAPEAVIterator@1@XZ 000000018002e410 f   leveldb:iterator.obj
 0001:0002d4b0       ?NewErrorIterator@leveldb@@YAPEAVIterator@1@AEBVStatus@1@@Z 000000018002e4b0 f   leveldb:iterator.obj
 0001:0002e3f0       ?ok@TableBuilder@leveldb@@AEBA_NXZ 000000018002f3f0 f i leveldb:table_builder.obj
 0001:0002e450       ??1BlockBuilder@leveldb@@QEAA@XZ 000000018002f450 f i leveldb:table_builder.obj
 0001:0002e570       ??0TableBuilder@leveldb@@QEAA@AEBUOptions@1@PEAVWritableFile@1@@Z 000000018002f570 f   leveldb:table_builder.obj
 0001:0002e750       ??1TableBuilder@leveldb@@QEAA@XZ 000000018002f750 f   leveldb:table_builder.obj
 0001:0002e8e0       ??1FilterBlockBuilder@leveldb@@QEAA@XZ 000000018002f8e0 f i leveldb:table_builder.obj
 0001:0002eab0       ?Add@TableBuilder@leveldb@@QEAAXAEBVSlice@2@0@Z 000000018002fab0 f   leveldb:table_builder.obj
 0001:0002ede0       ?Flush@TableBuilder@leveldb@@QEAAXXZ 000000018002fde0 f   leveldb:table_builder.obj
 0001:0002ef10       ?WriteBlock@TableBuilder@leveldb@@AEAAXPEAVBlockBuilder@2@PEAVBlockHandle@2@@Z 000000018002ff10 f   leveldb:table_builder.obj
 0001:0002f280       ?WriteRawBlock@TableBuilder@leveldb@@AEAAXAEBVSlice@2@W4CompressionType@2@PEAVBlockHandle@2@@Z 0000000180030280 f   leveldb:table_builder.obj
 0001:0002f3f0       ?Finish@TableBuilder@leveldb@@QEAA?AVStatus@2@XZ 00000001800303f0 f   leveldb:table_builder.obj
 0001:0002fb80       ??1?$vector@VSlice@leveldb@@V?$allocator@VSlice@leveldb@@@std@@@std@@QEAA@XZ 0000000180030b80 f i leveldb:table_builder.obj
 0001:0002fbf0       ??1?$vector@IV?$allocator@I@std@@@std@@QEAA@XZ 0000000180030bf0 f i leveldb:table_builder.obj
 0001:0002fc60       ?EscapeString@leveldb@@YA?AV?$basic_string@DU?$char_traits@D@std@@V?$allocator@D@2@@std@@AEBVSlice@1@@Z 0000000180030c60 f   leveldb:logging.obj
 0001:0002fd70       ?ConsumeDecimalNumber@leveldb@@YA_NPEAVSlice@1@PEA_K@Z 0000000180030d70 f   leveldb:logging.obj
 0001:000300f0       ??_EWinLogger@leveldb@@UEAAPEAXI@Z 00000001800310f0 f i * CIL library *:* CIL module *
 0001:000300f0       ??_GWinLogger@leveldb@@UEAAPEAXI@Z 00000001800310f0 f i leveldb:env_win.obj
 0001:00030330       ?Read@WinSequentialFile@leveldb@@UEAA?AVStatus@2@_KPEAVSlice@2@PEAD@Z 0000000180031330 f i leveldb:env_win.obj
 0001:000303f0       ?Skip@WinSequentialFile@leveldb@@UEAA?AVStatus@2@_K@Z 00000001800313f0 f i leveldb:env_win.obj
 0001:00030470       ??_EWinSequentialFile@leveldb@@UEAAPEAXI@Z 0000000180031470 f i * CIL library *:* CIL module *
 0001:00030470       ??_GWinSequentialFile@leveldb@@UEAAPEAXI@Z 0000000180031470 f i leveldb:env_win.obj
 0001:00030520       ?Read@WinRandomAccessFile@leveldb@@UEBA?AVStatus@2@_K0PEAVSlice@2@PEAD@Z 0000000180031520 f i leveldb:env_win.obj
 0001:00030660       ??_GWinRandomAccessFile@leveldb@@UEAAPEAXI@Z 0000000180031660 f i leveldb:env_win.obj
 0001:00030660       ??_EWinRandomAccessFile@leveldb@@UEAAPEAXI@Z 0000000180031660 f i * CIL library *:* CIL module *
 0001:00030710       ?Append@WinWritableFile@leveldb@@UEAA?AVStatus@2@AEBVSlice@2@@Z 0000000180031710 f i leveldb:env_win.obj
 0001:000308c0       ?Close@WinWritableFile@leveldb@@UEAA?AVStatus@2@XZ 00000001800318c0 f i leveldb:env_win.obj
 0001:00030990       ?Sync@WinWritableFile@leveldb@@UEAA?AVStatus@2@XZ 0000000180031990 f i leveldb:env_win.obj
 0001:00030a00       ??_GWinWritableFile@leveldb@@UEAAPEAXI@Z 0000000180031a00 f i leveldb:env_win.obj
 0001:00030a00       ??_EWinWritableFile@leveldb@@UEAAPEAXI@Z 0000000180031a00 f i * CIL library *:* CIL module *
 0001:00033210       ??$?HDU?$char_traits@D@std@@V?$allocator@D@1@@std@@YA?AV?$basic_string@DU?$char_traits@D@std@@V?$allocator@D@2@@0@QEBDAEBV10@@Z 0000000180034210 f i leveldb:env_win.obj
 0001:000332c0       ??$_Emplace_reallocate@V?$basic_string@DU?$char_traits@D@std@@V?$allocator@D@2@@std@@@?$vector@V?$basic_string@DU?$char_traits@D@std@@V?$allocator@D@2@@std@@V?$allocator@V?$basic_string@DU?$char_traits@D@std@@V?$allocator@D@2@@std@@@2@@std@@QEAAPEAV?$basic_string@DU?$char_traits@D@std@@V?$allocator@D@2@@1@QEAV21@$$QEAV21@@Z 00000001800342c0 f i leveldb:env_win.obj
 0001:00033490       ??1Arena@leveldb@@QEAA@XZ  0000000180034490 f   leveldb:arena.obj
 0001:00033550       ?AllocateFallback@Arena@leveldb@@AEAAPEAD_K@Z 0000000180034550 f   leveldb:arena.obj
 0001:00033640       ??_GBlock@leveldb@@QEAAPEAXI@Z 0000000180034640 f i leveldb:table.obj
 0001:00033670       ?Open@Table@leveldb@@SA?AVStatus@2@AEBUOptions@2@PEAVRandomAccessFile@2@_KPEAPEAV12@@Z 0000000180034670 f   leveldb:table.obj
 0001:00033a30       ?ReadMeta@Table@leveldb@@AEAAXAEBVFooter@2@@Z 0000000180034a30 f   leveldb:table.obj
 0001:00033e50       ?BlockReader@Table@leveldb@@CAPEAVIterator@2@PEAXAEBUReadOptions@2@AEBVSlice@2@@Z 0000000180034e50 f   leveldb:table.obj
 0001:00034190       ?InternalGet@Table@leveldb@@AEAA?AVStatus@2@AEBUReadOptions@2@AEBVSlice@2@PEAXP6AX211@Z@Z 0000000180035190 f   leveldb:table.obj
 0001:000343e0       ??0IteratorWrapper@leveldb@@QEAA@PEAVIterator@1@@Z 00000001800353e0 f i leveldb:two_level_iterator.obj
 0001:00034da0       ?NewTwoLevelIterator@leveldb@@YAPEAVIterator@1@PEAV21@P6APEAV21@PEAXAEBUReadOptions@1@AEBVSlice@1@@Z12@Z 0000000180035da0 f   leveldb:two_level_iterator.obj
 0001:00034e90       ?Extend@crc32c@leveldb@@YAIIPEBD_K@Z 0000000180035e90 f   leveldb:crc32c.obj
 0001:00035180       ?DecodeFrom@BlockHandle@leveldb@@QEAA?AVStatus@2@PEAVSlice@2@@Z 0000000180036180 f   leveldb:format.obj
 0001:000352f0       ?EncodeTo@Footer@leveldb@@QEBAXPEAV?$basic_string@DU?$char_traits@D@std@@V?$allocator@D@2@@std@@@Z 00000001800362f0 f   leveldb:format.obj
 0001:000354d0       ?DecodeFrom@Footer@leveldb@@QEAA?AVStatus@2@PEAVSlice@2@@Z 00000001800364d0 f   leveldb:format.obj
 0001:00035680       ?ReadBlock@leveldb@@YA?AVStatus@1@PEAVRandomAccessFile@1@AEBUReadOptions@1@AEBVBlockHandle@1@PEAUBlockContents@1@@Z 0000000180036680 f   leveldb:format.obj
 0001:00035b30       ??0BlockBuilder@leveldb@@QEAA@PEBUOptions@1@@Z 0000000180036b30 f   leveldb:block_builder.obj
 0001:00035be0       ?Add@BlockBuilder@leveldb@@QEAAXAEBVSlice@2@0@Z 0000000180036be0 f   leveldb:block_builder.obj
 0001:00035e10       ??$_Emplace_reallocate@I@?$vector@IV?$allocator@I@std@@@std@@QEAAPEAIQEAI$$QEAI@Z 0000000180036e10 f i leveldb:block_builder.obj
 0001:00035fb0       ?StartBlock@FilterBlockBuilder@leveldb@@QEAAX_K@Z 0000000180036fb0 f   leveldb:filter_block.obj
 0001:00036030       ?GenerateFilter@FilterBlockBuilder@leveldb@@AEAAXXZ 0000000180037030 f   leveldb:filter_block.obj
 0001:000361b0       ??$_Resize@V<lambda_85fee89a0047aa4cf7bf4f4eab065fc4>@@@?$vector@VSlice@leveldb@@V?$allocator@VSlice@leveldb@@@std@@@std@@AEAAX_KV<lambda_85fee89a0047aa4cf7bf4f4eab065fc4>@@@Z 00000001800371b0 f i leveldb:filter_block.obj
 0001:000363b0       _snprintf_s                00000001800373b0 f i leveldb:win_logger.obj
 0001:00036420       ?Logv@WinLogger@leveldb@@UEAAXPEBDPEAD@Z 0000000180037420 f   leveldb:win_logger.obj
 0001:00036600       ??0Block@leveldb@@QEAA@AEBUBlockContents@1@@Z 0000000180037600 f   leveldb:block.obj
 0001:000367f0       ?SeekToRestartPoint@Iter@Block@leveldb@@AEAAXI@Z 00000001800377f0 f i leveldb:block.obj
 0001:00036870       ?Valid@Iter@Block@leveldb@@UEBA_NXZ 0000000180037870 f i leveldb:block.obj
 0001:00036880       ?status@Iter@Block@leveldb@@UEBA?AVStatus@3@XZ 0000000180037880 f i leveldb:block.obj
 0001:000368c0       ?key@Iter@Block@leveldb@@UEBA?AVSlice@3@XZ 00000001800378c0 f i leveldb:block.obj
 0001:00036920       ?value@Iter@Block@leveldb@@UEBA?AVSlice@3@XZ 0000000180037920 f i leveldb:block.obj
 0001:00036970       ?Next@Iter@Block@leveldb@@UEAAXXZ 0000000180037970 f i leveldb:block.obj
 0001:000369b0       ?Prev@Iter@Block@leveldb@@UEAAXXZ 00000001800379b0 f i leveldb:block.obj
 0001:00036a80       ?Seek@Iter@Block@leveldb@@UEAAXAEBVSlice@3@@Z 0000000180037a80 f i leveldb:block.obj
 0001:00036ce0       ?SeekToFirst@Iter@Block@leveldb@@UEAAXXZ 0000000180037ce0 f i leveldb:block.obj
 0001:00036d00       ?SeekToLast@Iter@Block@leveldb@@UEAAXXZ 0000000180037d00 f i leveldb:block.obj
 0001:00036d40       ?CorruptionError@Iter@Block@leveldb@@AEAAXXZ 0000000180037d40 f i leveldb:block.obj
 0001:00036e50       ?ParseNextKey@Iter@Block@leveldb@@AEAA_NXZ 0000000180037e50 f i leveldb:block.obj
 0001:00036f90       ??_GIter@Block@leveldb@@UEAAPEAXI@Z 0000000180037f90 f i leveldb:block.obj
 0001:00036f90       ??_EIter@Block@leveldb@@UEAAPEAXI@Z 0000000180037f90 f i * CIL library *:* CIL module *
 0001:00037040       ?NewIterator@Block@leveldb@@QEAAPEAVIterator@2@PEBVComparator@2@@Z 0000000180038040 f   leveldb:block.obj
 0001:00037190       ??1WorkingMemory@internal@snappy@@QEAA@XZ 0000000180038190 f i snappy:snappy.obj
 0001:000371a0       ??_ESink@snappy@@UEAAPEAXI@Z 00000001800381a0 f i * CIL library *:* CIL module *
 0001:000371a0       ??_GSink@snappy@@UEAAPEAXI@Z 00000001800381a0 f i snappy:snappy.obj
 0001:000371d0       ??_EByteArraySource@snappy@@UEAAPEAXI@Z 00000001800381d0 f i * CIL library *:* CIL module *
 0001:000371d0       ??_GByteArraySource@snappy@@UEAAPEAXI@Z 00000001800381d0 f i snappy:snappy.obj
 0001:00037220       ??_EUncheckedByteArraySink@snappy@@UEAAPEAXI@Z 0000000180038220 f i * CIL library *:* CIL module *
 0001:00037220       ??_GUncheckedByteArraySink@snappy@@UEAAPEAXI@Z 0000000180038220 f i snappy:snappy.obj
 0001:000375d0       ?CompressFragment@internal@snappy@@YAPEADPEBD_KPEADPEAGH@Z 00000001800385d0 f   snappy:snappy.obj
 0001:00037b90       ??1SnappyDecompressor@snappy@@QEAA@XZ 0000000180038b90 f i snappy:snappy.obj
 0001:00037bb0       ?RefillTag@SnappyDecompressor@snappy@@AEAA_NXZ 0000000180038bb0 f   snappy:snappy.obj
 0001:00037d80       ?Compress@snappy@@YA_KPEAVSource@1@PEAVSink@1@@Z 0000000180038d80 f   snappy:snappy.obj
 0001:00038100       ?RawUncompress@snappy@@YA_NPEBD_KPEAD@Z 0000000180039100 f   snappy:snappy.obj
 0001:00038260       ??$DecompressAllTags@VSnappyArrayWriter@snappy@@@SnappyDecompressor@snappy@@QEAAXPEAVSnappyArrayWriter@1@@Z 0000000180039260 f i snappy:snappy.obj
 0001:000384f0       ??1Sink@snappy@@UEAA@XZ    00000001800394f0 f   snappy:snappy-sinksource.obj
 0001:00038500       ?GetAppendBuffer@Sink@snappy@@UEAAPEAD_KPEAD@Z 0000000180039500 f   snappy:snappy-sinksource.obj
 0001:00038510       ?GetAppendBufferVariable@Sink@snappy@@UEAAPEAD_K0PEAD0PEA_K@Z 0000000180039510 f   snappy:snappy-sinksource.obj
 0001:00038530       ?AppendAndTakeOwnership@Sink@snappy@@UEAAXPEAD_KP6AXPEAXPEBD1@Z2@Z 0000000180039530 f   snappy:snappy-sinksource.obj
 0001:00038570       ??1ByteArraySource@snappy@@UEAA@XZ 0000000180039570 f   snappy:snappy-sinksource.obj
 0001:000385a0       ?Available@ByteArraySource@snappy@@UEBA_KXZ 00000001800395a0 f   snappy:snappy-sinksource.obj
 0001:000385b0       ?Peek@ByteArraySource@snappy@@UEAAPEBDPEA_K@Z 00000001800395b0 f   snappy:snappy-sinksource.obj
 0001:000385c0       ?Skip@ByteArraySource@snappy@@UEAAX_K@Z 00000001800395c0 f   snappy:snappy-sinksource.obj
 0001:000385d0       ??1UncheckedByteArraySink@snappy@@UEAA@XZ 00000001800395d0 f   snappy:snappy-sinksource.obj
 0001:00038600       ?Append@UncheckedByteArraySink@snappy@@UEAAXPEBD_K@Z 0000000180039600 f   snappy:snappy-sinksource.obj
 0001:00038650       ?GetAppendBuffer@UncheckedByteArraySink@snappy@@UEAAPEAD_KPEAD@Z 0000000180039650 f   snappy:snappy-sinksource.obj
 0001:00038660       ?AppendAndTakeOwnership@UncheckedByteArraySink@snappy@@UEAAXPEAD_KP6AXPEAXPEBD1@Z2@Z 0000000180039660 f   snappy:snappy-sinksource.obj
 0001:000386d0       ?GetAppendBufferVariable@UncheckedByteArraySink@snappy@@UEAAPEAD_K0PEAD0PEA_K@Z 00000001800396d0 f   snappy:snappy-sinksource.obj
 0001:000386dd       __imp_load_uv_queue_work   00000001800396dd f   node:node.exe
 0001:000386e9       __tailMerge_node_exe       00000001800396e9     node:node.exe
 0001:00038762       __imp_load_?Global@Context@v8@@QEAA?AV?$Local@VObject@v8@@@2@XZ 0000000180039762 f   node:node.exe
 0001:0003876e       __imp_load_?Value@External@v8@@QEBAPEAXXZ 000000018003976e f   node:node.exe
 0001:0003877a       __imp_load_?New@External@v8@@SA?AV?$Local@VExternal@v8@@@2@PEAVIsolate@2@PEAX@Z 000000018003977a f   node:node.exe
 0001:00038786       __imp_load_?New@Signature@v8@@SA?AV?$Local@VSignature@v8@@@2@PEAVIsolate@2@V?$Local@VFunctionTemplate@v8@@@2@@Z 0000000180039786 f   node:node.exe
 0001:00038792       __imp_load_?ThrowException@Isolate@v8@@QEAA?AV?$Local@VValue@v8@@@2@V32@@Z 0000000180039792 f   node:node.exe
 0001:0003879e       __imp_load_?GetCurrentContext@Isolate@v8@@QEAA?AV?$Local@VContext@v8@@@2@XZ 000000018003979e f   node:node.exe
 0001:000387aa       __imp_load_?GetCurrent@Isolate@v8@@SAPEAV12@XZ 00000001800397aa f   node:node.exe
 0001:000387b6       __imp_load_?CreateHandle@HandleScope@v8@@KAPEAPEAVObject@internal@2@PEAVIsolate@42@PEAV342@@Z 00000001800397b6 f   node:node.exe
 0001:000387c2       __imp_load_?CreateHandle@HandleScope@v8@@CAPEAPEAVObject@internal@2@PEAVNeverReadOnlySpaceObject@42@PEAV342@@Z 00000001800397c2 f   node:node.exe
 0001:000387ce       __imp_load_??1HandleScope@v8@@QEAA@XZ 00000001800397ce f   node:node.exe
 0001:000387da       __imp_load_??0HandleScope@v8@@QEAA@PEAVIsolate@1@@Z 00000001800397da f   node:node.exe
 0001:000387e6       __imp_load_?Set@Template@v8@@QEAAXV?$Local@VName@v8@@@2@V?$Local@VData@v8@@@2@W4PropertyAttribute@2@@Z 00000001800397e6 f   node:node.exe
 0001:000387f2       __imp_load_?Error@Exception@v8@@SA?AV?$Local@VValue@v8@@@2@V?$Local@VString@v8@@@2@@Z 00000001800397f2 f   node:node.exe
 0001:000387fe       __imp_load_?SetClassName@FunctionTemplate@v8@@QEAAXV?$Local@VString@v8@@@2@@Z 00000001800397fe f   node:node.exe
 0001:0003880a       __imp_load_?PrototypeTemplate@FunctionTemplate@v8@@QEAA?AV?$Local@VObjectTemplate@v8@@@2@XZ 000000018003980a f   node:node.exe
 0001:00038816       __imp_load_?InstanceTemplate@FunctionTemplate@v8@@QEAA?AV?$Local@VObjectTemplate@v8@@@2@XZ 0000000180039816 f   node:node.exe
 0001:00038822       __imp_load_?GetFunction@FunctionTemplate@v8@@QEAA?AV?$Local@VFunction@v8@@@2@XZ 0000000180039822 f   node:node.exe
 0001:0003882e       __imp_load_?New@FunctionTemplate@v8@@SA?AV?$Local@VFunctionTemplate@v8@@@2@PEAVIsolate@2@P6AXAEBV?$FunctionCallbackInfo@VValue@v8@@@2@@ZV?$Local@VValue@v8@@@2@V?$Local@VSignature@v8@@@2@HW4ConstructorBehavior@2@W4SideEffectType@2@@Z 000000018003982e f   node:node.exe
 0001:0003883a       __imp_load_?ToLocalEmpty@V8@v8@@CAXXZ 000000018003983a f   node:node.exe
 0001:00038846       __imp_load_?ClearWeak@V8@v8@@CAPEAXPEAPEAVObject@internal@2@@Z 0000000180039846 f   node:node.exe
 0001:00038852       __imp_load_?MakeWeak@V8@v8@@CAXPEAPEAVObject@internal@2@PEAXP6AXAEBV?$WeakCallbackInfo@X@2@@ZW4WeakCallbackType@2@@Z 0000000180039852 f   node:node.exe
 0001:0003885e       __imp_load_?DisposeGlobal@V8@v8@@CAXPEAPEAVObject@internal@2@@Z 000000018003985e f   node:node.exe
 0001:0003886a       __imp_load_?GlobalizeReference@V8@v8@@CAPEAPEAVObject@internal@2@PEAVIsolate@42@PEAPEAV342@@Z 000000018003986a f   node:node.exe
 0001:00038876       __imp_load_?BooleanValue@Value@v8@@QEBA_NXZ 0000000180039876 f   node:node.exe
 0001:00038882       __imp_load_?IsObject@Value@v8@@QEBA_NXZ 0000000180039882 f   node:node.exe
 0001:0003888e       __imp_load_?Escape@EscapableHandleScope@v8@@AEAAPEAPEAVObject@internal@2@PEAPEAV342@@Z 000000018003988e f   node:node.exe
 0001:0003889a       __imp_load_??0EscapableHandleScope@v8@@QEAA@PEAVIsolate@1@@Z 000000018003989a f   node:node.exe
 0001:000388a6       __imp_load_?NewFromUtf8@String@v8@@SA?AV?$MaybeLocal@VString@v8@@@2@PEAVIsolate@2@PEBDW4NewStringType@2@H@Z 00000001800398a6 f   node:node.exe
 0001:000388b2       __imp_load_?WriteUtf8@String@v8@@QEBAHPEADHPEAHH@Z 00000001800398b2 f   node:node.exe
 0001:000388be       __imp_load_?Utf8Length@String@v8@@QEBAHXZ 00000001800398be f   node:node.exe
 0001:000388ca       __imp_load_?SlowGetAlignedPointerFromInternalField@Object@v8@@AEAAPEAXH@Z 00000001800398ca f   node:node.exe
 0001:000388d6       __imp_load_?SlowGetInternalField@Object@v8@@AEAA?AV?$Local@VValue@v8@@@2@H@Z 00000001800398d6 f   node:node.exe
 0001:000388e2       __imp_load_?New@Object@v8@@SA?AV?$Local@VObject@v8@@@2@PEAVIsolate@2@@Z 00000001800398e2 f   node:node.exe
 0001:000388ee       __imp_load_?SetAlignedPointerInInternalField@Object@v8@@QEAAXHPEAX@Z 00000001800398ee f   node:node.exe
 0001:000388fa       __imp_load_?SetInternalField@Object@v8@@QEAAXHV?$Local@VValue@v8@@@2@@Z 00000001800398fa f   node:node.exe
 0001:00038906       __imp_load_?InternalFieldCount@Object@v8@@QEAAHXZ 0000000180039906 f   node:node.exe
 0001:00038912       __imp_load_?Has@Object@v8@@QEAA_NV?$Local@VValue@v8@@@2@@Z 0000000180039912 f   node:node.exe
 0001:0003891e       __imp_load_?Get@Object@v8@@QEAA?AV?$Local@VValue@v8@@@2@V32@@Z 000000018003991e f   node:node.exe
 0001:0003892a       __imp_load_?Set@Object@v8@@QEAA_NV?$Local@VValue@v8@@@2@0@Z 000000018003992a f   node:node.exe
 0001:00038936       __imp_load_?NewInstance@Function@v8@@QEBA?AV?$MaybeLocal@VObject@v8@@@2@V?$Local@VContext@v8@@@2@HQEAV?$Local@VValue@v8@@@2@@Z 0000000180039936 f   node:node.exe
 0001:00038942       __imp_load_?SetInternalFieldCount@ObjectTemplate@v8@@QEAAXH@Z 0000000180039942 f   node:node.exe
 0001:0003894e       __imp_load_?NewInstance@ObjectTemplate@v8@@QEAA?AV?$MaybeLocal@VObject@v8@@@2@V?$Local@VContext@v8@@@2@@Z 000000018003994e f   node:node.exe
 0001:0003895a       __imp_load_?New@ObjectTemplate@v8@@SA?AV?$Local@VObjectTemplate@v8@@@2@PEAVIsolate@2@V?$Local@VFunctionTemplate@v8@@@2@@Z 000000018003995a f   node:node.exe
 0001:00038966       __imp_load_?EmitAsyncDestroy@node@@YAXPEAVIsolate@v8@@Uasync_context@1@@Z 0000000180039966 f   node:node.exe
 0001:00038972       __imp_load_?HasInstance@Buffer@node@@YA_NV?$Local@VValue@v8@@@v8@@@Z 0000000180039972 f   node:node.exe
 0001:0003897e       __imp_load_?HasInstance@Buffer@node@@YA_NV?$Local@VObject@v8@@@v8@@@Z 000000018003997e f   node:node.exe
 0001:0003898a       __imp_load_?Data@Buffer@node@@YAPEADV?$Local@VObject@v8@@@v8@@@Z 000000018003998a f   node:node.exe
 0001:00038996       __imp_load_?Length@Buffer@node@@YA_KV?$Local@VObject@v8@@@v8@@@Z 0000000180039996 f   node:node.exe
 0001:000389a2       __imp_load_?MakeCallback@node@@YA?AV?$MaybeLocal@VValue@v8@@@v8@@PEAVIsolate@3@V?$Local@VObject@v8@@@3@V?$Local@VFunction@v8@@@3@HPEAV?$Local@VValue@v8@@@3@Uasync_context@1@@Z 00000001800399a2 f   node:node.exe
 0001:000389ae       __imp_load_?EmitAsyncInit@node@@YA?AUasync_context@1@PEAVIsolate@v8@@V?$Local@VObject@v8@@@4@V?$Local@VString@v8@@@4@N@Z 00000001800399ae f   node:node.exe
 0001:000389ba       __imp_load_uv_default_loop 00000001800399ba f   node:node.exe
 0001:000389c6       __imp_load_?ToObject@Value@v8@@QEBA?AV?$Local@VObject@v8@@@2@XZ 00000001800399c6 f   node:node.exe
 0001:000389d2       __imp_load_?ToString@Value@v8@@QEBA?AV?$Local@VString@v8@@@2@XZ 00000001800399d2 f   node:node.exe
 0001:000389de       __imp_load_??1EscapableHandleScope@v8@@QEAA@XZ 00000001800399de f   node:node.exe
 0001:000389ea       __imp_load_?Length@Array@v8@@QEBAIXZ 00000001800399ea f   node:node.exe
 0001:000389f6       __imp_load_?StrictEquals@Value@v8@@QEBA_NV?$Local@VValue@v8@@@2@@Z 00000001800399f6 f   node:node.exe
 0001:00038a02       __imp_load_?Uint32Value@Value@v8@@QEBAIXZ 0000000180039a02 f   node:node.exe
 0001:00038a0e       __imp_load_?IsNumber@Value@v8@@QEBA_NXZ 0000000180039a0e f   node:node.exe
 0001:00038a1a       __imp_load_?IsArray@Value@v8@@QEBA_NXZ 0000000180039a1a f   node:node.exe
 0001:00038a26       __imp_load_?IsFunction@Value@v8@@QEBA_NXZ 0000000180039a26 f   node:node.exe
 0001:00038a32       __imp_load_?HasCaught@TryCatch@v8@@QEBA_NXZ 0000000180039a32 f   node:node.exe
 0001:00038a3e       __imp_load_??1TryCatch@v8@@QEAA@XZ 0000000180039a3e f   node:node.exe
 0001:00038a4a       __imp_load_??0TryCatch@v8@@QEAA@PEAVIsolate@1@@Z 0000000180039a4a f   node:node.exe
 0001:00038a56       __imp_load_?Length@String@v8@@QEBAHXZ 0000000180039a56 f   node:node.exe
 0001:00038a62       __imp_load_?New@Number@v8@@SA?AV?$Local@VNumber@v8@@@2@PEAVIsolate@2@N@Z 0000000180039a62 f   node:node.exe
 0001:00038a6e       __imp_load_?Get@Object@v8@@QEAA?AV?$Local@VValue@v8@@@2@I@Z 0000000180039a6e f   node:node.exe
 0001:00038a7a       __imp_load_?Copy@Buffer@node@@YA?AV?$MaybeLocal@VObject@v8@@@v8@@PEAVIsolate@4@PEBD_K@Z 0000000180039a7a f   node:node.exe
 0001:00038a86       __imp_load_?Value@Integer@v8@@QEBA_JXZ 0000000180039a86 f   node:node.exe
 0001:00038a92       __imp_load_?Int32Value@Value@v8@@QEBAHXZ 0000000180039a92 f   node:node.exe
 0001:00038a9e       __imp_load_?New@Integer@v8@@SA?AV?$Local@VInteger@v8@@@2@PEAVIsolate@2@H@Z 0000000180039a9e f   node:node.exe
 0001:00038aaa       __imp_load_?New@Array@v8@@SA?AV?$Local@VArray@v8@@@2@PEAVIsolate@2@H@Z 0000000180039aaa f   node:node.exe
 0001:00038ab6       __imp_load_?ToInteger@Value@v8@@QEBA?AV?$MaybeLocal@VInteger@v8@@@2@V?$Local@VContext@v8@@@2@@Z 0000000180039ab6 f   node:node.exe
 0001:00038ac2       __imp_load_node_module_register 0000000180039ac2 f   node:node.exe
 0001:00038ad0       ??0bad_alloc@std@@QEAA@AEBV01@@Z 0000000180039ad0 f i libcpmt:xthrow.obj
 0001:00038b10       ??0bad_alloc@std@@QEAA@XZ  0000000180039b10 f i libcpmt:xthrow.obj
 0001:00038b30       ??0exception@std@@QEAA@AEBV01@@Z 0000000180039b30 f i libcpmt:xthrow.obj
 0001:00038b68       ??0length_error@std@@QEAA@AEBV01@@Z 0000000180039b68 f i libcpmt:xthrow.obj
 0001:00038ba8       ??0length_error@std@@QEAA@PEBD@Z 0000000180039ba8 f i libcpmt:xthrow.obj
 0001:00038bf4       ??0logic_error@std@@QEAA@AEBV01@@Z 0000000180039bf4 f i libcpmt:xthrow.obj
 0001:00038c34       ??1bad_exception@std@@UEAA@XZ 0000000180039c34 f i libvcruntime:frame.obj
 0001:00038c34       ??1bad_alloc@std@@UEAA@XZ  0000000180039c34 f i libcpmt:xthrow.obj
 0001:00038c34       ??1length_error@std@@UEAA@XZ 0000000180039c34 f i libcpmt:xthrow.obj
 0001:00038c34       ??1bad_array_new_length@std@@UEAA@XZ 0000000180039c34 f i LIBCMT:throw_bad_alloc.obj
 0001:00038c48       ??_Glength_error@std@@UEAAPEAXI@Z 0000000180039c48 f i libcpmt:xthrow.obj
 0001:00038c48       ??_Gexception@std@@UEAAPEAXI@Z 0000000180039c48 f i libcpmt:xthrow.obj
 0001:00038c48       ??_Ebad_alloc@std@@UEAAPEAXI@Z 0000000180039c48 f i libcpmt:xthrow.obj
 0001:00038c48       ??_Glogic_error@std@@UEAAPEAXI@Z 0000000180039c48 f i libcpmt:xthrow.obj
 0001:00038c48       ??_Elogic_error@std@@UEAAPEAXI@Z 0000000180039c48 f i libcpmt:xthrow.obj
 0001:00038c48       ??_Ebad_array_new_length@std@@UEAAPEAXI@Z 0000000180039c48 f i LIBCMT:throw_bad_alloc.obj
 0001:00038c48       ??_Ebad_exception@std@@UEAAPEAXI@Z 0000000180039c48 f i libvcruntime:frame.obj
 0001:00038c48       ??_Gbad_alloc@std@@UEAAPEAXI@Z 0000000180039c48 f i libcpmt:xthrow.obj
 0001:00038c48       ??_Gbad_exception@std@@UEAAPEAXI@Z 0000000180039c48 f i libvcruntime:frame.obj
 0001:00038c48       ??_Eexception@std@@UEAAPEAXI@Z 0000000180039c48 f i libcpmt:xthrow.obj
 0001:00038c48       ??_Elength_error@std@@UEAAPEAXI@Z 0000000180039c48 f i libcpmt:xthrow.obj
 0001:00038c48       ??_Gbad_array_new_length@std@@UEAAPEAXI@Z 0000000180039c48 f i LIBCMT:throw_bad_alloc.obj
 0001:00038c8c       ?_Xlength_error@std@@YAXPEBD@Z 0000000180039c8c f   libcpmt:xthrow.obj
 0001:00038cb0       ?what@exception@std@@UEBAPEBDXZ 0000000180039cb0 f i libcpmt:xthrow.obj
 0001:00038ce0       __security_check_cookie    0000000180039ce0 f   LIBCMT:amdsecgs.obj
 0001:00038d04       ??_V@YAXPEAX@Z             0000000180039d04 f   LIBCMT:delete_array.obj
 0001:00038d04       ??3@YAXPEAX_K@Z            0000000180039d04 f   LIBCMT:delete_scalar_size.obj
 0001:00038d0c       ??2@YAPEAX_K@Z             0000000180039d0c f   LIBCMT:new_scalar.obj
 0001:00038d48       __scrt_acquire_startup_lock 0000000180039d48 f   LIBCMT:utility.obj
 0001:00038d84       __scrt_dllmain_after_initialize_c 0000000180039d84 f   LIBCMT:utility.obj
 0001:00038db8       __scrt_dllmain_before_initialize_c 0000000180039db8 f   LIBCMT:utility.obj
 0001:00038dd0       __scrt_dllmain_crt_thread_attach 0000000180039dd0 f   LIBCMT:utility.obj
 0001:00038df8       __scrt_dllmain_crt_thread_detach 0000000180039df8 f   LIBCMT:utility.obj
 0001:00038e10       __scrt_dllmain_exception_filter 0000000180039e10 f   LIBCMT:utility.obj
 0001:00038e70       __scrt_dllmain_uninitialize_c 0000000180039e70 f   LIBCMT:utility.obj
 0001:00038ea0       __scrt_dllmain_uninitialize_critical 0000000180039ea0 f   LIBCMT:utility.obj
 0001:00038eb4       __scrt_initialize_crt      0000000180039eb4 f   LIBCMT:utility.obj
 0001:00038f00       __scrt_initialize_onexit_tables 0000000180039f00 f   LIBCMT:utility.obj
 0001:00038fd8       __scrt_is_nonwritable_in_current_image 0000000180039fd8 f   LIBCMT:utility.obj
 0001:00039074       __scrt_release_startup_lock 000000018003a074 f   LIBCMT:utility.obj
 0001:00039098       __scrt_uninitialize_crt    000000018003a098 f   LIBCMT:utility.obj
 0001:000390c4       _onexit                    000000018003a0c4 f   LIBCMT:utility.obj
 0001:00039114       atexit                     000000018003a114 f   LIBCMT:utility.obj
 0001:0003912c       ??_U@YAPEAX_K@Z            000000018003a12c f   LIBCMT:new_array.obj
 0001:00039464       _DllMainCRTStartup         000000018003a464 f   LIBCMT:dll_dllmain.obj
 0001:000394a4       ??_M@YAXPEAX_K1P6AX0@Z@Z   000000018003a4a4 f   LIBCMT:ehvecdtr.obj
 0001:00039510       ?__ArrayUnwind@@YAXPEAX_K1P6AX0@Z@Z 000000018003a510 f   LIBCMT:ehvecdtr.obj
 0001:00039574       ??_L@YAXPEAX_K1P6AX0@Z2@Z  000000018003a574 f   LIBCMT:ehvecctr.obj
 0001:000395e4       ??_V@YAXPEAX_K@Z           000000018003a5e4 f   LIBCMT:delete_array_size.obj
 0001:00039774       _Init_thread_abort         000000018003a774 f   LIBCMT:thread_safe_statics.obj
 0001:000397a4       _Init_thread_footer        000000018003a7a4 f   LIBCMT:thread_safe_statics.obj
 0001:00039804       _Init_thread_header        000000018003a804 f   LIBCMT:thread_safe_statics.obj
 0001:0003986c       _Init_thread_notify        000000018003a86c f   LIBCMT:thread_safe_statics.obj
 0001:000398bc       _Init_thread_wait          000000018003a8bc f   LIBCMT:thread_safe_statics.obj
 0001:00039934       ??_Gtype_info@@UEAAPEAXI@Z 000000018003a934 f i LIBCMT:std_type_info_static.obj
 0001:00039934       ??_Etype_info@@UEAAPEAXI@Z 000000018003a934 f i LIBCMT:std_type_info_static.obj
 0001:00039960       __raise_securityfailure    000000018003a960 f   LIBCMT:gs_report.obj
 0001:00039994       __report_gsfailure         000000018003a994 f   LIBCMT:gs_report.obj
 0001:00039a68       __report_rangecheckfailure 000000018003aa68 f   LIBCMT:gs_report.obj
 0001:00039a7c       __report_securityfailure   000000018003aa7c f   LIBCMT:gs_report.obj
 0001:00039bfc       ??3@YAXPEAX@Z              000000018003abfc f   LIBCMT:delete_scalar.obj
 0001:00039c04       ??0bad_array_new_length@std@@QEAA@AEBV01@@Z 000000018003ac04 f i LIBCMT:throw_bad_alloc.obj
 0001:00039c44       ??0bad_array_new_length@std@@QEAA@XZ 000000018003ac44 f i LIBCMT:throw_bad_alloc.obj
 0001:00039c64       ?__scrt_throw_std_bad_alloc@@YAXXZ 000000018003ac64 f   LIBCMT:throw_bad_alloc.obj
 0001:00039c84       ?__scrt_throw_std_bad_array_new_length@@YAXXZ 000000018003ac84 f   LIBCMT:throw_bad_alloc.obj
 0001:00039ca4       __isa_available_init       000000018003aca4 f   LIBCMT:cpu_disp.obj
 0001:00039e60       _get_startup_argv_mode     000000018003ae60 f   LIBCMT:argv_mode.obj
 0001:00039e60       DllMain                    000000018003ae60 f   LIBCMT:dll_dllmain_stub.obj
 0001:00039e68       __scrt_is_ucrt_dll_in_use  000000018003ae68 f   LIBCMT:ucrt_detection.obj
 0001:00039e74       __crt_debugger_hook        000000018003ae74 f   LIBCMT:utility_desktop.obj
 0001:00039e7c       __scrt_fastfail            000000018003ae7c f   LIBCMT:utility_desktop.obj
 0001:00039fc8       __security_init_cookie     000000018003afc8 f   LIBCMT:gs_support.obj
 0001:0003a074       ?__scrt_initialize_type_info@@YAXXZ 000000018003b074 f   LIBCMT:tncleanup.obj
 0001:0003a084       ?__scrt_uninitialize_type_info@@YAXXZ 000000018003b084 f   LIBCMT:tncleanup.obj
 0001:0003a090       __local_stdio_scanf_options 000000018003b090 f i LIBCMT:default_local_stdio_options.obj
 0001:0003a098       __scrt_initialize_default_local_stdio_options 000000018003b098 f   LIBCMT:default_local_stdio_options.obj
 0001:0003a0b4       __scrt_get_dyn_tls_init_callback 000000018003b0b4 f   LIBCMT:dyn_tls_init.obj
 0001:0003a0bc       _RTC_Initialize            000000018003b0bc f   LIBCMT:initsect.obj
 0001:0003a0f8       _RTC_Terminate             000000018003b0f8 f   LIBCMT:initsect.obj
 0001:0003a140       ??$_CallSETranslator@V__FrameHandler3@@@@YAHPEAUEHExceptionRecord@@PEA_KPEAU_CONTEXT@@PEAU_xDISPATCHER_CONTEXT@@PEBU_s_FuncInfo@@K1@Z 000000018003b140 f i libvcruntime:risctrnsctrl.obj
 0001:0003a194       ?CatchTryBlock@__FrameHandler3@@SAPEBU_s_TryBlockMapEntry@@PEBU_s_FuncInfo@@H@Z 000000018003b194 f   libvcruntime:risctrnsctrl.obj
 0001:0003a1ec       ?ExecutionInCatch@__FrameHandler3@@SA_NPEAU_xDISPATCHER_CONTEXT@@PEBU_s_FuncInfo@@@Z 000000018003b1ec f   libvcruntime:risctrnsctrl.obj
 0001:0003a218       ?FrameUnwindToEmptyState@__FrameHandler3@@SAXPEA_KPEAU_xDISPATCHER_CONTEXT@@PEBU_s_FuncInfo@@@Z 000000018003b218 f   libvcruntime:risctrnsctrl.obj
 0001:0003a27c       ?GetEstablisherFrame@__FrameHandler3@@SAPEA_KPEA_KPEAU_xDISPATCHER_CONTEXT@@PEBU_s_FuncInfo@@0@Z 000000018003b27c f   libvcruntime:risctrnsctrl.obj
 0001:0003a348       ?GetRangeOfTrysToCheck@__FrameHandler3@@SA?AU?$pair@Viterator@TryBlockMap@__FrameHandler3@@V123@@std@@AEAVTryBlockMap@1@HH@Z 000000018003b348 f   libvcruntime:risctrnsctrl.obj
 0001:0003a4a4       ?UnwindNestedFrames@__FrameHandler3@@SAXPEA_KPEAUEHExceptionRecord@@PEAU_CONTEXT@@0PEAXPEBU_s_FuncInfo@@HHPEBU_s_HandlerType@@PEAU_xDISPATCHER_CONTEXT@@E@Z 000000018003b4a4 f   libvcruntime:risctrnsctrl.obj
 0001:0003a5c8       _CreateFrameInfo           000000018003b5c8 f   libvcruntime:risctrnsctrl.obj
 0001:0003a604       _FindAndUnlinkFrame        000000018003b604 f   libvcruntime:risctrnsctrl.obj
 0001:0003a658       _GetImageBase              000000018003b658 f   libvcruntime:risctrnsctrl.obj
 0001:0003a66c       _GetThrowImageBase         000000018003b66c f   libvcruntime:risctrnsctrl.obj
 0001:0003a680       _SetImageBase              000000018003b680 f   libvcruntime:risctrnsctrl.obj
 0001:0003a698       _SetThrowImageBase         000000018003b698 f   libvcruntime:risctrnsctrl.obj
 0001:0003a6b0       __CxxFrameHandler3         000000018003b6b0 f   libvcruntime:risctrnsctrl.obj
 0001:0003a730       _purecall                  000000018003b730 f   libvcruntime:purevirt.obj
 0001:0003a760       strrchr                    000000018003b760 f   libvcruntime:strrchr.obj
 0001:0003a8ac       __std_exception_copy       000000018003b8ac f   libvcruntime:std_exception.obj
 0001:0003a93c       __std_exception_destroy    000000018003b93c f   libvcruntime:std_exception.obj
 0001:0003a964       _CxxThrowException         000000018003b964 f   libvcruntime:throw.obj
 0001:0003aa24       __vcrt_initialize          000000018003ba24 f   libvcruntime:initialization.obj
 0001:0003aa58       __vcrt_thread_attach       000000018003ba58 f   libvcruntime:initialization.obj
 0001:0003aa6c       __vcrt_thread_detach       000000018003ba6c f   libvcruntime:initialization.obj
 0001:0003aa80       __vcrt_uninitialize        000000018003ba80 f   libvcruntime:initialization.obj
 0001:0003aaa0       __vcrt_uninitialize_critical 000000018003baa0 f   libvcruntime:initialization.obj
 0001:0003aab0       __C_specific_handler       000000018003bab0 f   libvcruntime:riscchandler.obj
 0001:0003acbc       __DestructExceptionObject  000000018003bcbc f   libvcruntime:ehhelpers.obj
 0001:0003ad30       ?_CallMemberFunction0@@YAXQEAX0@Z 000000018003bd30 f i libvcruntime:ehhelpers.obj
 0001:0003ad34       _IsExceptionObjectToBeDestroyed 000000018003bd34 f   libvcruntime:ehhelpers.obj
 0001:0003ad64       __AdjustPointer            000000018003bd64 f   libvcruntime:ehhelpers.obj
 0001:0003ad88       __FrameUnwindFilter        000000018003bd88 f   libvcruntime:ehhelpers.obj
 0001:0003add4       __std_terminate            000000018003bdd4 f   libvcruntime:ehhelpers.obj
 0001:0003adf0       memset_repmovs             000000018003bdf0 f   libvcruntime:memset.obj
 0001:0003ae10       memset                     000000018003be10 f   libvcruntime:memset.obj
 0001:0003afa0       __std_type_info_compare    000000018003bfa0 f   libvcruntime:std_type_info.obj
 0001:0003afc8       __std_type_info_destroy_list 000000018003bfc8 f   libvcruntime:std_type_info.obj
 0001:0003aff4       __vcrt_freefls             000000018003bff4 f   libvcruntime:per_thread_data.obj
 0001:0003b014       __vcrt_freeptd             000000018003c014 f   libvcruntime:per_thread_data.obj
 0001:0003b064       __vcrt_getptd              000000018003c064 f   libvcruntime:per_thread_data.obj
 0001:0003b080       __vcrt_getptd_noexit       000000018003c080 f   libvcruntime:per_thread_data.obj
 0001:0003b14c       __vcrt_initialize_ptd      000000018003c14c f   libvcruntime:per_thread_data.obj
 0001:0003b1a0       __vcrt_uninitialize_ptd    000000018003c1a0 f   libvcruntime:per_thread_data.obj
 0001:0003b1c4       ?GetCurrentState@__FrameHandler3@@SAHPEA_KPEAU_xDISPATCHER_CONTEXT@@PEBU_s_FuncInfo@@@Z 000000018003c1c4 f   libvcruntime:ehstate.obj
 0001:0003b1ec       ?GetUnwindTryBlock@__FrameHandler3@@SAHPEA_KPEAU_xDISPATCHER_CONTEXT@@PEBU_s_FuncInfo@@@Z 000000018003c1ec f   libvcruntime:ehstate.obj
 0001:0003b218       ?SetState@__FrameHandler3@@SAXPEA_KPEBU_s_FuncInfo@@H@Z 000000018003c218 f   libvcruntime:ehstate.obj
 0001:0003b224       ?SetUnwindTryBlock@__FrameHandler3@@SAXPEA_KPEAU_xDISPATCHER_CONTEXT@@PEBU_s_FuncInfo@@H@Z 000000018003c224 f   libvcruntime:ehstate.obj
 0001:0003b260       ?StateFromControlPc@__FrameHandler3@@SAHPEBU_s_FuncInfo@@PEAU_xDISPATCHER_CONTEXT@@@Z 000000018003c260 f   libvcruntime:ehstate.obj
 0001:0003b268       ?StateFromIp@__FrameHandler3@@SAHPEBU_s_FuncInfo@@PEAU_xDISPATCHER_CONTEXT@@_K@Z 000000018003c268 f   libvcruntime:ehstate.obj
 0001:0003bcf4       ??$TypeMatchHelper@V__FrameHandler3@@@@YAHPEBU_s_HandlerType@@PEBU_s_CatchableType@@PEBU_s_ThrowInfo@@@Z 000000018003ccf4 f i libvcruntime:frame.obj
 0001:0003be38       ??$__InternalCxxFrameHandler@V__FrameHandler3@@@@YA?AW4_EXCEPTION_DISPOSITION@@PEAUEHExceptionRecord@@PEA_KPEAU_CONTEXT@@PEAU_xDISPATCHER_CONTEXT@@PEBU_s_FuncInfo@@H1E@Z 000000018003ce38 f i libvcruntime:frame.obj
 0001:0003c080       ??0bad_exception@std@@QEAA@AEBV01@@Z 000000018003d080 f i libvcruntime:frame.obj
 0001:0003c0c0       ??0bad_exception@std@@QEAA@XZ 000000018003d0c0 f i libvcruntime:frame.obj
 0001:0003c0e0       ?CxxCallCatchBlock@__FrameHandler3@@SAPEAXPEAU_EXCEPTION_RECORD@@@Z 000000018003d0e0 f   libvcruntime:frame.obj
 0001:0003c354       ?FrameUnwindToState@__FrameHandler3@@SAXPEA_KPEAU_xDISPATCHER_CONTEXT@@PEBU_s_FuncInfo@@H@Z 000000018003d354 f   libvcruntime:frame.obj
 0001:0003c4e8       ?GetHandlerSearchState@__FrameHandler3@@SAHPEA_KPEAU_xDISPATCHER_CONTEXT@@PEBU_s_FuncInfo@@@Z 000000018003d4e8 f i libvcruntime:frame.obj
 0001:0003c6ec       ?_CallMemberFunction1@@YAXQEAX00@Z 000000018003d6ec f i libvcruntime:frame.obj
 0001:0003c6f8       ?_CallMemberFunction2@@YAXQEAX00H@Z 000000018003d6f8 f i libvcruntime:frame.obj
 0001:0003c708       __vcrt_initialize_pure_virtual_call_handler 000000018003d708 f   libvcruntime:purevirt_data.obj
 0001:0003c718       __vcrt_initialize_locks    000000018003d718 f   libvcruntime:locks.obj
 0001:0003c760       __vcrt_uninitialize_locks  000000018003d760 f   libvcruntime:locks.obj
 0001:0003c970       __vcrt_FlsAlloc            000000018003d970 f   libvcruntime:winapi_downlevel.obj
 0001:0003c9b8       __vcrt_FlsFree             000000018003d9b8 f   libvcruntime:winapi_downlevel.obj
 0001:0003ca00       __vcrt_FlsGetValue         000000018003da00 f   libvcruntime:winapi_downlevel.obj
 0001:0003ca48       __vcrt_FlsSetValue         000000018003da48 f   libvcruntime:winapi_downlevel.obj
 0001:0003ca9c       __vcrt_InitializeCriticalSectionEx 000000018003da9c f   libvcruntime:winapi_downlevel.obj
 0001:0003cb00       __vcrt_initialize_winapi_thunks 000000018003db00 f   libvcruntime:winapi_downlevel.obj
 0001:0003cb30       __vcrt_uninitialize_winapi_thunks 000000018003db30 f   libvcruntime:winapi_downlevel.obj
 0001:0003cb80       _NLG_Notify                000000018003db80 f   libvcruntime:notify.obj
 0001:0003cba0       __NLG_Dispatch2            000000018003dba0 f   libvcruntime:notify.obj
 0001:0003cbb0       __NLG_Return2              000000018003dbb0 f   libvcruntime:notify.obj
 0001:0003cbb4       __except_validate_context_record 000000018003dbb4 f   libvcruntime:jbcxrval.obj
 0001:0003cc00       _CallSettingFrame          000000018003dc00 f   libvcruntime:handlers.obj
 0001:0003cc50       _CallSettingFrameEncoded   000000018003dc50 f   libvcruntime:handlers.obj
 0001:0003ccb0       memcpy_repmovs             000000018003dcb0 f   libvcruntime:memcpy.obj
 0001:0003ccd0       memcpy                     000000018003dcd0 f   libvcruntime:memcpy.obj
 0001:0003ccd0       memmove                    000000018003dcd0 f   libvcruntime:memcpy.obj
 0001:0003d820       ??$ftprintf@PEAU_iobuf@@PEB_WAEBQEB_WAEBQEB_WAEBI@?$__crt_char_traits@_W@@SAH$$QEAPEAU_iobuf@@$$QEAPEB_WAEBQEB_W2AEBI@Z 000000018003e820 f i libucrt:assert.obj
 0001:0003d848       _wassert                   000000018003e848 f   libucrt:assert.obj
 0001:0003d8bc       fwprintf                   000000018003e8bc f i libucrt:assert.obj
 0001:0003d900       swprintf                   000000018003e900 f i libucrt:assert.obj
 0001:0003d954       __acrt_call_reportfault    000000018003e954 f   libucrt:invalid_parameter.obj
 0001:0003dab0       __acrt_initialize_invalid_parameter_handler 000000018003eab0 f   libucrt:invalid_parameter.obj
 0001:0003dab8       _invalid_parameter         000000018003eab8 f   libucrt:invalid_parameter.obj
 0001:0003db68       _invalid_parameter_noinfo  000000018003eb68 f   libucrt:invalid_parameter.obj
 0001:0003db88       _invalid_parameter_noinfo_noreturn 000000018003eb88 f   libucrt:invalid_parameter.obj
 0001:0003dbb8       _invoke_watson             000000018003ebb8 f   libucrt:invalid_parameter.obj
 0001:0003dc00       free                       000000018003ec00 f   libucrt:free.obj
 0001:0003dc14       malloc                     000000018003ec14 f   libucrt:malloc.obj
 0001:0003dc1c       ??0_LocaleUpdate@@QEAA@QEAU__crt_locale_pointers@@@Z 000000018003ec1c f i libucrt:stricmp.obj
 0001:0003dcb8       __ascii_stricmp            000000018003ecb8 f   libucrt:stricmp.obj
 0001:0003dcf8       _stricmp                   000000018003ecf8 f   libucrt:stricmp.obj
 0001:0003dd40       _stricmp_l                 000000018003ed40 f   libucrt:stricmp.obj
 0001:0003e3e0       ??$ensure_buffer_is_big_enough@D@formatting_buffer@__crt_stdio_output@@QEAA_N_K@Z 000000018003f3e0 f i libucrt:output.obj
 0001:0003e488       ??$ensure_buffer_is_big_enough@_W@formatting_buffer@__crt_stdio_output@@QEAA_N_K@Z 000000018003f488 f i libucrt:output.obj
 0001:0003e534       ??$is_wide_character_specifier@_W@__crt_stdio_output@@YA_N_K_WW4length_modifier@0@@Z 000000018003f534 f i libucrt:output.obj
 0001:0003e574       ??$type_case_integer_parse_into_buffer@I@?$output_processor@DV?$string_output_adapter@D@__crt_stdio_output@@V?$format_validation_base@DV?$string_output_adapter@D@__crt_stdio_output@@@2@@__crt_stdio_output@@AEAAXII_N@Z 000000018003f574 f i libucrt:output.obj
 0001:0003e574       ??$type_case_integer_parse_into_buffer@I@?$output_processor@DV?$stream_output_adapter@D@__crt_stdio_output@@V?$standard_base@DV?$stream_output_adapter@D@__crt_stdio_output@@@2@@__crt_stdio_output@@AEAAXII_N@Z 000000018003f574 f i libucrt:output.obj
 0001:0003e574       ??$type_case_integer_parse_into_buffer@I@?$output_processor@DV?$string_output_adapter@D@__crt_stdio_output@@V?$standard_base@DV?$string_output_adapter@D@__crt_stdio_output@@@2@@__crt_stdio_output@@AEAAXII_N@Z 000000018003f574 f i libucrt:output.obj
 0001:0003e604       ??$type_case_integer_parse_into_buffer@I@?$output_processor@_WV?$string_output_adapter@_W@__crt_stdio_output@@V?$standard_base@_WV?$string_output_adapter@_W@__crt_stdio_output@@@2@@__crt_stdio_output@@AEAAXII_N@Z 000000018003f604 f i libucrt:output.obj
 0001:0003e604       ??$type_case_integer_parse_into_buffer@I@?$output_processor@_WV?$stream_output_adapter@_W@__crt_stdio_output@@V?$standard_base@_WV?$stream_output_adapter@_W@__crt_stdio_output@@@2@@__crt_stdio_output@@AEAAXII_N@Z 000000018003f604 f i libucrt:output.obj
 0001:0003e6a8       ??$type_case_integer_parse_into_buffer@_K@?$output_processor@DV?$string_output_adapter@D@__crt_stdio_output@@V?$format_validation_base@DV?$string_output_adapter@D@__crt_stdio_output@@@2@@__crt_stdio_output@@AEAAX_KI_N@Z 000000018003f6a8 f i libucrt:output.obj
 0001:0003e6a8       ??$type_case_integer_parse_into_buffer@_K@?$output_processor@DV?$string_output_adapter@D@__crt_stdio_output@@V?$standard_base@DV?$string_output_adapter@D@__crt_stdio_output@@@2@@__crt_stdio_output@@AEAAX_KI_N@Z 000000018003f6a8 f i libucrt:output.obj
 0001:0003e6a8       ??$type_case_integer_parse_into_buffer@_K@?$output_processor@DV?$stream_output_adapter@D@__crt_stdio_output@@V?$standard_base@DV?$stream_output_adapter@D@__crt_stdio_output@@@2@@__crt_stdio_output@@AEAAX_KI_N@Z 000000018003f6a8 f i libucrt:output.obj
 0001:0003e73c       ??$type_case_integer_parse_into_buffer@_K@?$output_processor@_WV?$stream_output_adapter@_W@__crt_stdio_output@@V?$standard_base@_WV?$stream_output_adapter@_W@__crt_stdio_output@@@2@@__crt_stdio_output@@AEAAX_KI_N@Z 000000018003f73c f i libucrt:output.obj
 0001:0003e73c       ??$type_case_integer_parse_into_buffer@_K@?$output_processor@_WV?$string_output_adapter@_W@__crt_stdio_output@@V?$standard_base@_WV?$string_output_adapter@_W@__crt_stdio_output@@@2@@__crt_stdio_output@@AEAAX_KI_N@Z 000000018003f73c f i libucrt:output.obj
 0001:0003e7e0       ??$write_multiple_characters@V?$stream_output_adapter@D@__crt_stdio_output@@D@__crt_stdio_output@@YAXAEBV?$stream_output_adapter@D@0@DHQEAH@Z 000000018003f7e0 f i libucrt:output.obj
 0001:0003e86c       ??$write_multiple_characters@V?$stream_output_adapter@_W@__crt_stdio_output@@D@__crt_stdio_output@@YAXAEBV?$stream_output_adapter@_W@0@DHQEAH@Z 000000018003f86c f i libucrt:output.obj
 0001:0003e900       ??$write_multiple_characters@V?$string_output_adapter@D@__crt_stdio_output@@D@__crt_stdio_output@@YAXAEBV?$string_output_adapter@D@0@DHQEAH@Z 000000018003f900 f i libucrt:output.obj
 0001:0003e978       ??$write_multiple_characters@V?$string_output_adapter@_W@__crt_stdio_output@@D@__crt_stdio_output@@YAXAEBV?$string_output_adapter@_W@0@DHQEAH@Z 000000018003f978 f i libucrt:output.obj
 0001:0003ec58       ?crop_zeroes@__crt_stdio_output@@YAXPEADQEAU__crt_locale_pointers@@@Z 000000018003fc58 f i libucrt:output.obj
 0001:0003ecc4       ?force_decimal_point@__crt_stdio_output@@YAXPEADQEAU__crt_locale_pointers@@@Z 000000018003fcc4 f i libucrt:output.obj
 0001:0003ed34       ?parse_int_from_format_string@?$output_processor@DV?$stream_output_adapter@D@__crt_stdio_output@@V?$standard_base@DV?$stream_output_adapter@D@__crt_stdio_output@@@2@@__crt_stdio_output@@AEAA_NQEAH@Z 000000018003fd34 f i libucrt:output.obj
 0001:0003ed34       ?parse_int_from_format_string@?$output_processor@DV?$string_output_adapter@D@__crt_stdio_output@@V?$standard_base@DV?$string_output_adapter@D@__crt_stdio_output@@@2@@__crt_stdio_output@@AEAA_NQEAH@Z 000000018003fd34 f i libucrt:output.obj
 0001:0003ed34       ?parse_int_from_format_string@?$output_processor@DV?$string_output_adapter@D@__crt_stdio_output@@V?$format_validation_base@DV?$string_output_adapter@D@__crt_stdio_output@@@2@@__crt_stdio_output@@AEAA_NQEAH@Z 000000018003fd34 f i libucrt:output.obj
 0001:0003edd8       ?parse_int_from_format_string@?$output_processor@_WV?$string_output_adapter@_W@__crt_stdio_output@@V?$standard_base@_WV?$string_output_adapter@_W@__crt_stdio_output@@@2@@__crt_stdio_output@@AEAA_NQEAH@Z 000000018003fdd8 f i libucrt:output.obj
 0001:0003edd8       ?parse_int_from_format_string@?$output_processor@_WV?$stream_output_adapter@_W@__crt_stdio_output@@V?$standard_base@_WV?$stream_output_adapter@_W@__crt_stdio_output@@@2@@__crt_stdio_output@@AEAA_NQEAH@Z 000000018003fdd8 f i libucrt:output.obj
 0001:0003ee7c       ?process@?$output_processor@DV?$stream_output_adapter@D@__crt_stdio_output@@V?$standard_base@DV?$stream_output_adapter@D@__crt_stdio_output@@@2@@__crt_stdio_output@@QEAAHXZ 000000018003fe7c f i libucrt:output.obj
 0001:0003f094       ?process@?$output_processor@DV?$string_output_adapter@D@__crt_stdio_output@@V?$format_validation_base@DV?$string_output_adapter@D@__crt_stdio_output@@@2@@__crt_stdio_output@@QEAAHXZ 0000000180040094 f i libucrt:output.obj
 0001:0003f2ac       ?process@?$output_processor@DV?$string_output_adapter@D@__crt_stdio_output@@V?$standard_base@DV?$string_output_adapter@D@__crt_stdio_output@@@2@@__crt_stdio_output@@QEAAHXZ 00000001800402ac f i libucrt:output.obj
 0001:0003f4b8       ?process@?$output_processor@_WV?$stream_output_adapter@_W@__crt_stdio_output@@V?$standard_base@_WV?$stream_output_adapter@_W@__crt_stdio_output@@@2@@__crt_stdio_output@@QEAAHXZ 00000001800404b8 f i libucrt:output.obj
 0001:0003f724       ?process@?$output_processor@_WV?$string_output_adapter@_W@__crt_stdio_output@@V?$standard_base@_WV?$string_output_adapter@_W@__crt_stdio_output@@@2@@__crt_stdio_output@@QEAAHXZ 0000000180040724 f i libucrt:output.obj
 0001:0003f9a0       ?state_case_normal@?$output_processor@DV?$stream_output_adapter@D@__crt_stdio_output@@V?$standard_base@DV?$stream_output_adapter@D@__crt_stdio_output@@@2@@__crt_stdio_output@@AEAA_NXZ 00000001800409a0 f i libucrt:output.obj
 0001:0003fa10       ?state_case_normal@?$output_processor@DV?$string_output_adapter@D@__crt_stdio_output@@V?$standard_base@DV?$string_output_adapter@D@__crt_stdio_output@@@2@@__crt_stdio_output@@AEAA_NXZ 0000000180040a10 f i libucrt:output.obj
 0001:0003fa10       ?state_case_normal@?$output_processor@DV?$string_output_adapter@D@__crt_stdio_output@@V?$format_validation_base@DV?$string_output_adapter@D@__crt_stdio_output@@@2@@__crt_stdio_output@@AEAA_NXZ 0000000180040a10 f i libucrt:output.obj
 0001:0003fa84       ?state_case_normal_tchar@?$output_processor@DV?$stream_output_adapter@D@__crt_stdio_output@@V?$standard_base@DV?$stream_output_adapter@D@__crt_stdio_output@@@2@@__crt_stdio_output@@AEAA_ND@Z 0000000180040a84 f i libucrt:output.obj
 0001:0003fb28       ?state_case_normal_tchar@?$output_processor@DV?$string_output_adapter@D@__crt_stdio_output@@V?$standard_base@DV?$string_output_adapter@D@__crt_stdio_output@@@2@@__crt_stdio_output@@AEAA_ND@Z 0000000180040b28 f i libucrt:output.obj
 0001:0003fb28       ?state_case_normal_tchar@?$output_processor@DV?$string_output_adapter@D@__crt_stdio_output@@V?$format_validation_base@DV?$string_output_adapter@D@__crt_stdio_output@@@2@@__crt_stdio_output@@AEAA_ND@Z 0000000180040b28 f i libucrt:output.obj
 0001:0003fbd0       ?state_case_size@?$output_processor@DV?$stream_output_adapter@D@__crt_stdio_output@@V?$standard_base@DV?$stream_output_adapter@D@__crt_stdio_output@@@2@@__crt_stdio_output@@AEAA_NXZ 0000000180040bd0 f i libucrt:output.obj
 0001:0003fd44       ?state_case_size@?$output_processor@DV?$string_output_adapter@D@__crt_stdio_output@@V?$standard_base@DV?$string_output_adapter@D@__crt_stdio_output@@@2@@__crt_stdio_output@@AEAA_NXZ 0000000180040d44 f i libucrt:output.obj
 0001:0003fd44       ?state_case_size@?$output_processor@DV?$string_output_adapter@D@__crt_stdio_output@@V?$format_validation_base@DV?$string_output_adapter@D@__crt_stdio_output@@@2@@__crt_stdio_output@@AEAA_NXZ 0000000180040d44 f i libucrt:output.obj
 0001:0003feb8       ?state_case_size@?$output_processor@_WV?$stream_output_adapter@_W@__crt_stdio_output@@V?$standard_base@_WV?$stream_output_adapter@_W@__crt_stdio_output@@@2@@__crt_stdio_output@@AEAA_NXZ 0000000180040eb8 f i libucrt:output.obj
 0001:00040050       ?state_case_size@?$output_processor@_WV?$string_output_adapter@_W@__crt_stdio_output@@V?$standard_base@_WV?$string_output_adapter@_W@__crt_stdio_output@@@2@@__crt_stdio_output@@AEAA_NXZ 0000000180041050 f i libucrt:output.obj
 0001:000401e8       ?state_case_type@?$output_processor@DV?$stream_output_adapter@D@__crt_stdio_output@@V?$standard_base@DV?$stream_output_adapter@D@__crt_stdio_output@@@2@@__crt_stdio_output@@AEAA_NXZ 00000001800411e8 f i libucrt:output.obj
 0001:0004046c       ?state_case_type@?$output_processor@DV?$string_output_adapter@D@__crt_stdio_output@@V?$format_validation_base@DV?$string_output_adapter@D@__crt_stdio_output@@@2@@__crt_stdio_output@@AEAA_NXZ 000000018004146c f i libucrt:output.obj
 0001:0004046c       ?state_case_type@?$output_processor@DV?$string_output_adapter@D@__crt_stdio_output@@V?$standard_base@DV?$string_output_adapter@D@__crt_stdio_output@@@2@@__crt_stdio_output@@AEAA_NXZ 000000018004146c f i libucrt:output.obj
 0001:000406d4       ?state_case_type@?$output_processor@_WV?$stream_output_adapter@_W@__crt_stdio_output@@V?$standard_base@_WV?$stream_output_adapter@_W@__crt_stdio_output@@@2@@__crt_stdio_output@@AEAA_NXZ 00000001800416d4 f i libucrt:output.obj
 0001:000409b4       ?state_case_type@?$output_processor@_WV?$string_output_adapter@_W@__crt_stdio_output@@V?$standard_base@_WV?$string_output_adapter@_W@__crt_stdio_output@@@2@@__crt_stdio_output@@AEAA_NXZ 00000001800419b4 f i libucrt:output.obj
 0001:00040c80       ?type_case_Z@?$output_processor@DV?$string_output_adapter@D@__crt_stdio_output@@V?$format_validation_base@DV?$string_output_adapter@D@__crt_stdio_output@@@2@@__crt_stdio_output@@AEAA_NXZ 0000000180041c80 f i libucrt:output.obj
 0001:00040c80       ?type_case_Z@?$output_processor@DV?$string_output_adapter@D@__crt_stdio_output@@V?$standard_base@DV?$string_output_adapter@D@__crt_stdio_output@@@2@@__crt_stdio_output@@AEAA_NXZ 0000000180041c80 f i libucrt:output.obj
 0001:00040c80       ?type_case_Z@?$output_processor@DV?$stream_output_adapter@D@__crt_stdio_output@@V?$standard_base@DV?$stream_output_adapter@D@__crt_stdio_output@@@2@@__crt_stdio_output@@AEAA_NXZ 0000000180041c80 f i libucrt:output.obj
 0001:00040cf8       ?type_case_Z@?$output_processor@_WV?$string_output_adapter@_W@__crt_stdio_output@@V?$standard_base@_WV?$string_output_adapter@_W@__crt_stdio_output@@@2@@__crt_stdio_output@@AEAA_NXZ 0000000180041cf8 f i libucrt:output.obj
 0001:00040cf8       ?type_case_Z@?$output_processor@_WV?$stream_output_adapter@_W@__crt_stdio_output@@V?$standard_base@_WV?$stream_output_adapter@_W@__crt_stdio_output@@@2@@__crt_stdio_output@@AEAA_NXZ 0000000180041cf8 f i libucrt:output.obj
 0001:00040d74       ?type_case_a@?$output_processor@DV?$string_output_adapter@D@__crt_stdio_output@@V?$format_validation_base@DV?$string_output_adapter@D@__crt_stdio_output@@@2@@__crt_stdio_output@@AEAA_NXZ 0000000180041d74 f i libucrt:output.obj
 0001:00040d74       ?type_case_a@?$output_processor@DV?$stream_output_adapter@D@__crt_stdio_output@@V?$standard_base@DV?$stream_output_adapter@D@__crt_stdio_output@@@2@@__crt_stdio_output@@AEAA_NXZ 0000000180041d74 f i libucrt:output.obj
 0001:00040d74       ?type_case_a@?$output_processor@DV?$string_output_adapter@D@__crt_stdio_output@@V?$standard_base@DV?$string_output_adapter@D@__crt_stdio_output@@@2@@__crt_stdio_output@@AEAA_NXZ 0000000180041d74 f i libucrt:output.obj
 0001:00040f30       ?type_case_a@?$output_processor@_WV?$string_output_adapter@_W@__crt_stdio_output@@V?$standard_base@_WV?$string_output_adapter@_W@__crt_stdio_output@@@2@@__crt_stdio_output@@AEAA_NXZ 0000000180041f30 f i libucrt:output.obj
 0001:00040f30       ?type_case_a@?$output_processor@_WV?$stream_output_adapter@_W@__crt_stdio_output@@V?$standard_base@_WV?$stream_output_adapter@_W@__crt_stdio_output@@@2@@__crt_stdio_output@@AEAA_NXZ 0000000180041f30 f i libucrt:output.obj
 0001:00041110       ?type_case_c_tchar@?$output_processor@DV?$stream_output_adapter@D@__crt_stdio_output@@V?$standard_base@DV?$stream_output_adapter@D@__crt_stdio_output@@@2@@__crt_stdio_output@@AEAA_ND@Z 0000000180042110 f i libucrt:output.obj
 0001:00041110       ?type_case_c_tchar@?$output_processor@DV?$string_output_adapter@D@__crt_stdio_output@@V?$format_validation_base@DV?$string_output_adapter@D@__crt_stdio_output@@@2@@__crt_stdio_output@@AEAA_ND@Z 0000000180042110 f i libucrt:output.obj
 0001:00041110       ?type_case_c_tchar@?$output_processor@DV?$string_output_adapter@D@__crt_stdio_output@@V?$standard_base@DV?$string_output_adapter@D@__crt_stdio_output@@@2@@__crt_stdio_output@@AEAA_ND@Z 0000000180042110 f i libucrt:output.obj
 0001:000411cc       ?type_case_c_tchar@?$output_processor@_WV?$string_output_adapter@_W@__crt_stdio_output@@V?$standard_base@_WV?$string_output_adapter@_W@__crt_stdio_output@@@2@@__crt_stdio_output@@AEAA_N_W@Z 00000001800421cc f i libucrt:output.obj
 0001:000411cc       ?type_case_c_tchar@?$output_processor@_WV?$stream_output_adapter@_W@__crt_stdio_output@@V?$standard_base@_WV?$stream_output_adapter@_W@__crt_stdio_output@@@2@@__crt_stdio_output@@AEAA_N_W@Z 00000001800421cc f i libucrt:output.obj
 0001:00041274       ?type_case_integer@?$output_processor@DV?$stream_output_adapter@D@__crt_stdio_output@@V?$standard_base@DV?$stream_output_adapter@D@__crt_stdio_output@@@2@@__crt_stdio_output@@AEAA_NI_N@Z 0000000180042274 f i libucrt:output.obj
 0001:00041274       ?type_case_integer@?$output_processor@DV?$string_output_adapter@D@__crt_stdio_output@@V?$format_validation_base@DV?$string_output_adapter@D@__crt_stdio_output@@@2@@__crt_stdio_output@@AEAA_NI_N@Z 0000000180042274 f i libucrt:output.obj
 0001:00041274       ?type_case_integer@?$output_processor@DV?$string_output_adapter@D@__crt_stdio_output@@V?$standard_base@DV?$string_output_adapter@D@__crt_stdio_output@@@2@@__crt_stdio_output@@AEAA_NI_N@Z 0000000180042274 f i libucrt:output.obj
 0001:0004143c       ?type_case_integer@?$output_processor@_WV?$stream_output_adapter@_W@__crt_stdio_output@@V?$standard_base@_WV?$stream_output_adapter@_W@__crt_stdio_output@@@2@@__crt_stdio_output@@AEAA_NI_N@Z 000000018004243c f i libucrt:output.obj
 0001:0004143c       ?type_case_integer@?$output_processor@_WV?$string_output_adapter@_W@__crt_stdio_output@@V?$standard_base@_WV?$string_output_adapter@_W@__crt_stdio_output@@@2@@__crt_stdio_output@@AEAA_NI_N@Z 000000018004243c f i libucrt:output.obj
 0001:00041608       ?type_case_n@?$output_processor@DV?$stream_output_adapter@D@__crt_stdio_output@@V?$standard_base@DV?$stream_output_adapter@D@__crt_stdio_output@@@2@@__crt_stdio_output@@AEAA_NXZ 0000000180042608 f i libucrt:output.obj
 0001:00041608       ?type_case_n@?$output_processor@DV?$string_output_adapter@D@__crt_stdio_output@@V?$standard_base@DV?$string_output_adapter@D@__crt_stdio_output@@@2@@__crt_stdio_output@@AEAA_NXZ 0000000180042608 f i libucrt:output.obj
 0001:00041608       ?type_case_n@?$output_processor@_WV?$string_output_adapter@_W@__crt_stdio_output@@V?$standard_base@_WV?$string_output_adapter@_W@__crt_stdio_output@@@2@@__crt_stdio_output@@AEAA_NXZ 0000000180042608 f i libucrt:output.obj
 0001:00041608       ?type_case_n@?$output_processor@_WV?$stream_output_adapter@_W@__crt_stdio_output@@V?$standard_base@_WV?$stream_output_adapter@_W@__crt_stdio_output@@@2@@__crt_stdio_output@@AEAA_NXZ 0000000180042608 f i libucrt:output.obj
 0001:00041608       ?type_case_n@?$output_processor@DV?$string_output_adapter@D@__crt_stdio_output@@V?$format_validation_base@DV?$string_output_adapter@D@__crt_stdio_output@@@2@@__crt_stdio_output@@AEAA_NXZ 0000000180042608 f i libucrt:output.obj
 0001:000416e4       ?type_case_s@?$output_processor@DV?$stream_output_adapter@D@__crt_stdio_output@@V?$standard_base@DV?$stream_output_adapter@D@__crt_stdio_output@@@2@@__crt_stdio_output@@AEAA_NXZ 00000001800426e4 f i libucrt:output.obj
 0001:000416e4       ?type_case_s@?$output_processor@DV?$string_output_adapter@D@__crt_stdio_output@@V?$standard_base@DV?$string_output_adapter@D@__crt_stdio_output@@@2@@__crt_stdio_output@@AEAA_NXZ 00000001800426e4 f i libucrt:output.obj
 0001:000416e4       ?type_case_s@?$output_processor@DV?$string_output_adapter@D@__crt_stdio_output@@V?$format_validation_base@DV?$string_output_adapter@D@__crt_stdio_output@@@2@@__crt_stdio_output@@AEAA_NXZ 00000001800426e4 f i libucrt:output.obj
 0001:0004177c       ?type_case_s@?$output_processor@_WV?$string_output_adapter@_W@__crt_stdio_output@@V?$standard_base@_WV?$string_output_adapter@_W@__crt_stdio_output@@@2@@__crt_stdio_output@@AEAA_NXZ 000000018004277c f i libucrt:output.obj
 0001:0004177c       ?type_case_s@?$output_processor@_WV?$stream_output_adapter@_W@__crt_stdio_output@@V?$standard_base@_WV?$stream_output_adapter@_W@__crt_stdio_output@@@2@@__crt_stdio_output@@AEAA_NXZ 000000018004277c f i libucrt:output.obj
 0001:00041844       ?validate_stream_is_ansi_if_required@?$__acrt_stdio_char_traits@D@@SA_NQEAU_iobuf@@@Z 0000000180042844 f i libucrt:output.obj
 0001:000418e0       ?write_stored_string_tchar@?$output_processor@DV?$stream_output_adapter@D@__crt_stdio_output@@V?$standard_base@DV?$stream_output_adapter@D@__crt_stdio_output@@@2@@__crt_stdio_output@@AEAA_ND@Z 00000001800428e0 f i libucrt:output.obj
 0001:00041a04       ?write_stored_string_tchar@?$output_processor@DV?$string_output_adapter@D@__crt_stdio_output@@V?$format_validation_base@DV?$string_output_adapter@D@__crt_stdio_output@@@2@@__crt_stdio_output@@AEAA_ND@Z 0000000180042a04 f i libucrt:output.obj
 0001:00041a04       ?write_stored_string_tchar@?$output_processor@DV?$string_output_adapter@D@__crt_stdio_output@@V?$standard_base@DV?$string_output_adapter@D@__crt_stdio_output@@@2@@__crt_stdio_output@@AEAA_ND@Z 0000000180042a04 f i libucrt:output.obj
 0001:00041adc       ?write_stored_string_tchar@?$output_processor@_WV?$stream_output_adapter@_W@__crt_stdio_output@@V?$standard_base@_WV?$stream_output_adapter@_W@__crt_stdio_output@@@2@@__crt_stdio_output@@AEAA_N_W@Z 0000000180042adc f i libucrt:output.obj
 0001:00041be4       ?write_stored_string_tchar@?$output_processor@_WV?$string_output_adapter@_W@__crt_stdio_output@@V?$standard_base@_WV?$string_output_adapter@_W@__crt_stdio_output@@@2@@__crt_stdio_output@@AEAA_N_W@Z 0000000180042be4 f i libucrt:output.obj
 0001:00041cd0       ?write_string@?$string_output_adapter@D@__crt_stdio_output@@QEBAXQEBDHQEAHAEAV__crt_deferred_errno_cache@@@Z 0000000180042cd0 f i libucrt:output.obj
 0001:00041d74       ?write_string@?$string_output_adapter@_W@__crt_stdio_output@@QEBAXQEB_WHQEAHAEAV__crt_deferred_errno_cache@@@Z 0000000180042d74 f i libucrt:output.obj
 0001:00041e1c       ?write_string_impl@?$output_adapter_common@DV?$stream_output_adapter@D@__crt_stdio_output@@@__crt_stdio_output@@IEBAXQEBDHQEAHAEAV__crt_deferred_errno_cache@@@Z 0000000180042e1c f i libucrt:output.obj
 0001:00041f14       ?write_string_impl@?$output_adapter_common@_WV?$stream_output_adapter@_W@__crt_stdio_output@@@__crt_stdio_output@@IEBAXQEB_WHQEAHAEAV__crt_deferred_errno_cache@@@Z 0000000180042f14 f i libucrt:output.obj
 0001:00042018       __stdio_common_vfprintf    0000000180043018 f   libucrt:output.obj
 0001:000420a4       __stdio_common_vfwprintf   00000001800430a4 f   libucrt:output.obj
 0001:00042130       __stdio_common_vsnprintf_s 0000000180043130 f   libucrt:output.obj
 0001:00042264       __stdio_common_vsprintf    0000000180043264 f   libucrt:output.obj
 0001:0004226c       __stdio_common_vswprintf   000000018004326c f   libucrt:output.obj
 0001:00042274       abort                      0000000180043274 f   libucrt:abort.obj
 0001:000422cc       __acrt_initialize_stdio    00000001800432cc f   libucrt:_file.obj
 0001:000423ec       __acrt_iob_func            00000001800433ec f   libucrt:_file.obj
 0001:00042400       __acrt_uninitialize_stdio  0000000180043400 f   libucrt:_file.obj
 0001:0004245c       _lock_file                 000000018004345c f   libucrt:_file.obj
 0001:00042468       _unlock_file               0000000180043468 f   libucrt:_file.obj
 0001:000425a0       _beginthreadex             00000001800435a0 f   libucrt:thread.obj
 0001:00042674       _endthreadex               0000000180043674 f   libucrt:thread.obj
 0001:0004273c       fopen                      000000018004373c f   libucrt:fopen.obj
 0001:00042748       _fclose_nolock             0000000180043748 f   libucrt:fclose.obj
 0001:000427cc       fclose                     00000001800437cc f   libucrt:fclose.obj
 0001:00042830       __acrt_errno_from_os_error 0000000180043830 f   libucrt:errno.obj
 0001:00042878       __acrt_errno_map_os_error  0000000180043878 f   libucrt:errno.obj
 0001:000428c8       __doserrno                 00000001800438c8 f   libucrt:errno.obj
 0001:000428e8       _errno                     00000001800438e8 f   libucrt:errno.obj
 0001:00042908       strerror                   0000000180043908 f   libucrt:strerror.obj
 0001:00042bcc       __acrt_stdio_flush_nolock  0000000180043bcc f   libucrt:fflush.obj
 0001:00042c48       _fflush_nolock             0000000180043c48 f   libucrt:fflush.obj
 0001:00042c94       _flushall                  0000000180043c94 f   libucrt:fflush.obj
 0001:00042c9c       fflush                     0000000180043c9c f   libucrt:fflush.obj
 0001:00042da8       _fwrite_nolock             0000000180043da8 f   libucrt:fwrite.obj
 0001:00042f54       fwrite                     0000000180043f54 f   libucrt:fwrite.obj
 0001:00042fd8       __acrt_initialize_new_handler 0000000180043fd8 f   libucrt:new_handler.obj
 0001:00042fe0       _callnewh                  0000000180043fe0 f   libucrt:new_handler.obj
 0001:00043010       _query_new_handler         0000000180044010 f   libucrt:new_handler.obj
 0001:00043044       _seh_filter_dll            0000000180044044 f   libucrt:exception_filter.obj
 0001:00043058       _seh_filter_exe            0000000180044058 f   libucrt:exception_filter.obj
 0001:00043448       __acrt_initialize_thread_local_exit_callback 0000000180044448 f   libucrt:exit.obj
 0001:00043450       _cexit                     0000000180044450 f   libucrt:exit.obj
 0001:00043460       _exit                      0000000180044460 f   libucrt:exit.obj
 0001:0004346c       _is_c_termination_complete 000000018004446c f   libucrt:exit.obj
 0001:00043638       __acrt_allocate_buffer_for_argv 0000000180044638 f   libucrt:argv_parsing.obj
 0001:00043698       _configure_narrow_argv     0000000180044698 f   libucrt:argv_parsing.obj
 0001:00043a10       __dcrt_uninitialize_environments_nolock 0000000180044a10 f   libucrt:environment_initialization.obj
 0001:00043a48       _initialize_narrow_environment 0000000180044a48 f   libucrt:environment_initialization.obj
 0001:00043d90       _crt_atexit                0000000180044d90 f   libucrt:onexit.obj
 0001:00043da0       _execute_onexit_table      0000000180044da0 f   libucrt:onexit.obj
 0001:00043ddc       _initialize_onexit_table   0000000180044ddc f   libucrt:onexit.obj
 0001:00043e04       _register_onexit_function  0000000180044e04 f   libucrt:onexit.obj
 0001:00043e84       __acrt_uninitialize_command_line 0000000180044e84 f   libucrt:argv_data.obj
 0001:00043f7c       __acrt_initialize          0000000180044f7c f   libucrt:initialization.obj
 0001:00043f90       __acrt_thread_attach       0000000180044f90 f   libucrt:initialization.obj
 0001:00043fa4       __acrt_thread_detach       0000000180044fa4 f   libucrt:initialization.obj
 0001:00043fb4       __acrt_uninitialize        0000000180044fb4 f   libucrt:initialization.obj
 0001:00043fec       __acrt_uninitialize_critical 0000000180044fec f   libucrt:initialization.obj
 0001:00043ffc       _initterm                  0000000180044ffc f   libucrt:initterm.obj
 0001:00044060       _initterm_e                0000000180045060 f   libucrt:initterm.obj
 0001:000440a0       terminate                  00000001800450a0 f   libucrt:terminate.obj
 0001:000440c0       strcpy_s                   00000001800450c0 f   libucrt:strcpy_s.obj
 0001:00044120       calloc                     0000000180045120 f   libucrt:calloc.obj
 0001:00044128       wcsncmp                    0000000180045128 f   libucrt:wcsncmp.obj
 0001:00044154       ??$parse_integer@KV?$c_string_character_source@D@__crt_strtox@@@__crt_strtox@@YAKQEAU__crt_locale_pointers@@V?$c_string_character_source@D@0@H_N@Z 0000000180045154 f i libucrt:atox.obj
 0001:00044490       ??$parse_integer@KV?$c_string_character_source@_W@__crt_strtox@@@__crt_strtox@@YAKQEAU__crt_locale_pointers@@V?$c_string_character_source@_W@0@H_N@Z 0000000180045490 f i libucrt:atox.obj
 0001:00044b60       strncmp                    0000000180045b60 f   libucrt:strncmp.obj
 0001:00044be0       _query_app_type            0000000180045be0 f   libucrt:report_runtime_error.obj
 0001:00044d28       _itow_s                    0000000180045d28 f   libucrt:xtoa.obj
 0001:00044d48       _set_error_mode            0000000180045d48 f   libucrt:set_error_mode.obj
 0001:00044d88       wcscat_s                   0000000180045d88 f   libucrt:wcscat_s.obj
 0001:00044e08       wcscpy_s                   0000000180045e08 f   libucrt:wcscpy_s.obj
 0001:00044e70       wcsncat_s                  0000000180045e70 f   libucrt:wcsncat_s.obj
 0001:00044f70       ??$__acrt_wcs_to_mbs_cp@U__crt_win32_buffer_no_resizing@@@@YAHQEB_WAEAV?$__crt_win32_buffer@DU__crt_win32_buffer_no_resizing@@@@I@Z 0000000180045f70 f i libucrt:getmodulefilenamea.obj
 0001:00045084       __acrt_GetModuleFileNameA  0000000180046084 f   libucrt:getmodulefilenamea.obj
 0001:000451a4       __acrt_show_wide_message_box 00000001800461a4 f   libucrt:crtmbox.obj
 0001:00045368       setvbuf                    0000000180046368 f   libucrt:setvbuf.obj
 0001:0004544c       __acrt_get_sigabrt_handler 000000018004644c f   libucrt:signal.obj
 0001:0004547c       __acrt_initialize_signal_handlers 000000018004647c f   libucrt:signal.obj
 0001:0004549c       raise                      000000018004649c f   libucrt:signal.obj
 0001:00045a80       __acrt_freeptd             0000000180046a80 f   libucrt:per_thread_data.obj
 0001:00045ac4       __acrt_getptd              0000000180046ac4 f   libucrt:per_thread_data.obj
 0001:00045b98       __acrt_getptd_head         0000000180046b98 f   libucrt:per_thread_data.obj
 0001:00045c40       __acrt_getptd_noexit       0000000180046c40 f   libucrt:per_thread_data.obj
 0001:00045d0c       __acrt_initialize_ptd      0000000180046d0c f   libucrt:per_thread_data.obj
 0001:00045d48       __acrt_uninitialize_ptd    0000000180046d48 f   libucrt:per_thread_data.obj
 0001:00045d6c       _free_base                 0000000180046d6c f   libucrt:free_base.obj
 0001:00045dac       _malloc_base               0000000180046dac f   libucrt:malloc_base.obj
 0001:00045e6c       _tolower_l                 0000000180046e6c f   libucrt:tolower_toupper.obj
 0001:00045fac       tolower                    0000000180046fac f   libucrt:tolower_toupper.obj
 0001:00045fd8       __acrt_update_locale_info  0000000180046fd8 f   libucrt:locale_update.obj
 0001:0004600c       __acrt_update_multibyte_info 000000018004700c f   libucrt:locale_update.obj
 0001:000460b0       __acrt_set_locale_changed  00000001800470b0 f   libucrt:wsetlocale.obj
 0001:000460bc       __acrt_uninitialize_locale 00000001800470bc f   libucrt:wsetlocale.obj
 0001:000460ec       isdigit                    00000001800470ec f i libucrt:_ctype.obj
 0001:00046180       strtol                     0000000180047180 f   libucrt:strtox.obj
 0001:000461ac       wcstol                     00000001800471ac f   libucrt:strtox.obj
 0001:000461d8       _mbtowc_l                  00000001800471d8 f   libucrt:mbtowc.obj
 0001:00046354       mbtowc                     0000000180047354 f   libucrt:mbtowc.obj
 0001:0004635c       _wctomb_s_l                000000018004735c f   libucrt:wctomb.obj
 0001:000464fc       wctomb_s                   00000001800474fc f   libucrt:wctomb.obj
 0001:00046510       strnlen                    0000000180047510 f   libucrt:strnlen.obj
 0001:00046660       wcsnlen                    0000000180047660 f   libucrt:strnlen.obj
 0001:0004720c       __acrt_fp_format           000000018004820c f   libucrt:cvt.obj
 0001:00047494       _fputwc_nolock             0000000180048494 f   libucrt:fputwc.obj
 0001:00047610       _fileno                    0000000180048610 f   libucrt:fileno.obj
 0001:00047638       _fputc_nolock              0000000180048638 f   libucrt:fputc.obj
 0001:00047650       _get_printf_count_output   0000000180048650 f   libucrt:printf_count_output.obj
 0001:00047668       __acrt_stdio_begin_temporary_buffering_nolock 0000000180048668 f   libucrt:_sftbuf.obj
 0001:00047738       __acrt_stdio_end_temporary_buffering_nolock 0000000180048738 f   libucrt:_sftbuf.obj
 0001:00047970       __acrt_initialize_lowio    0000000180048970 f   libucrt:ioinit.obj
 0001:000479ac       __acrt_uninitialize_lowio  00000001800489ac f   libucrt:ioinit.obj
 0001:000479ec       _calloc_base               00000001800489ec f   libucrt:calloc_base.obj
 0001:00047c3c       __acrt_AppPolicyGetProcessTerminationMethodInternal 0000000180048c3c f   libucrt:winapi_thunks.obj
 0001:00047c8c       __acrt_AppPolicyGetShowDeveloperDiagnosticInternal 0000000180048c8c f   libucrt:winapi_thunks.obj
 0001:00047cdc       __acrt_AppPolicyGetThreadInitializationTypeInternal 0000000180048cdc f   libucrt:winapi_thunks.obj
 0001:00047d2c       __acrt_AppPolicyGetWindowingModelInternal 0000000180048d2c f   libucrt:winapi_thunks.obj
 0001:00047d7c       __acrt_AreFileApisANSI     0000000180048d7c f   libucrt:winapi_thunks.obj
 0001:00047db8       __acrt_FlsAlloc            0000000180048db8 f   libucrt:winapi_thunks.obj
 0001:00047e00       __acrt_FlsFree             0000000180048e00 f   libucrt:winapi_thunks.obj
 0001:00047e48       __acrt_FlsGetValue         0000000180048e48 f   libucrt:winapi_thunks.obj
 0001:00047e90       __acrt_FlsSetValue         0000000180048e90 f   libucrt:winapi_thunks.obj
 0001:00047ee4       __acrt_InitializeCriticalSectionEx 0000000180048ee4 f   libucrt:winapi_thunks.obj
 0001:00047f48       __acrt_LCMapStringEx       0000000180048f48 f   libucrt:winapi_thunks.obj
 0001:00048024       __acrt_LocaleNameToLCID    0000000180049024 f   libucrt:winapi_thunks.obj
 0001:00048074       __acrt_MessageBoxW         0000000180049074 f   libucrt:winapi_thunks.obj
 0001:000480e8       __acrt_RoInitialize        00000001800490e8 f   libucrt:winapi_thunks.obj
 0001:00048128       __acrt_RoUninitialize      0000000180049128 f   libucrt:winapi_thunks.obj
 0001:0004815c       __acrt_can_show_message_box 000000018004915c f   libucrt:winapi_thunks.obj
 0001:000481cc       __acrt_get_parent_window   00000001800491cc f   libucrt:winapi_thunks.obj
 0001:00048244       __acrt_initialize_winapi_thunks 0000000180049244 f   libucrt:winapi_thunks.obj
 0001:00048278       __acrt_is_interactive      0000000180049278 f   libucrt:winapi_thunks.obj
 0001:00048340       __acrt_uninitialize_winapi_thunks 0000000180049340 f   libucrt:winapi_thunks.obj
 0001:00048384       _fcloseall                 0000000180049384 f   libucrt:closeall.obj
 0001:00048438       __acrt_stdio_free_buffer_nolock 0000000180049438 f   libucrt:_freebuf.obj
 0001:00048478       __acrt_get_begin_thread_init_policy 0000000180049478 f   libucrt:win_policies.obj
 0001:000484cc       __acrt_get_developer_information_policy 00000001800494cc f   libucrt:win_policies.obj
 0001:00048520       __acrt_get_process_end_policy 0000000180049520 f   libucrt:win_policies.obj
 0001:0004855c       __acrt_get_windowing_model_policy 000000018004955c f   libucrt:win_policies.obj
 0001:000485c8       ?__acrt_stdio_allocate_stream@@YA?AV__crt_stdio_stream@@XZ 00000001800495c8 f   libucrt:stream.obj
 0001:00048620       ?__acrt_stdio_free_stream@@YAXV__crt_stdio_stream@@@Z 0000000180049620 f   libucrt:stream.obj
 0001:00048728       ??$__acrt_stdio_parse_mode@D@@YA?AU__acrt_stdio_stream_mode@@QEBD@Z 0000000180049728 f i libucrt:openfile.obj
 0001:000489ec       _openfile                  00000001800499ec f   libucrt:openfile.obj
 0001:00048afc       _close                     0000000180049afc f   libucrt:close.obj
 0001:00048ba0       _close_nolock              0000000180049ba0 f   libucrt:close.obj
 0001:00048c60       __sys_errlist              0000000180049c60 f   libucrt:syserr.obj
 0001:00048c68       __sys_nerr                 0000000180049c68 f   libucrt:syserr.obj
 0001:00048c70       strncpy_s                  0000000180049c70 f   libucrt:strncpy_s.obj
 0001:00048d44       __acrt_initialize_locks    0000000180049d44 f   libucrt:locks.obj
 0001:00048d8c       __acrt_lock                0000000180049d8c f   libucrt:locks.obj
 0001:00048da8       __acrt_uninitialize_locks  0000000180049da8 f   libucrt:locks.obj
 0001:00048de0       __acrt_unlock              0000000180049de0 f   libucrt:locks.obj
 0001:00048e88       _commit                    0000000180049e88 f   libucrt:commit.obj
 0001:00049788       _write                     000000018004a788 f   libucrt:write.obj
 0001:00049874       _write_nolock              000000018004a874 f   libucrt:write.obj
 0001:00049d94       __acrt_stdio_flush_and_write_narrow_nolock 000000018004ad94 f   libucrt:_flsbuf.obj
 0001:00049e80       __acrt_stdio_flush_and_write_wide_nolock 000000018004ae80 f   libucrt:_flsbuf.obj
 0001:00049f80       ??$__acrt_mbs_to_wcs_cp@U__crt_win32_buffer_internal_dynamic_resizing@@@@YAHQEBDAEAV?$__crt_win32_buffer@_WU__crt_win32_buffer_internal_dynamic_resizing@@@@I@Z 000000018004af80 f i libucrt:argv_wildcards.obj
 0001:0004a0f8       ??$__acrt_wcs_to_mbs_cp@U__crt_win32_buffer_internal_dynamic_resizing@@@@YAHQEB_WAEAV?$__crt_win32_buffer@DU__crt_win32_buffer_internal_dynamic_resizing@@@@I@Z 000000018004b0f8 f i libucrt:argv_wildcards.obj
 0001:0004a928       __acrt_expand_narrow_argv_wildcards 000000018004b928 f   libucrt:argv_wildcards.obj
 0001:0004b05c       __acrt_initialize_multibyte 000000018004c05c f   libucrt:mbctype.obj
 0001:0004b0bc       __acrt_update_thread_multibyte_data 000000018004c0bc f   libucrt:mbctype.obj
 0001:0004b0d8       _setmbcp_nolock            000000018004c0d8 f   libucrt:mbctype.obj
 0001:0004b40c       _ismbblead                 000000018004c40c f   libucrt:ismbbyte.obj
 0001:0004b420       __acrt_initialize_command_line 000000018004c420 f   libucrt:argv_data.obj
 0001:0004b448       __acrt_MultiByteToWideChar 000000018004c448 f   libucrt:multibytetowidechar.obj
 0001:0004b4a4       __acrt_WideCharToMultiByte 000000018004c4a4 f   libucrt:widechartomultibyte.obj
 0001:0004b53c       __dcrt_get_narrow_environment_from_os 000000018004c53c f   libucrt:get_environment_from_os.obj
 0001:0004b640       _recalloc_base             000000018004c640 f   libucrt:recalloc.obj
 0001:0004b6d8       __acrt_initialize_heap     000000018004c6d8 f   libucrt:heap_handle.obj
 0001:0004b6f4       __acrt_uninitialize_heap   000000018004c6f4 f   libucrt:heap_handle.obj
 0001:0004b700       __acrt_execute_initializers 000000018004c700 f   libucrt:shared_initialization.obj
 0001:0004b780       __acrt_execute_uninitializers 000000018004c780 f   libucrt:shared_initialization.obj
 0001:0004b7bc       __acrt_has_user_matherr    000000018004c7bc f   libucrt:matherr.obj
 0001:0004b7dc       __acrt_initialize_user_matherr 000000018004c7dc f   libucrt:matherr.obj
 0001:0004b7e4       __acrt_invoke_user_matherr 000000018004c7e4 f   libucrt:matherr.obj
 0001:0004b814       __pctype_func              000000018004c814 f   libucrt:ctype.obj
 0001:0004b844       iswctype                   000000018004c844 f   libucrt:iswctype.obj
 0001:0004b8b4       _isctype_l                 000000018004c8b4 f   libucrt:isctype.obj
 0001:0004b9c4       __acrt_add_locale_ref      000000018004c9c4 f   libucrt:locale_refcounting.obj
 0001:0004ba50       __acrt_free_locale         000000018004ca50 f   libucrt:locale_refcounting.obj
 0001:0004bbc8       __acrt_locale_add_lc_time_reference 000000018004cbc8 f   libucrt:locale_refcounting.obj
 0001:0004bbf0       __acrt_locale_free_lc_time_if_unreferenced 000000018004cbf0 f   libucrt:locale_refcounting.obj
 0001:0004bc28       __acrt_locale_release_lc_time_reference 000000018004cc28 f   libucrt:locale_refcounting.obj
 0001:0004bc50       __acrt_release_locale_ref  000000018004cc50 f   libucrt:locale_refcounting.obj
 0001:0004bcf8       __acrt_update_thread_locale_data 000000018004ccf8 f   libucrt:locale_refcounting.obj
 0001:0004bd68       _updatetlocinfoEx_nolock   000000018004cd68 f   libucrt:locale_refcounting.obj
 0001:0004bdd0       _query_new_mode            000000018004cdd0 f   libucrt:new_mode.obj
 0001:0004bdd8       _isleadbyte_l              000000018004cdd8 f i libucrt:_wctype.obj
 0001:0004c13c       __acrt_LCMapStringA        000000018004d13c f   libucrt:lcmapstringa.obj
 0001:0004c1d4       __acrt_locale_free_monetary 000000018004d1d4 f   libucrt:initmon.obj
 0001:0004c2e0       __acrt_locale_free_numeric 000000018004d2e0 f   libucrt:initnum.obj
 0001:0004c3a4       __acrt_locale_free_time    000000018004d3a4 f   libucrt:inittime.obj
 0001:0004c4ac       __acrt_GetStringTypeA      000000018004d4ac f   libucrt:getstringtypea.obj
 0001:0004c63c       ?__mbrtowc_utf8@__crt_mbstring@@YA_KPEA_WPEBD_KPEAU_Mbstatet@@@Z 000000018004d63c f   libucrt:mbrtowc.obj
 0001:0004c678       ?__mbsrtowcs_utf8@__crt_mbstring@@YA_KPEA_WPEAPEBD_KPEAU_Mbstatet@@@Z 000000018004d678 f   libucrt:mbrtowc.obj
 0001:0004c7f0       ?__c32rtomb_utf8@__crt_mbstring@@YA_KPEAD_UPEAU_Mbstatet@@@Z 000000018004d7f0 f   libucrt:c32rtomb.obj
 0001:0004c8a8       __acrt_fp_strflt_to_string 000000018004d8a8 f   libucrt:_fptostr.obj
 0001:0004c990       ?divide@__crt_strtox@@YA_KAEAUbig_integer@1@AEBU21@@Z 000000018004d990 f i libucrt:cfout.obj
 0001:0004cdbc       __acrt_fltout              000000018004ddbc f   libucrt:cfout.obj
 0001:0004e078       _isatty                    000000018004f078 f   libucrt:isatty.obj
 0001:0004e0d8       __acrt_lowio_create_handle_array 000000018004f0d8 f   libucrt:osfinfo.obj
 0001:0004e180       __acrt_lowio_destroy_handle_array 000000018004f180 f   libucrt:osfinfo.obj
 0001:0004e1d0       __acrt_lowio_ensure_fh_exists 000000018004f1d0 f   libucrt:osfinfo.obj
 0001:0004e278       __acrt_lowio_lock_fh       000000018004f278 f   libucrt:osfinfo.obj
 0001:0004e2a0       __acrt_lowio_set_os_handle 000000018004f2a0 f   libucrt:osfinfo.obj
 0001:0004e360       __acrt_lowio_unlock_fh     000000018004f360 f   libucrt:osfinfo.obj
 0001:0004e388       _alloc_osfhnd              000000018004f388 f   libucrt:osfinfo.obj
 0001:0004e4c8       _free_osfhnd               000000018004f4c8 f   libucrt:osfinfo.obj
 0001:0004e584       _get_osfhandle             000000018004f584 f   libucrt:osfinfo.obj
 0001:0004e6e4       __acrt_DownlevelLocaleNameToLCID 000000018004f6e4 f   libucrt:lcidtoname_downlevel.obj
 0001:0004e718       __ascii_strnicmp           000000018004f718 f   libucrt:strnicmp.obj
 0001:0004e774       _strnicmp                  000000018004f774 f   libucrt:strnicmp.obj
 0001:0004e7c4       _strnicmp_l                000000018004f7c4 f   libucrt:strnicmp.obj
 0001:0004eec8       _sopen_nolock              000000018004fec8 f   libucrt:open.obj
 0001:0004efe0       _sopen_s                   000000018004ffe0 f   libucrt:open.obj
 0001:0004f014       _wsopen_nolock             0000000180050014 f   libucrt:open.obj
 0001:0004f588       _lseeki64                  0000000180050588 f   libucrt:lseek.obj
 0001:0004f590       _lseeki64_nolock           0000000180050590 f   libucrt:lseek.obj
 0001:0004f598       _putwch_nolock             0000000180050598 f   libucrt:putwch.obj
 0001:0004fba8       _read_nolock               0000000180050ba8 f   libucrt:read.obj
 0001:00050000       __acrt_stdio_allocate_buffer_nolock 0000000180051000 f   libucrt:_getbuf.obj
 0001:00050070       qsort                      0000000180051070 f   libucrt:qsort.obj
 0001:000504d0       strpbrk                    00000001800514d0 f   libucrt:strpbrk.obj
 0001:000508b0       _mbsdec                    00000001800518b0 f   libucrt:mbsdec.obj
 0001:000508b8       _mbsdec_l                  00000001800518b8 f   libucrt:mbsdec.obj
 0001:00050964       _msize_base                0000000180051964 f   libucrt:msize.obj
 0001:000509a0       _realloc_base              00000001800519a0 f   libucrt:realloc_base.obj
 0001:00050a1c       __acrt_GetStringTypeW      0000000180051a1c f   libucrt:getstringtypew.obj
 0001:00050a24       __strncnt                  0000000180051a24 f   libucrt:strncnt.obj
 0001:00050a3c       ?__mbrtoc32_utf8@__crt_mbstring@@YA_KPEA_UPEBD_KPEAU_Mbstatet@@@Z 0000000180051a3c f   libucrt:mbrtoc32.obj
 0001:00050c18       fegetenv                   0000000180051c18 f   libucrt:fegetenv.obj
 0001:00050c38       fesetenv                   0000000180051c38 f   libucrt:fesetenv.obj
 0001:00050c88       feholdexcept               0000000180051c88 f   libucrt:feholdexcept.obj
 0001:00050cd8       ceil                       0000000180051cd8 f   libucrt:ceil.obj
 0001:00050da0       log10                      0000000180051da0 f   libucrt:log10.obj
 0001:0005134c       _get_fmode                 000000018005234c f   libucrt:setmode.obj
 0001:0005137c       _setmode_nolock            000000018005237c f   libucrt:setmode.obj
 0001:0005145c       _chsize_nolock             000000018005245c f   libucrt:chsize.obj
 0001:000515c8       __dcrt_lowio_ensure_console_output_initialized 00000001800525c8 f   libucrt:initcon.obj
 0001:0005161c       __dcrt_terminate_console_output 000000018005261c f   libucrt:initcon.obj
 0001:00051638       __dcrt_write_console       0000000180052638 f   libucrt:initcon.obj
 0001:000516f8       __acrt_fenv_get_control    00000001800526f8 f   libucrt:_fenvutils.obj
 0001:000517ec       __acrt_fenv_get_status     00000001800527ec f   libucrt:_fenvutils.obj
 0001:00051840       __acrt_fenv_set_control    0000000180052840 f   libucrt:_fenvutils.obj
 0001:00051988       __acrt_fenv_set_status     0000000180052988 f   libucrt:_fenvutils.obj
 0001:00051a0c       _clearfp                   0000000180052a0c f   libucrt:ieee.obj
 0001:00051ba0       _handle_error              0000000180052ba0 f   libucrt:libm_error.obj
 0001:00051cc8       _handle_nan                0000000180052cc8 f   libucrt:libm_error.obj
 0001:00051cf0       __acrt_initialize_fma3     0000000180052cf0 f   libucrt:fma3_available.obj
 0001:00051d60       _log10_special             0000000180052d60 f   libucrt:log_special.obj
 0001:00051e30       _get_fpsr                  0000000180052e30 f   libucrt:fpsr.obj
 0001:00051e40       _set_fpsr                  0000000180052e40 f   libucrt:fpsr.obj
 0001:00051e4a       _fclrf                     0000000180052e4a f   libucrt:fpsr.obj
 0001:00051e5e       _frnd                      0000000180052e5e f   libucrt:fpsr.obj
 0001:00051e80       _raise_exc                 0000000180052e80 f   libucrt:fpexcept.obj
 0001:00051ea8       _raise_exc_ex              0000000180052ea8 f   libucrt:fpexcept.obj
 0001:000521b8       _set_errno_from_matherr    00000001800531b8 f   libucrt:fpexcept.obj
 0001:000521e8       _clrfp                     00000001800531e8 f   libucrt:fpctrl.obj
 0001:00052208       _ctrlfp                    0000000180053208 f   libucrt:fpctrl.obj
 0001:00052284       _set_statfp                0000000180053284 f   libucrt:fpctrl.obj
 0001:000522a4       _statfp                    00000001800532a4 f   libucrt:fpctrl.obj
 0001:000522b5       IsProcessorFeaturePresent  00000001800532b5 f   kernel32:KERNEL32.dll
 0001:000522bc       ?DloadAcquireSectionWriteAccess@@YAXXZ 00000001800532bc f i DelayImp:delayhlp.obj
 0001:00052368       ?DloadGetSRWLockFunctionPointers@@YAEXZ 0000000180053368 f i DelayImp:delayhlp.obj
 0001:00052404       ?DloadMakePermanentImageCommit@@YAXPEAX_K@Z 0000000180053404 f i DelayImp:delayhlp.obj
 0001:0005249c       ?DloadObtainSection@@YAPEAXPEAK0@Z 000000018005349c f i DelayImp:delayhlp.obj
 0001:00052538       ?DloadProtectSection@@YAXKPEAK@Z 0000000180053538 f i DelayImp:delayhlp.obj
 0001:000525c8       ?DloadReleaseSectionWriteAccess@@YAXXZ 00000001800535c8 f i DelayImp:delayhlp.obj
 0001:0005265c       __delayLoadHelper2         000000018005365c f   DelayImp:delayhlp.obj
 0001:00052919       __imp_load_uv_cond_signal  0000000180053919 f   node:node.exe
 0001:00052925       __imp_load_uv_cond_destroy 0000000180053925 f   node:node.exe
 0001:00052931       __imp_load_uv_mutex_unlock 0000000180053931 f   node:node.exe
 0001:0005293d       __imp_load_uv_cond_init    000000018005393d f   node:node.exe
 0001:00052949       __imp_load_uv_once         0000000180053949 f   node:node.exe
 0001:00052955       __imp_load_uv_mutex_lock   0000000180053955 f   node:node.exe
 0001:00052961       __imp_load_uv_cond_wait    0000000180053961 f   node:node.exe
 0001:0005296d       __imp_load_uv_mutex_destroy 000000018005396d f   node:node.exe
 0001:00052979       __imp_load_uv_cond_broadcast 0000000180053979 f   node:node.exe
 0001:00052985       __imp_load_uv_mutex_init   0000000180053985 f   node:node.exe
 0001:00052994       __GSHandlerCheck           0000000180053994 f   LIBCMT:gshandler.obj
 0001:000529b4       __GSHandlerCheckCommon     00000001800539b4 f   LIBCMT:gshandler.obj
 0001:00052a10       _FindPESection             0000000180053a10 f   LIBCMT:pesect.obj
 0001:00052a60       _IsNonwritableInCurrentImage 0000000180053a60 f   LIBCMT:pesect.obj
 0001:00052ab0       _ValidateImageBase         0000000180053ab0 f   LIBCMT:pesect.obj
 0001:00052af0       __chkstk                   0000000180053af0 f   LIBCMT:chkstk.obj
 0001:00052af0       _alloca_probe              0000000180053af0 f   LIBCMT:chkstk.obj
 0001:00052b60       memcmp                     0000000180053b60 f   libvcruntime:memcmp.obj
 0001:00052c28       __GSHandlerCheck_EH        0000000180053c28 f   LIBCMT:gshandlereh.obj
 0001:00052cc0       _guard_dispatch_icall_nop  0000000180053cc0 f   LIBCMT:guard_dispatch.obj
 0002:00000000       __imp_GetModuleHandleA     000000018005c000     kernel32:KERNEL32.dll
 0002:00000008       __imp_LoadLibraryExA       000000018005c008     kernel32:KERNEL32.dll
 0002:00000010       __imp_CreateDirectoryW     000000018005c010     kernel32:KERNEL32.dll
 0002:00000018       __imp_ReadFile             000000018005c018     kernel32:KERNEL32.dll
 0002:00000020       __imp_FindFirstFileW       000000018005c020     kernel32:KERNEL32.dll
 0002:00000028       __imp_GetFileSizeEx        000000018005c028     kernel32:KERNEL32.dll
 0002:00000030       __imp_FindNextFileW        000000018005c030     kernel32:KERNEL32.dll
 0002:00000038       __imp_WriteFile            000000018005c038     kernel32:KERNEL32.dll
 0002:00000040       __imp_RemoveDirectoryW     000000018005c040     kernel32:KERNEL32.dll
 0002:00000048       __imp_GetTempPathW         000000018005c048     kernel32:KERNEL32.dll
 0002:00000050       __imp_FindClose            000000018005c050     kernel32:KERNEL32.dll
 0002:00000058       __imp_CreateFileW          000000018005c058     kernel32:KERNEL32.dll
 0002:00000060       __imp_MultiByteToWideChar  000000018005c060     kernel32:KERNEL32.dll
 0002:00000068       __imp_Sleep                000000018005c068     kernel32:KERNEL32.dll
 0002:00000070       __imp_GetLastError         000000018005c070     kernel32:KERNEL32.dll
 0002:00000078       __imp_GetFileAttributesExW 000000018005c078     kernel32:KERNEL32.dll
 0002:00000080       __imp_QueryPerformanceFrequency 000000018005c080     kernel32:KERNEL32.dll
 0002:00000088       __imp_DeleteFileW          000000018005c088     kernel32:KERNEL32.dll
 0002:00000090       __imp_CloseHandle          000000018005c090     kernel32:KERNEL32.dll
 0002:00000098       __imp_SetFilePointerEx     000000018005c098     kernel32:KERNEL32.dll
 0002:000000a0       __imp_LocalFree            000000018005c0a0     kernel32:KERNEL32.dll
 0002:000000a8       __imp_MoveFileExW          000000018005c0a8     kernel32:KERNEL32.dll
 0002:000000b0       __imp_WideCharToMultiByte  000000018005c0b0     kernel32:KERNEL32.dll
 0002:000000b8       __imp_FormatMessageA       000000018005c0b8     kernel32:KERNEL32.dll
 0002:000000c0       __imp_QueryPerformanceCounter 000000018005c0c0     kernel32:KERNEL32.dll
 0002:000000c8       __imp_FlushFileBuffers     000000018005c0c8     kernel32:KERNEL32.dll
 0002:000000d0       __imp_GetCurrentThreadId   000000018005c0d0     kernel32:KERNEL32.dll
 0002:000000d8       __imp_GetLocalTime         000000018005c0d8     kernel32:KERNEL32.dll
 0002:000000e0       __imp_EnterCriticalSection 000000018005c0e0     kernel32:KERNEL32.dll
 0002:000000e8       __imp_LeaveCriticalSection 000000018005c0e8     kernel32:KERNEL32.dll
 0002:000000f0       __imp_InitializeCriticalSectionAndSpinCount 000000018005c0f0     kernel32:KERNEL32.dll
 0002:000000f8       __imp_DeleteCriticalSection 000000018005c0f8     kernel32:KERNEL32.dll
 0002:00000100       __imp_SetEvent             000000018005c100     kernel32:KERNEL32.dll
 0002:00000108       __imp_ResetEvent           000000018005c108     kernel32:KERNEL32.dll
 0002:00000110       __imp_WaitForSingleObjectEx 000000018005c110     kernel32:KERNEL32.dll
 0002:00000118       __imp_CreateEventW         000000018005c118     kernel32:KERNEL32.dll
 0002:00000120       __imp_GetModuleHandleW     000000018005c120     kernel32:KERNEL32.dll
 0002:00000128       __imp_GetProcAddress       000000018005c128     kernel32:KERNEL32.dll
 0002:00000130       __imp_RtlCaptureContext    000000018005c130     kernel32:KERNEL32.dll
 0002:00000138       __imp_RtlLookupFunctionEntry 000000018005c138     kernel32:KERNEL32.dll
 0002:00000140       __imp_RtlVirtualUnwind     000000018005c140     kernel32:KERNEL32.dll
 0002:00000148       __imp_UnhandledExceptionFilter 000000018005c148     kernel32:KERNEL32.dll
 0002:00000150       __imp_SetUnhandledExceptionFilter 000000018005c150     kernel32:KERNEL32.dll
 0002:00000158       __imp_GetCurrentProcess    000000018005c158     kernel32:KERNEL32.dll
 0002:00000160       __imp_TerminateProcess     000000018005c160     kernel32:KERNEL32.dll
 0002:00000168       __imp_IsProcessorFeaturePresent 000000018005c168     kernel32:KERNEL32.dll
 0002:00000170       __imp_IsDebuggerPresent    000000018005c170     kernel32:KERNEL32.dll
 0002:00000178       __imp_GetStartupInfoW      000000018005c178     kernel32:KERNEL32.dll
 0002:00000180       __imp_GetCurrentProcessId  000000018005c180     kernel32:KERNEL32.dll
 0002:00000188       __imp_GetSystemTimeAsFileTime 000000018005c188     kernel32:KERNEL32.dll
 0002:00000190       __imp_InitializeSListHead  000000018005c190     kernel32:KERNEL32.dll
 0002:00000198       __imp_RtlUnwindEx          000000018005c198     kernel32:KERNEL32.dll
 0002:000001a0       __imp_RtlPcToFileHeader    000000018005c1a0     kernel32:KERNEL32.dll
 0002:000001a8       __imp_RaiseException       000000018005c1a8     kernel32:KERNEL32.dll
 0002:000001b0       __imp_InterlockedFlushSList 000000018005c1b0     kernel32:KERNEL32.dll
 0002:000001b8       __imp_SetLastError         000000018005c1b8     kernel32:KERNEL32.dll
 0002:000001c0       __imp_EncodePointer        000000018005c1c0     kernel32:KERNEL32.dll
 0002:000001c8       __imp_TlsAlloc             000000018005c1c8     kernel32:KERNEL32.dll
 0002:000001d0       __imp_TlsGetValue          000000018005c1d0     kernel32:KERNEL32.dll
 0002:000001d8       __imp_TlsSetValue          000000018005c1d8     kernel32:KERNEL32.dll
 0002:000001e0       __imp_TlsFree              000000018005c1e0     kernel32:KERNEL32.dll
 0002:000001e8       __imp_FreeLibrary          000000018005c1e8     kernel32:KERNEL32.dll
 0002:000001f0       __imp_LoadLibraryExW       000000018005c1f0     kernel32:KERNEL32.dll
 0002:000001f8       __imp_GetStdHandle         000000018005c1f8     kernel32:KERNEL32.dll
 0002:00000200       __imp_GetFileType          000000018005c200     kernel32:KERNEL32.dll
 0002:00000208       __imp_GetModuleFileNameW   000000018005c208     kernel32:KERNEL32.dll
 0002:00000210       __imp_GetModuleHandleExW   000000018005c210     kernel32:KERNEL32.dll
 0002:00000218       __imp_WriteConsoleW        000000018005c218     kernel32:KERNEL32.dll
 0002:00000220       __imp_CreateThread         000000018005c220     kernel32:KERNEL32.dll
 0002:00000228       __imp_ExitThread           000000018005c228     kernel32:KERNEL32.dll
 0002:00000230       __imp_FreeLibraryAndExitThread 000000018005c230     kernel32:KERNEL32.dll
 0002:00000238       __imp_ExitProcess          000000018005c238     kernel32:KERNEL32.dll
 0002:00000240       __imp_OutputDebugStringW   000000018005c240     kernel32:KERNEL32.dll
 0002:00000248       __imp_HeapFree             000000018005c248     kernel32:KERNEL32.dll
 0002:00000250       __imp_HeapAlloc            000000018005c250     kernel32:KERNEL32.dll
 0002:00000258       __imp_LCMapStringW         000000018005c258     kernel32:KERNEL32.dll
 0002:00000260       __imp_GetConsoleCP         000000018005c260     kernel32:KERNEL32.dll
 0002:00000268       __imp_GetConsoleMode       000000018005c268     kernel32:KERNEL32.dll
 0002:00000270       __imp_FindFirstFileExW     000000018005c270     kernel32:KERNEL32.dll
 0002:00000278       __imp_IsValidCodePage      000000018005c278     kernel32:KERNEL32.dll
 0002:00000280       __imp_GetACP               000000018005c280     kernel32:KERNEL32.dll
 0002:00000288       __imp_GetOEMCP             000000018005c288     kernel32:KERNEL32.dll
 0002:00000290       __imp_GetCPInfo            000000018005c290     kernel32:KERNEL32.dll
 0002:00000298       __imp_GetCommandLineA      000000018005c298     kernel32:KERNEL32.dll
 0002:000002a0       __imp_GetCommandLineW      000000018005c2a0     kernel32:KERNEL32.dll
 0002:000002a8       __imp_GetEnvironmentStringsW 000000018005c2a8     kernel32:KERNEL32.dll
 0002:000002b0       __imp_FreeEnvironmentStringsW 000000018005c2b0     kernel32:KERNEL32.dll
 0002:000002b8       __imp_GetProcessHeap       000000018005c2b8     kernel32:KERNEL32.dll
 0002:000002c0       __imp_GetStringTypeW       000000018005c2c0     kernel32:KERNEL32.dll
 0002:000002c8       __imp_SetStdHandle         000000018005c2c8     kernel32:KERNEL32.dll
 0002:000002d0       __imp_ReadConsoleW         000000018005c2d0     kernel32:KERNEL32.dll
 0002:000002d8       __imp_HeapSize             000000018005c2d8     kernel32:KERNEL32.dll
 0002:000002e0       __imp_HeapReAlloc          000000018005c2e0     kernel32:KERNEL32.dll
 0002:000002e8       __imp_SetEndOfFile         000000018005c2e8     kernel32:KERNEL32.dll
 0002:000002f0       __imp_GetSystemInfo        000000018005c2f0     kernel32:KERNEL32.dll
 0002:000002f8       __imp_VirtualProtect       000000018005c2f8     kernel32:KERNEL32.dll
 0002:00000300       __imp_VirtualQuery         000000018005c300     kernel32:KERNEL32.dll
 0002:00000308       \177KERNEL32_NULL_THUNK_DATA 000000018005c308     kernel32:KERNEL32.dll
 0002:00000310       __guard_check_icall_fptr   000000018005c310     LIBCMT:guard_support.obj
 0002:00000318       __guard_dispatch_icall_fptr 000000018005c318     LIBCMT:guard_support.obj
 0002:00000320       __xc_a                     000000018005c320     LIBCMT:initializers.obj
 0002:00000328       _register_leveldown_       000000018005c328     leveldown.obj
 0002:00000350       __xc_z                     000000018005c350     LIBCMT:initializers.obj
 0002:00000358       __xi_a                     000000018005c358     LIBCMT:initializers.obj
 0002:00000368       __acrt_stdio_initializer   000000018005c368     libucrt:stdio_initializer.obj
 0002:00000370       __acrt_multibyte_initializer 000000018005c370     libucrt:multibyte_initializer.obj
 0002:00000378       __acrt_tran_fma3_initializer 000000018005c378     libucrt:fma3_initializer.obj
 0002:00000380       __xi_z                     000000018005c380     LIBCMT:initializers.obj
 0002:00000388       __xl_a                     000000018005c388     LIBCMT:tlssup.obj
 0002:00000390       __xl_z                     000000018005c390     LIBCMT:tlssup.obj
 0002:00000398       __xp_a                     000000018005c398     LIBCMT:initializers.obj
 0002:000003a0       __acrt_locale_terminator   000000018005c3a0     libucrt:locale_initializer.obj
 0002:000003a8       __dcrt_console_output_terminator 000000018005c3a8     libucrt:console_output_initializer.obj
 0002:000003b0       __acrt_stdio_terminator    000000018005c3b0     libucrt:stdio_initializer.obj
 0002:000003b8       __xp_z                     000000018005c3b8     LIBCMT:initializers.obj
 0002:000003c0       __xt_a                     000000018005c3c0     LIBCMT:initializers.obj
 0002:000003c8       __xt_z                     000000018005c3c8     LIBCMT:initializers.obj
 0002:000003d0       __sz_node_exe              000000018005c3d0     node:node.exe
 0002:000003e8       ??_7exception@std@@6B@     000000018005c3e8     libcpmt:xthrow.obj
 0002:000003f8       ??_C@_0BC@EOODALEL@Unknown?5exception@ 000000018005c3f8     libcpmt:xthrow.obj
 0002:00000418       ??_7bad_alloc@std@@6B@     000000018005c418     libcpmt:xthrow.obj
 0002:00000428       ??_C@_0P@GHFPNOJB@bad?5allocation@ 000000018005c428     libcpmt:xthrow.obj
 0002:00000440       ??_7logic_error@std@@6B@   000000018005c440     libcpmt:xthrow.obj
 0002:00000458       ??_7length_error@std@@6B@  000000018005c458     libcpmt:xthrow.obj
 0002:00000468       _pRawDllMain               000000018005c468     LIBCMT:dll_dllmain.obj
 0002:00000468       _pDefaultRawDllMain        000000018005c468     LIBCMT:dll_dllmain.obj
 0002:000004a0       ??_C@_1EC@JIJBPKFM@?$AAa?$AAp?$AAi?$AA?9?$AAm?$AAs?$AA?9?$AAw?$AAi?$AAn?$AA?9?$AAc?$AAo?$AAr?$AAe@ 000000018005c4a0     LIBCMT:thread_safe_statics.obj
 0002:000004e8       ??_C@_1BK@MGMFAEKH@?$AAk?$AAe?$AAr?$AAn?$AAe?$AAl?$AA3?$AA2?$AA?4?$AAd?$AAl?$AAl@ 000000018005c4e8     LIBCMT:thread_safe_statics.obj
 0002:00000508       ??_C@_0BM@HLJJNPAH@InitializeConditionVariable@ 000000018005c508     LIBCMT:thread_safe_statics.obj
 0002:00000528       ??_C@_0BJ@JEBJOJFJ@SleepConditionVariableCS@ 000000018005c528     LIBCMT:thread_safe_statics.obj
 0002:00000548       ??_C@_0BJ@PGPPEPCC@WakeAllConditionVariable@ 000000018005c548     LIBCMT:thread_safe_statics.obj
 0002:00000570       ??_7type_info@@6B@         000000018005c570     LIBCMT:std_type_info_static.obj
 0002:00000590       ??_7bad_array_new_length@std@@6B@ 000000018005c590     LIBCMT:throw_bad_alloc.obj
 0002:000005a0       ??_C@_0BF@KINCDENJ@bad?5array?5new?5length@ 000000018005c5a0     LIBCMT:throw_bad_alloc.obj
 0002:000006a0       _pDestructExceptionObject  000000018005c6a0     libvcruntime:ehhelpers.obj
 0002:000006b0       ??_7bad_exception@std@@6B@ 000000018005c6b0     libvcruntime:frame.obj
 0002:000006c0       ??_C@_0O@DPKOEFFH@bad?5exception@ 000000018005c6c0     libvcruntime:frame.obj
 0002:000006e8       ??_C@_1DM@KHCHBNEB@?$AAa?$AAp?$AAi?$AA?9?$AAm?$AAs?$AA?9?$AAw?$AAi?$AAn?$AA?9?$AAc?$AAo?$AAr?$AAe@ 000000018005c6e8     libvcruntime:winapi_downlevel.obj
 0002:00000728       ??_C@_1DK@LPPGFMPP@?$AAa?$AAp?$AAi?$AA?9?$AAm?$AAs?$AA?9?$AAw?$AAi?$AAn?$AA?9?$AAc?$AAo?$AAr?$AAe@ 000000018005c728     libvcruntime:winapi_downlevel.obj
 0002:00000768       ??_C@_1BC@GDMECMAK@?$AAk?$AAe?$AAr?$AAn?$AAe?$AAl?$AA3?$AA2@ 000000018005c768     libvcruntime:winapi_downlevel.obj
 0002:00000780       ??_C@_1BA@PFFKHIOG@?$AAa?$AAp?$AAi?$AA?9?$AAm?$AAs?$AA?9@ 000000018005c780     libvcruntime:winapi_downlevel.obj
 0002:00000790       ??_C@_1BA@IAIFMGEF@?$AAe?$AAx?$AAt?$AA?9?$AAm?$AAs?$AA?9@ 000000018005c790     libvcruntime:winapi_downlevel.obj
 0002:000007a8       ??_C@_08KNHFBNJ@FlsAlloc@  000000018005c7a8     libvcruntime:winapi_downlevel.obj
 0002:000007c0       ??_C@_07PEJMOBNF@FlsFree@  000000018005c7c0     libvcruntime:winapi_downlevel.obj
 0002:000007d0       ??_C@_0M@GDNOONDI@FlsGetValue@ 000000018005c7d0     libvcruntime:winapi_downlevel.obj
 0002:000007e8       ??_C@_0M@JCPCPOEF@FlsSetValue@ 000000018005c7e8     libvcruntime:winapi_downlevel.obj
 0002:00000800       ??_C@_0BM@HCFOFFN@InitializeCriticalSectionEx@ 000000018005c800     libvcruntime:winapi_downlevel.obj
 0002:00000b58       ??_C@_08EHJDFFNH@__based?$CI@ 000000018005cb58     libvcruntime:undname.obj
 0002:00000b68       ??_C@_07KOLFKCDI@__cdecl@  000000018005cb68     libvcruntime:undname.obj
 0002:00000b70       ??_C@_08GHMPAG@__pascal@   000000018005cb70     libvcruntime:undname.obj
 0002:00000b80       ??_C@_09IFJBGAPI@__stdcall@ 000000018005cb80     libvcruntime:undname.obj
 0002:00000b90       ??_C@_0L@NPHFGOKO@__thiscall@ 000000018005cb90     libvcruntime:undname.obj
 0002:00000ba0       ??_C@_0L@JMKHOMEK@__fastcall@ 000000018005cba0     libvcruntime:undname.obj
 0002:00000bb0       ??_C@_0N@BCKKPABJ@__vectorcall@ 000000018005cbb0     libvcruntime:undname.obj
 0002:00000bc0       ??_C@_09HIJEGCPM@__clrcall@ 000000018005cbc0     libvcruntime:undname.obj
 0002:00000bcc       ??_C@_06GHPCKEAG@__eabi@   000000018005cbcc     libvcruntime:undname.obj
 0002:00000bd8       ??_C@_09IOPIDJLG@__swift_1@ 000000018005cbd8     libvcruntime:undname.obj
 0002:00000be8       ??_C@_09KFNFGKHF@__swift_2@ 000000018005cbe8     libvcruntime:undname.obj
 0002:00000bf8       ??_C@_07JOMMBBKO@__ptr64@  000000018005cbf8     libvcruntime:undname.obj
 0002:00000c00       ??_C@_0L@PILCLIHE@__restrict@ 000000018005cc00     libvcruntime:undname.obj
 0002:00000c10       ??_C@_0M@GFIIJFMG@__unaligned@ 000000018005cc10     libvcruntime:undname.obj
 0002:00000c20       ??_C@_09DHDLOLLB@restrict?$CI@ 000000018005cc20     libvcruntime:undname.obj
 0002:00000c2c       ??_C@_04NIHEBCM@?5new@     000000018005cc2c     libvcruntime:undname.obj
 0002:00000c38       ??_C@_07FPCDHGMM@?5delete@ 000000018005cc38     libvcruntime:undname.obj
 0002:00000c40       ??_C@_01NEMOKFLO@?$DN@     000000018005cc40     libvcruntime:undname.obj
 0002:00000c44       ??_C@_02GPIOPFAK@?$DO?$DO@ 000000018005cc44     libvcruntime:undname.obj
 0002:00000c48       ??_C@_02FODMEDOG@?$DM?$DM@ 000000018005cc48     libvcruntime:undname.obj
 0002:00000c4c       ??_C@_01DCLJPIOD@?$CB@     000000018005cc4c     libvcruntime:undname.obj
 0002:00000c50       ??_C@_02EGOFBIJA@?$DN?$DN@ 000000018005cc50     libvcruntime:undname.obj
 0002:00000c54       ??_C@_02FDNJECIE@?$CB?$DN@ 000000018005cc54     libvcruntime:undname.obj
 0002:00000c58       ??_C@_02GPECMEKF@?$FL?$FN@ 000000018005cc58     libvcruntime:undname.obj
 0002:00000c60       ??_C@_08LHJFAFGD@operator@ 000000018005cc60     libvcruntime:undname.obj
 0002:00000c6c       ??_C@_02HBOOOICD@?9?$DO@   000000018005cc6c     libvcruntime:undname.obj
 0002:00000c70       ??_C@_01NBENCBCI@?$CK@     000000018005cc70     libvcruntime:undname.obj
 0002:00000c74       ??_C@_02ECNGHCIF@?$CL?$CL@ 000000018005cc74     libvcruntime:undname.obj
 0002:00000c78       ??_C@_02BAABKJLB@?9?9@     000000018005cc78     libvcruntime:undname.obj
 0002:00000c7c       ??_C@_01JOAMLHOP@?9@       000000018005cc7c     libvcruntime:undname.obj
 0002:00000c80       ??_C@_01MIFGBAGJ@?$CL@     000000018005cc80     libvcruntime:undname.obj
 0002:00000c84       ??_C@_01HNPIGOCE@?$CG@     000000018005cc84     libvcruntime:undname.obj
 0002:00000c88       ??_C@_03MNHNFDLC@?9?$DO?$CK@ 000000018005cc88     libvcruntime:undname.obj
 0002:00000c8c       ??_C@_01FGNFDNOH@?$CF@     000000018005cc8c     libvcruntime:undname.obj
 0002:00000c90       ??_C@_01MNNFJEPP@?$DM@     000000018005cc90     libvcruntime:undname.obj
 0002:00000c94       ??_C@_02EHCHHCKH@?$DM?$DN@ 000000018005cc94     libvcruntime:undname.obj
 0002:00000c98       ??_C@_01PPODPGHN@?$DO@     000000018005cc98     libvcruntime:undname.obj
 0002:00000c9c       ??_C@_02EEKDKGMJ@?$DO?$DN@ 000000018005cc9c     libvcruntime:undname.obj
 0002:00000ca0       ??_C@_01IHBHIGKO@?0@       000000018005cca0     libvcruntime:undname.obj
 0002:00000ca4       ??_C@_02HCKGKOFO@?$CI?$CJ@ 000000018005cca4     libvcruntime:undname.obj
 0002:00000ca8       ??_C@_01PJKLJHI@?$HO@      000000018005cca8     libvcruntime:undname.obj
 0002:00000cac       ??_C@_01JKBOJNNK@?$FO@     000000018005ccac     libvcruntime:undname.obj
 0002:00000cb0       ??_C@_01DNKMNLPK@?$HM@     000000018005ccb0     libvcruntime:undname.obj
 0002:00000cb4       ??_C@_02PPKAJPJL@?$CG?$CG@ 000000018005ccb4     libvcruntime:undname.obj
 0002:00000cb8       ??_C@_02NONPIBCD@?$HM?$HM@ 000000018005ccb8     libvcruntime:undname.obj
 0002:00000cbc       ??_C@_02FPIMKNGF@?$CK?$DN@ 000000018005ccbc     libvcruntime:undname.obj
 0002:00000cc0       ??_C@_02FOEOMHFC@?$CL?$DN@ 000000018005ccc0     libvcruntime:undname.obj
 0002:00000cc4       ??_C@_02FKMDLLOA@?9?$DN@   000000018005ccc4     libvcruntime:undname.obj
 0002:00000cc8       ??_C@_02FJEHGPIO@?1?$DN@   000000018005ccc8     libvcruntime:undname.obj
 0002:00000ccc       ??_C@_02FENAOKFI@?$CF?$DN@ 000000018005cccc     libvcruntime:undname.obj
 0002:00000cd0       ??_C@_03IKFCCPFF@?$DO?$DO?$DN@ 000000018005ccd0     libvcruntime:undname.obj
 0002:00000cd4       ??_C@_03CDNPDDLA@?$DM?$DM?$DN@ 000000018005ccd4     libvcruntime:undname.obj
 0002:00000cd8       ??_C@_02FGJGFEAB@?$CG?$DN@ 000000018005ccd8     libvcruntime:undname.obj
 0002:00000cdc       ??_C@_02DHLNPPGH@?$HM?$DN@ 000000018005ccdc     libvcruntime:undname.obj
 0002:00000ce0       ??_C@_02MHEGNOJ@?$FO?$DN@  000000018005cce0     libvcruntime:undname.obj
 0002:00000ce8       ??_C@_09IFPLHPGF@?$GAvftable?8@ 000000018005cce8     libvcruntime:undname.obj
 0002:00000cf8       ??_C@_09BLBHBJP@?$GAvbtable?8@ 000000018005ccf8     libvcruntime:undname.obj
 0002:00000d08       ??_C@_07FEEIOKP@?$GAvcall?8@ 000000018005cd08     libvcruntime:undname.obj
 0002:00000d10       ??_C@_08LLFFHHDJ@?$GAtypeof?8@ 000000018005cd10     libvcruntime:undname.obj
 0002:00000d20       ??_C@_0BF@KDPPACIK@?$GAlocal?5static?5guard?8@ 000000018005cd20     libvcruntime:undname.obj
 0002:00000d38       ??_C@_08OBABFOLI@?$GAstring?8@ 000000018005cd38     libvcruntime:undname.obj
 0002:00000d48       ??_C@_0BD@JDLKDPAB@?$GAvbase?5destructor?8@ 000000018005cd48     libvcruntime:undname.obj
 0002:00000d60       ??_C@_0BN@DEGPLNFK@?$GAvector?5deleting?5destructor?8@ 000000018005cd60     libvcruntime:undname.obj
 0002:00000d80       ??_C@_0BO@OBMKPJIG@?$GAdefault?5constructor?5closure?8@ 000000018005cd80     libvcruntime:undname.obj
 0002:00000da0       ??_C@_0BN@IMDCHIKM@?$GAscalar?5deleting?5destructor?8@ 000000018005cda0     libvcruntime:undname.obj
 0002:00000dc0       ??_C@_0BO@PFGOCPJJ@?$GAvector?5constructor?5iterator?8@ 000000018005cdc0     libvcruntime:undname.obj
 0002:00000de0       ??_C@_0BN@LFPFMEDL@?$GAvector?5destructor?5iterator?8@ 000000018005cde0     libvcruntime:undname.obj
 0002:00000e00       ??_C@_0CE@IKBNEHA@?$GAvector?5vbase?5constructor?5itera@ 000000018005ce00     libvcruntime:undname.obj
 0002:00000e28       ??_C@_0BL@NILFHHPC@?$GAvirtual?5displacement?5map?8@ 000000018005ce28     libvcruntime:undname.obj
 0002:00000e48       ??_C@_0CB@JONCMFFK@?$GAeh?5vector?5constructor?5iterator@ 000000018005ce48     libvcruntime:undname.obj
 0002:00000e70       ??_C@_0CA@GCEOPDGL@?$GAeh?5vector?5destructor?5iterator?8@ 000000018005ce70     libvcruntime:undname.obj
 0002:00000e90       ??_C@_0CH@OOJPLCPH@?$GAeh?5vector?5vbase?5constructor?5it@ 000000018005ce90     libvcruntime:undname.obj
 0002:00000eb8       ??_C@_0BL@LLKPOHJI@?$GAcopy?5constructor?5closure?8@ 000000018005ceb8     libvcruntime:undname.obj
 0002:00000ed8       ??_C@_0BA@KBCDOMBN@?$GAudt?5returning?8@ 000000018005ced8     libvcruntime:undname.obj
 0002:00000ee8       ??_C@_03KLGMFNMG@?$GAEH@   000000018005cee8     libvcruntime:undname.obj
 0002:00000eec       ??_C@_05KHLCHHI@?$GARTTI@  000000018005ceec     libvcruntime:undname.obj
 0002:00000ef8       ??_C@_0BA@KKLDJDLB@?$GAlocal?5vftable?8@ 000000018005cef8     libvcruntime:undname.obj
 0002:00000f08       ??_C@_0CE@IIHCMGGL@?$GAlocal?5vftable?5constructor?5clos@ 000000018005cf08     libvcruntime:undname.obj
 0002:00000f2c       ??_C@_06FHBGPFGH@?5new?$FL?$FN@ 000000018005cf2c     libvcruntime:undname.obj
 0002:00000f38       ??_C@_09LBNFPBCA@?5delete?$FL?$FN@ 000000018005cf38     libvcruntime:undname.obj
 0002:00000f48       ??_C@_0P@HJKNJFNN@?$GAomni?5callsig?8@ 000000018005cf48     libvcruntime:undname.obj
 0002:00000f58       ??_C@_0BL@CNOONJFP@?$GAplacement?5delete?5closure?8@ 000000018005cf58     libvcruntime:undname.obj
 0002:00000f78       ??_C@_0BN@CKNJLHMB@?$GAplacement?5delete?$FL?$FN?5closure?8@ 000000018005cf78     libvcruntime:undname.obj
 0002:00000f98       ??_C@_0CG@CFDHKGGD@?$GAmanaged?5vector?5constructor?5ite@ 000000018005cf98     libvcruntime:undname.obj
 0002:00000fc0       ??_C@_0CF@IMGKMJNO@?$GAmanaged?5vector?5destructor?5iter@ 000000018005cfc0     libvcruntime:undname.obj
 0002:00000fe8       ??_C@_0CG@HLDDJMAG@?$GAeh?5vector?5copy?5constructor?5ite@ 000000018005cfe8     libvcruntime:undname.obj
 0002:00001010       ??_C@_0CM@FCBBDIGB@?$GAeh?5vector?5vbase?5copy?5construct@ 000000018005d010     libvcruntime:undname.obj
 0002:00001040       ??_C@_0BL@CLIPGLGB@?$GAdynamic?5initializer?5for?5?8@ 000000018005d040     libvcruntime:undname.obj
 0002:00001060       ??_C@_0CB@PDBIFEP@?$GAdynamic?5atexit?5destructor?5for?5@ 000000018005d060     libvcruntime:undname.obj
 0002:00001088       ??_C@_0CD@CGAJBKEJ@?$GAvector?5copy?5constructor?5iterat@ 000000018005d088     libvcruntime:undname.obj
 0002:000010b0       ??_C@_0CJ@GJELGAMM@?$GAvector?5vbase?5copy?5constructor?5@ 000000018005d0b0     libvcruntime:undname.obj
 0002:000010e0       ??_C@_0CL@FGIJHLCE@?$GAmanaged?5vector?5copy?5constructo@ 000000018005d0e0     libvcruntime:undname.obj
 0002:00001110       ??_C@_0BM@PMGGMLDN@?$GAlocal?5static?5thread?5guard?8@ 000000018005d110     libvcruntime:undname.obj
 0002:00001130       ??_C@_0N@BDNMDMOL@operator?5?$CC?$CC?5@ 000000018005d130     libvcruntime:undname.obj
 0002:00001140       ??_C@_0BC@GGEBGALA@operator?5co_await@ 000000018005d140     libvcruntime:undname.obj
 0002:00001158       ??_C@_0BC@DAFEJGAK@?5Type?5Descriptor?8@ 000000018005d158     libvcruntime:undname.obj
 0002:00001170       ??_C@_0BM@LDKODKLH@?5Base?5Class?5Descriptor?5at?5?$CI@ 000000018005d170     libvcruntime:undname.obj
 0002:00001190       ??_C@_0BD@LGICGFMM@?5Base?5Class?5Array?8@ 000000018005d190     libvcruntime:undname.obj
 0002:000011a8       ??_C@_0BN@MECKDCOJ@?5Class?5Hierarchy?5Descriptor?8@ 000000018005d1a8     libvcruntime:undname.obj
 0002:000011c8       ??_C@_0BK@CFCOFLF@?5Complete?5Object?5Locator?8@ 000000018005d1c8     libvcruntime:undname.obj
 0002:000011f0       ??_C@_1FE@LHBLIKM@?$AAA?$AAs?$AAs?$AAe?$AAr?$AAt?$AAi?$AAo?$AAn?$AA?5?$AAf?$AAa?$AAi?$AAl?$AAe?$AAd?$AA?3?$AA?5?$AA?$CF?$AAT?$AAs?$AA?0?$AA?5?$AAf?$AAi?$AAl?$AAe?$AA?5?$AA?$CF?$AAT?$AAs?$AA?0@ 000000018005d1f0     libucrt:assert.obj
 0002:00001250       ??_C@_1EK@MBDPDCGA@?$AAM?$AAi?$AAc?$AAr?$AAo?$AAs?$AAo?$AAf?$AAt?$AA?5?$AAV?$AAi?$AAs?$AAu?$AAa?$AAl?$AA?5?$AAC?$AA?$CL?$AA?$CL?$AA?5?$AAR?$AAu?$AAn?$AAt?$AAi?$AAm?$AAe?$AA?5?$AAL?$AAi?$AAb@ 000000018005d250     libucrt:assert.obj
 0002:000012a0       ??_C@_1CE@OJBNHDMO@?$AAA?$AAs?$AAs?$AAe?$AAr?$AAt?$AAi?$AAo?$AAn?$AA?5?$AAf?$AAa?$AAi?$AAl?$AAe?$AAd?$AA?$CB?$AA?$AA@ 000000018005d2a0     libucrt:assert.obj
 0002:000012c8       ??_C@_1BE@PHKBBGE@?$AAP?$AAr?$AAo?$AAg?$AAr?$AAa?$AAm?$AA?3?$AA?5?$AA?$AA@ 000000018005d2c8     libucrt:assert.obj
 0002:000012e0       ??_C@_1O@HEMHKNDC@?$AAF?$AAi?$AAl?$AAe?$AA?3?$AA?5?$AA?$AA@ 000000018005d2e0     libucrt:assert.obj
 0002:000012f0       ??_C@_1O@KCAFKHJE@?$AAL?$AAi?$AAn?$AAe?$AA?3?$AA?5?$AA?$AA@ 000000018005d2f0     libucrt:assert.obj
 0002:00001300       ??_C@_1BK@PEDCIPMA@?$AAE?$AAx?$AAp?$AAr?$AAe?$AAs?$AAs?$AAi?$AAo?$AAn?$AA?3?$AA?5?$AA?$AA@ 000000018005d300     libucrt:assert.obj
 0002:00001320       ??_C@_1OA@EGMLFBHJ@?$AAF?$AAo?$AAr?$AA?5?$AAi?$AAn?$AAf?$AAo?$AAr?$AAm?$AAa?$AAt?$AAi?$AAo?$AAn?$AA?5?$AAo?$AAn?$AA?5?$AAh?$AAo?$AAw?$AA?5?$AAy?$AAo?$AAu?$AAr?$AA?5?$AAp?$AAr?$AAo?$AAg@ 000000018005d320     libucrt:assert.obj
 0002:00001400       ??_C@_1HK@POCJMFGK@?$AA?$CI?$AAP?$AAr?$AAe?$AAs?$AAs?$AA?5?$AAR?$AAe?$AAt?$AAr?$AAy?$AA?5?$AAt?$AAo?$AA?5?$AAd?$AAe?$AAb?$AAu?$AAg?$AA?5?$AAt?$AAh?$AAe?$AA?5?$AAa?$AAp?$AAp?$AAl?$AAi?$AAc@ 000000018005d400     libucrt:assert.obj
 0002:00001480       ??_C@_17LGKOMLJ@?$AA?4?$AA?4?$AA?4?$AA?$AA@ 000000018005d480     libucrt:assert.obj
 0002:00001488       ??_C@_13LBAGMAIH@?$AA?6?$AA?$AA@ 000000018005d488     libucrt:assert.obj
 0002:0000148c       ??_C@_15IABLJNFO@?$AA?6?$AA?6?$AA?$AA@ 000000018005d48c     libucrt:assert.obj
 0002:00001498       ??_C@_1CO@EAEJAADC@?$AA?$DM?$AAp?$AAr?$AAo?$AAg?$AAr?$AAa?$AAm?$AA?5?$AAn?$AAa?$AAm?$AAe?$AA?5?$AAu?$AAn?$AAk?$AAn?$AAo?$AAw?$AAn?$AA?$DO?$AA?$AA@ 000000018005d498     libucrt:assert.obj
 0002:000014d0       standard_lookup_table      000000018005d4d0     libucrt:output.obj
 0002:00001530       format_validation_lookup_table 000000018005d530     libucrt:output.obj
 0002:00001590       ??_C@_1O@CEDCILHN@?$AA?$CI?$AAn?$AAu?$AAl?$AAl?$AA?$CJ?$AA?$AA@ 000000018005d590     libucrt:output.obj
 0002:000015a0       ??_C@_06OJHGLDPL@?$CInull?$CJ?$AA@ 000000018005d5a0     libucrt:output.obj
 0002:00001720       ??_C@_0EA@FCLIIPNN@Visual?5C?$CL?$CL?5CRT?3?5Not?5enough?5memor@ 000000018005d720     libucrt:strerror.obj
 0002:00001760       __acrt_exception_action_table 000000018005d760     libucrt:exception_filter.obj
 0002:00001820       __acrt_signal_action_table_count 000000018005d820     libucrt:exception_filter.obj
 0002:00001828       __acrt_signal_action_first_fpe_index 000000018005d828     libucrt:exception_filter.obj
 0002:00001830       __acrt_signal_action_fpe_count 000000018005d830     libucrt:exception_filter.obj
 0002:00001838       ??_C@_1BI@BGOHAHKC@?$AAm?$AAs?$AAc?$AAo?$AAr?$AAe?$AAe?$AA?4?$AAd?$AAl?$AAl?$AA?$AA@ 000000018005d838     libucrt:exit.obj
 0002:00001850       ??_C@_0P@MIGLKIOC@CorExitProcess?$AA@ 000000018005d850     libucrt:exit.obj
 0002:00001960       __lc_time_c                000000018005d960     libucrt:nlsdata.obj
 0002:00001c20       ??_C@_03KOEHGMDN@Sun?$AA@  000000018005dc20     libucrt:nlsdata.obj
 0002:00001c24       ??_C@_03PDAGKDH@Mon?$AA@   000000018005dc24     libucrt:nlsdata.obj
 0002:00001c28       ??_C@_03NAGEINEP@Tue?$AA@  000000018005dc28     libucrt:nlsdata.obj
 0002:00001c2c       ??_C@_03MHOMLAJA@Wed?$AA@  000000018005dc2c     libucrt:nlsdata.obj
 0002:00001c30       ??_C@_03IOFIKPDN@Thu?$AA@  000000018005dc30     libucrt:nlsdata.obj
 0002:00001c34       ??_C@_03IDIOELNC@Fri?$AA@  000000018005dc34     libucrt:nlsdata.obj
 0002:00001c38       ??_C@_03FEFJNEK@Sat?$AA@   000000018005dc38     libucrt:nlsdata.obj
 0002:00001c3c       ??_C@_06OOPIFAJ@Sunday?$AA@ 000000018005dc3c     libucrt:nlsdata.obj
 0002:00001c44       ??_C@_06JLEDEDGH@Monday?$AA@ 000000018005dc44     libucrt:nlsdata.obj
 0002:00001c50       ??_C@_07BAAGCFCM@Tuesday?$AA@ 000000018005dc50     libucrt:nlsdata.obj
 0002:00001c58       ??_C@_09DLIGFAKA@Wednesday?$AA@ 000000018005dc58     libucrt:nlsdata.obj
 0002:00001c68       ??_C@_08HACCIKIA@Thursday?$AA@ 000000018005dc68     libucrt:nlsdata.obj
 0002:00001c74       ??_C@_06JECMNKMI@Friday?$AA@ 000000018005dc74     libucrt:nlsdata.obj
 0002:00001c80       ??_C@_08INBOOONO@Saturday?$AA@ 000000018005dc80     libucrt:nlsdata.obj
 0002:00001c8c       ??_C@_03JIHJHPIE@Jan?$AA@  000000018005dc8c     libucrt:nlsdata.obj
 0002:00001c90       ??_C@_03HJBDCHOM@Feb?$AA@  000000018005dc90     libucrt:nlsdata.obj
 0002:00001c94       ??_C@_03ODNJBKGA@Mar?$AA@  000000018005dc94     libucrt:nlsdata.obj
 0002:00001c98       ??_C@_03LEOLGMJP@Apr?$AA@  000000018005dc98     libucrt:nlsdata.obj
 0002:00001c9c       ??_C@_03CNMDKL@May?$AA@    000000018005dc9c     libucrt:nlsdata.obj
 0002:00001ca0       ??_C@_03IDFGHECI@Jun?$AA@  000000018005dca0     libucrt:nlsdata.obj
 0002:00001ca4       ??_C@_03LBGABGKK@Jul?$AA@  000000018005dca4     libucrt:nlsdata.obj
 0002:00001ca8       ??_C@_03IFJFEIGA@Aug?$AA@  000000018005dca8     libucrt:nlsdata.obj
 0002:00001cac       ??_C@_03GGCAPAJC@Sep?$AA@  000000018005dcac     libucrt:nlsdata.obj
 0002:00001cb0       ??_C@_03BMAOKBAD@Oct?$AA@  000000018005dcb0     libucrt:nlsdata.obj
 0002:00001cb4       ??_C@_03JPJOFNIA@Nov?$AA@  000000018005dcb4     libucrt:nlsdata.obj
 0002:00001cb8       ??_C@_03MKABNOCG@Dec?$AA@  000000018005dcb8     libucrt:nlsdata.obj
 0002:00001cc0       ??_C@_07CGJPFGJA@January?$AA@ 000000018005dcc0     libucrt:nlsdata.obj
 0002:00001cc8       ??_C@_08GNJGEPFN@February?$AA@ 000000018005dcc8     libucrt:nlsdata.obj
 0002:00001cd4       ??_C@_05HPCKOFNC@March?$AA@ 000000018005dcd4     libucrt:nlsdata.obj
 0002:00001cdc       ??_C@_05DMJDNLEJ@April?$AA@ 000000018005dcdc     libucrt:nlsdata.obj
 0002:00001ce4       ??_C@_04CNLMGBGM@June?$AA@ 000000018005dce4     libucrt:nlsdata.obj
 0002:00001cec       ??_C@_04MIEPOIFP@July?$AA@ 000000018005dcec     libucrt:nlsdata.obj
 0002:00001cf4       ??_C@_06LBBHFDDG@August?$AA@ 000000018005dcf4     libucrt:nlsdata.obj
 0002:00001d00       ??_C@_09BHHEALKD@September?$AA@ 000000018005dd00     libucrt:nlsdata.obj
 0002:00001d10       ??_C@_07JJNFCEND@October?$AA@ 000000018005dd10     libucrt:nlsdata.obj
 0002:00001d18       ??_C@_08HCHEGEOA@November?$AA@ 000000018005dd18     libucrt:nlsdata.obj
 0002:00001d28       ??_C@_08EDHMEBNP@December?$AA@ 000000018005dd28     libucrt:nlsdata.obj
 0002:00001d34       ??_C@_02DEDBPAFC@AM?$AA@   000000018005dd34     libucrt:nlsdata.obj
 0002:00001d38       ??_C@_02CJNFDJBF@PM?$AA@   000000018005dd38     libucrt:nlsdata.obj
 0002:00001d40       ??_C@_08BPBNCDIB@MM?1dd?1yy?$AA@ 000000018005dd40     libucrt:nlsdata.obj
 0002:00001d50       ??_C@_0BE@CKGJFCPC@dddd?0?5MMMM?5dd?0?5yyyy?$AA@ 000000018005dd50     libucrt:nlsdata.obj
 0002:00001d68       ??_C@_08JCCMCCIL@HH?3mm?3ss?$AA@ 000000018005dd68     libucrt:nlsdata.obj
 0002:00001d78       ??_C@_17MBGCMIPB@?$AAS?$AAu?$AAn?$AA?$AA@ 000000018005dd78     libucrt:nlsdata.obj
 0002:00001d80       ??_C@_17KBOMKBF@?$AAM?$AAo?$AAn?$AA?$AA@ 000000018005dd80     libucrt:nlsdata.obj
 0002:00001d88       ??_C@_17BMKGEGOJ@?$AAT?$AAu?$AAe?$AA?$AA@ 000000018005dd88     libucrt:nlsdata.obj
 0002:00001d90       ??_C@_17CJEDCEPE@?$AAW?$AAe?$AAd?$AA?$AA@ 000000018005dd90     libucrt:nlsdata.obj
 0002:00001d98       ??_C@_17PDPHAADD@?$AAT?$AAh?$AAu?$AA?$AA@ 000000018005dd98     libucrt:nlsdata.obj
 0002:00001da0       ??_C@_17HFOLPPLP@?$AAF?$AAr?$AAi?$AA?$AA@ 000000018005dda0     libucrt:nlsdata.obj
 0002:00001da8       ??_C@_17GGIBDPIH@?$AAS?$AAa?$AAt?$AA?$AA@ 000000018005dda8     libucrt:nlsdata.obj
 0002:00001db0       ??_C@_1O@IHNHDHPB@?$AAS?$AAu?$AAn?$AAd?$AAa?$AAy?$AA?$AA@ 000000018005ddb0     libucrt:nlsdata.obj
 0002:00001dc0       ??_C@_1O@MMNBFLIA@?$AAM?$AAo?$AAn?$AAd?$AAa?$AAy?$AA?$AA@ 000000018005ddc0     libucrt:nlsdata.obj
 0002:00001dd0       ??_C@_1BA@ENFBFFEK@?$AAT?$AAu?$AAe?$AAs?$AAd?$AAa?$AAy?$AA?$AA@ 000000018005ddd0     libucrt:nlsdata.obj
 0002:00001de0       ??_C@_1BE@EBOGMDOH@?$AAW?$AAe?$AAd?$AAn?$AAe?$AAs?$AAd?$AAa?$AAy?$AA?$AA@ 000000018005dde0     libucrt:nlsdata.obj
 0002:00001df8       ??_C@_1BC@HHMNLIHE@?$AAT?$AAh?$AAu?$AAr?$AAs?$AAd?$AAa?$AAy?$AA?$AA@ 000000018005ddf8     libucrt:nlsdata.obj
 0002:00001e10       ??_C@_1O@PDICJHAG@?$AAF?$AAr?$AAi?$AAd?$AAa?$AAy?$AA?$AA@ 000000018005de10     libucrt:nlsdata.obj
 0002:00001e20       ??_C@_1BC@ENMNNPAJ@?$AAS?$AAa?$AAt?$AAu?$AAr?$AAd?$AAa?$AAy?$AA?$AA@ 000000018005de20     libucrt:nlsdata.obj
 0002:00001e38       ??_C@_17DKNBKCHM@?$AAJ?$AAa?$AAn?$AA?$AA@ 000000018005de38     libucrt:nlsdata.obj
 0002:00001e40       ??_C@_17LMDJEKJN@?$AAF?$AAe?$AAb?$AA?$AA@ 000000018005de40     libucrt:nlsdata.obj
 0002:00001e48       ??_C@_17CKNLEDEC@?$AAM?$AAa?$AAr?$AA?$AA@ 000000018005de48     libucrt:nlsdata.obj
 0002:00001e50       ??_C@_17LFPOIHDD@?$AAA?$AAp?$AAr?$AA?$AA@ 000000018005de50     libucrt:nlsdata.obj
 0002:00001e58       ??_C@_17PNNKMEED@?$AAM?$AAa?$AAy?$AA?$AA@ 000000018005de58     libucrt:nlsdata.obj
 0002:00001e60       ??_C@_17KCJGOCPB@?$AAJ?$AAu?$AAn?$AA?$AA@ 000000018005de60     libucrt:nlsdata.obj
 0002:00001e68       ??_C@_17IJPCKHK@?$AAJ?$AAu?$AAl?$AA?$AA@ 000000018005de68     libucrt:nlsdata.obj
 0002:00001e70       ??_C@_17ICPELBCN@?$AAA?$AAu?$AAg?$AA?$AA@ 000000018005de70     libucrt:nlsdata.obj
 0002:00001e78       ??_C@_17HCHCOKMG@?$AAS?$AAe?$AAp?$AA?$AA@ 000000018005de78     libucrt:nlsdata.obj
 0002:00001e80       ??_C@_17FNLKOI@?$AAO?$AAc?$AAt?$AA?$AA@ 000000018005de80     libucrt:nlsdata.obj
 0002:00001e88       ??_C@_17BBDMLCIG@?$AAN?$AAo?$AAv?$AA?$AA@ 000000018005de88     libucrt:nlsdata.obj
 0002:00001e90       ??_C@_17EGKACKIF@?$AAD?$AAe?$AAc?$AA?$AA@ 000000018005de90     libucrt:nlsdata.obj
 0002:00001e98       ??_C@_1BA@EFMEIEBA@?$AAJ?$AAa?$AAn?$AAu?$AAa?$AAr?$AAy?$AA?$AA@ 000000018005de98     libucrt:nlsdata.obj
 0002:00001ea8       ??_C@_1BC@JGDDFFAM@?$AAF?$AAe?$AAb?$AAr?$AAu?$AAa?$AAr?$AAy?$AA?$AA@ 000000018005dea8     libucrt:nlsdata.obj
 0002:00001ec0       ??_C@_1M@IKEENEDF@?$AAM?$AAa?$AAr?$AAc?$AAh?$AA?$AA@ 000000018005dec0     libucrt:nlsdata.obj
 0002:00001ed0       ??_C@_1M@GJNLMHFD@?$AAA?$AAp?$AAr?$AAi?$AAl?$AA?$AA@ 000000018005ded0     libucrt:nlsdata.obj
 0002:00001ee0       ??_C@_19EPFLPGAP@?$AAJ?$AAu?$AAn?$AAe?$AA?$AA@ 000000018005dee0     libucrt:nlsdata.obj
 0002:00001ef0       ??_C@_19BIFMLPCD@?$AAJ?$AAu?$AAl?$AAy?$AA?$AA@ 000000018005def0     libucrt:nlsdata.obj
 0002:00001f00       ??_C@_1O@PAHLKOAC@?$AAA?$AAu?$AAg?$AAu?$AAs?$AAt?$AA?$AA@ 000000018005df00     libucrt:nlsdata.obj
 0002:00001f10       ??_C@_1BE@DKAAMBJL@?$AAS?$AAe?$AAp?$AAt?$AAe?$AAm?$AAb?$AAe?$AAr?$AA?$AA@ 000000018005df10     libucrt:nlsdata.obj
 0002:00001f28       ??_C@_1BA@EPANDLNG@?$AAO?$AAc?$AAt?$AAo?$AAb?$AAe?$AAr?$AA?$AA@ 000000018005df28     libucrt:nlsdata.obj
 0002:00001f38       ??_C@_1BC@BGLIFPF@?$AAN?$AAo?$AAv?$AAe?$AAm?$AAb?$AAe?$AAr?$AA?$AA@ 000000018005df38     libucrt:nlsdata.obj
 0002:00001f50       ??_C@_1BC@FEMKIFH@?$AAD?$AAe?$AAc?$AAe?$AAm?$AAb?$AAe?$AAr?$AA?$AA@ 000000018005df50     libucrt:nlsdata.obj
 0002:00001f64       ??_C@_15ODEHAHHF@?$AAA?$AAM?$AA?$AA@ 000000018005df64     libucrt:nlsdata.obj
 0002:00001f6c       ??_C@_15CLMNNGEL@?$AAP?$AAM?$AA?$AA@ 000000018005df6c     libucrt:nlsdata.obj
 0002:00001f78       ??_C@_1BC@IEBCMHCM@?$AAM?$AAM?$AA?1?$AAd?$AAd?$AA?1?$AAy?$AAy?$AA?$AA@ 000000018005df78     libucrt:nlsdata.obj
 0002:00001f90       ??_C@_1CI@KNAKOEBC@?$AAd?$AAd?$AAd?$AAd?$AA?0?$AA?5?$AAM?$AAM?$AAM?$AAM?$AA?5?$AAd?$AAd?$AA?0?$AA?5?$AAy?$AAy?$AAy?$AAy?$AA?$AA@ 000000018005df90     libucrt:nlsdata.obj
 0002:00001fb8       ??_C@_1BC@GDGBMEMK@?$AAH?$AAH?$AA?3?$AAm?$AAm?$AA?3?$AAs?$AAs?$AA?$AA@ 000000018005dfb8     libucrt:nlsdata.obj
 0002:00001fd0       ??_C@_1M@BMHNFIME@?$AAe?$AAn?$AA?9?$AAU?$AAS?$AA?$AA@ 000000018005dfd0     libucrt:nlsdata.obj
 0002:00001fdc       ??_C@_03OEIAHPBN@INF?$AA@  000000018005dfdc     libucrt:cvt.obj
 0002:00001fe0       ??_C@_03OJHLLCGB@inf?$AA@  000000018005dfe0     libucrt:cvt.obj
 0002:00001fe4       ??_C@_03LKNCIKJB@NAN?$AA@  000000018005dfe4     libucrt:cvt.obj
 0002:00001fe8       ??_C@_03LHCJEHON@nan?$AA@  000000018005dfe8     libucrt:cvt.obj
 0002:00001ff0       ??_C@_09OFJJIMPC@NAN?$CISNAN?$CJ?$AA@ 000000018005dff0     libucrt:cvt.obj
 0002:00002000       ??_C@_09IPFBKMDL@nan?$CIsnan?$CJ?$AA@ 000000018005e000     libucrt:cvt.obj
 0002:00002010       ??_C@_08IKHNHAJ@NAN?$CIIND?$CJ?$AA@ 000000018005e010     libucrt:cvt.obj
 0002:00002020       ??_C@_08OFCDMILK@nan?$CIind?$CJ?$AA@ 000000018005e020     libucrt:cvt.obj
 0002:0000202c       ??_C@_05KLBDPFGC@e?$CL000?$AA@ 000000018005e02c     libucrt:cvt.obj
 0002:000020e0       ??_C@_1EA@JGEFHKEI@?$AAa?$AAp?$AAi?$AA?9?$AAm?$AAs?$AA?9?$AAw?$AAi?$AAn?$AA?9?$AAc?$AAo?$AAr?$AAe?$AA?9?$AAd?$AAa?$AAt?$AAe?$AAt?$AAi?$AAm?$AAe?$AA?9?$AAl?$AA1?$AA?9?$AA1?$AA?9?$AA1?$AA?$AA@ 000000018005e0e0     libucrt:winapi_thunks.obj
 0002:00002120       ??_C@_1DM@KHCHBNEB@?$AAa?$AAp?$AAi?$AA?9?$AAm?$AAs?$AA?9?$AAw?$AAi?$AAn?$AA?9?$AAc?$AAo?$AAr?$AAe?$AA?9?$AAf?$AAi?$AAb?$AAe?$AAr?$AAs?$AA?9?$AAl?$AA1?$AA?9?$AA1?$AA?9?$AA1?$AA?$AA@ 000000018005e120     libucrt:winapi_thunks.obj
 0002:00002160       ??_C@_1DI@IJCEHOCB@?$AAa?$AAp?$AAi?$AA?9?$AAm?$AAs?$AA?9?$AAw?$AAi?$AAn?$AA?9?$AAc?$AAo?$AAr?$AAe?$AA?9?$AAf?$AAi?$AAl?$AAe?$AA?9?$AAl?$AA1?$AA?9?$AA2?$AA?9?$AA2?$AA?$AA@ 000000018005e160     libucrt:winapi_thunks.obj
 0002:000021a0       ??_C@_1EI@MPIAOHOC@?$AAa?$AAp?$AAi?$AA?9?$AAm?$AAs?$AA?9?$AAw?$AAi?$AAn?$AA?9?$AAc?$AAo?$AAr?$AAe?$AA?9?$AAl?$AAo?$AAc?$AAa?$AAl?$AAi?$AAz?$AAa?$AAt?$AAi?$AAo?$AAn?$AA?9?$AAl?$AA1?$AA?9@ 000000018005e1a0     libucrt:winapi_thunks.obj
 0002:000021f0       ??_C@_1FK@FPHCKFIE@?$AAa?$AAp?$AAi?$AA?9?$AAm?$AAs?$AA?9?$AAw?$AAi?$AAn?$AA?9?$AAc?$AAo?$AAr?$AAe?$AA?9?$AAl?$AAo?$AAc?$AAa?$AAl?$AAi?$AAz?$AAa?$AAt?$AAi?$AAo?$AAn?$AA?9?$AAo?$AAb?$AAs@ 000000018005e1f0     libucrt:winapi_thunks.obj
 0002:00002250       ??_C@_1EM@DILCGIIO@?$AAa?$AAp?$AAi?$AA?9?$AAm?$AAs?$AA?9?$AAw?$AAi?$AAn?$AA?9?$AAc?$AAo?$AAr?$AAe?$AA?9?$AAp?$AAr?$AAo?$AAc?$AAe?$AAs?$AAs?$AAt?$AAh?$AAr?$AAe?$AAa?$AAd?$AAs?$AA?9?$AAl@ 000000018005e250     libucrt:winapi_thunks.obj
 0002:000022a0       ??_C@_1DM@LNCGDDPN@?$AAa?$AAp?$AAi?$AA?9?$AAm?$AAs?$AA?9?$AAw?$AAi?$AAn?$AA?9?$AAc?$AAo?$AAr?$AAe?$AA?9?$AAs?$AAt?$AAr?$AAi?$AAn?$AAg?$AA?9?$AAl?$AA1?$AA?9?$AA1?$AA?9?$AA0?$AA?$AA@ 000000018005e2a0     libucrt:winapi_thunks.obj
 0002:000022e0       ??_C@_1DK@LPPGFMPP@?$AAa?$AAp?$AAi?$AA?9?$AAm?$AAs?$AA?9?$AAw?$AAi?$AAn?$AA?9?$AAc?$AAo?$AAr?$AAe?$AA?9?$AAs?$AAy?$AAn?$AAc?$AAh?$AA?9?$AAl?$AA1?$AA?9?$AA2?$AA?9?$AA0?$AA?$AA@ 000000018005e2e0     libucrt:winapi_thunks.obj
 0002:00002320       ??_C@_1DO@FPAPJEMD@?$AAa?$AAp?$AAi?$AA?9?$AAm?$AAs?$AA?9?$AAw?$AAi?$AAn?$AA?9?$AAc?$AAo?$AAr?$AAe?$AA?9?$AAs?$AAy?$AAs?$AAi?$AAn?$AAf?$AAo?$AA?9?$AAl?$AA1?$AA?9?$AA2?$AA?9?$AA1?$AA?$AA@ 000000018005e320     libucrt:winapi_thunks.obj
 0002:00002360       ??_C@_1DK@NDHNAHIO@?$AAa?$AAp?$AAi?$AA?9?$AAm?$AAs?$AA?9?$AAw?$AAi?$AAn?$AA?9?$AAc?$AAo?$AAr?$AAe?$AA?9?$AAw?$AAi?$AAn?$AAr?$AAt?$AA?9?$AAl?$AA1?$AA?9?$AA1?$AA?9?$AA0?$AA?$AA@ 000000018005e360     libucrt:winapi_thunks.obj
 0002:000023a0       ??_C@_1DM@KGHDGBCM@?$AAa?$AAp?$AAi?$AA?9?$AAm?$AAs?$AA?9?$AAw?$AAi?$AAn?$AA?9?$AAc?$AAo?$AAr?$AAe?$AA?9?$AAx?$AAs?$AAt?$AAa?$AAt?$AAe?$AA?9?$AAl?$AA2?$AA?9?$AA1?$AA?9?$AA0?$AA?$AA@ 000000018005e3a0     libucrt:winapi_thunks.obj
 0002:000023e0       ??_C@_1EO@IJIOEFOH@?$AAa?$AAp?$AAi?$AA?9?$AAm?$AAs?$AA?9?$AAw?$AAi?$AAn?$AA?9?$AAr?$AAt?$AAc?$AAo?$AAr?$AAe?$AA?9?$AAn?$AAt?$AAu?$AAs?$AAe?$AAr?$AA?9?$AAw?$AAi?$AAn?$AAd?$AAo?$AAw?$AA?9@ 000000018005e3e0     libucrt:winapi_thunks.obj
 0002:00002430       ??_C@_1FG@HHGEKANL@?$AAa?$AAp?$AAi?$AA?9?$AAm?$AAs?$AA?9?$AAw?$AAi?$AAn?$AA?9?$AAs?$AAe?$AAc?$AAu?$AAr?$AAi?$AAt?$AAy?$AA?9?$AAs?$AAy?$AAs?$AAt?$AAe?$AAm?$AAf?$AAu?$AAn?$AAc?$AAt?$AAi@ 000000018005e430     libucrt:winapi_thunks.obj
 0002:00002490       ??_C@_1EG@DBIOJECG@?$AAe?$AAx?$AAt?$AA?9?$AAm?$AAs?$AA?9?$AAw?$AAi?$AAn?$AA?9?$AAn?$AAt?$AAu?$AAs?$AAe?$AAr?$AA?9?$AAd?$AAi?$AAa?$AAl?$AAo?$AAg?$AAb?$AAo?$AAx?$AA?9?$AAl?$AA1?$AA?9?$AA1@ 000000018005e490     libucrt:winapi_thunks.obj
 0002:000024e0       ??_C@_1EO@FIHMJCLF@?$AAe?$AAx?$AAt?$AA?9?$AAm?$AAs?$AA?9?$AAw?$AAi?$AAn?$AA?9?$AAn?$AAt?$AAu?$AAs?$AAe?$AAr?$AA?9?$AAw?$AAi?$AAn?$AAd?$AAo?$AAw?$AAs?$AAt?$AAa?$AAt?$AAi?$AAo?$AAn?$AA?9@ 000000018005e4e0     libucrt:winapi_thunks.obj
 0002:00002530       ??_C@_1BC@DNHGCMLG@?$AAa?$AAd?$AAv?$AAa?$AAp?$AAi?$AA3?$AA2?$AA?$AA@ 000000018005e530     libucrt:winapi_thunks.obj
 0002:00002548       ??_C@_1BC@GDMECMAK@?$AAk?$AAe?$AAr?$AAn?$AAe?$AAl?$AA3?$AA2?$AA?$AA@ 000000018005e548     libucrt:winapi_thunks.obj
 0002:00002560       ??_C@_1M@OAIMIKLP@?$AAn?$AAt?$AAd?$AAl?$AAl?$AA?$AA@ 000000018005e560     libucrt:winapi_thunks.obj
 0002:00002570       ??_C@_1EG@DPGNFKGC@?$AAa?$AAp?$AAi?$AA?9?$AAm?$AAs?$AA?9?$AAw?$AAi?$AAn?$AA?9?$AAa?$AAp?$AAp?$AAm?$AAo?$AAd?$AAe?$AAl?$AA?9?$AAr?$AAu?$AAn?$AAt?$AAi?$AAm?$AAe?$AA?9?$AAl?$AA1?$AA?9?$AA1@ 000000018005e570     libucrt:winapi_thunks.obj
 0002:000025b8       ??_C@_1O@BCCLBEOE@?$AAu?$AAs?$AAe?$AAr?$AA3?$AA2?$AA?$AA@ 000000018005e5b8     libucrt:winapi_thunks.obj
 0002:000025c8       ??_C@_1BA@PFFKHIOG@?$AAa?$AAp?$AAi?$AA?9?$AAm?$AAs?$AA?9?$AA?$AA@ 000000018005e5c8     libucrt:winapi_thunks.obj
 0002:000025d8       ??_C@_1BA@IAIFMGEF@?$AAe?$AAx?$AAt?$AA?9?$AAm?$AAs?$AA?9?$AA?$AA@ 000000018005e5d8     libucrt:winapi_thunks.obj
 0002:000025f0       ??_C@_0BA@FHFNEAED@AreFileApisANSI?$AA@ 000000018005e5f0     libucrt:winapi_thunks.obj
 0002:00002608       ??_C@_08KNHFBNJ@FlsAlloc?$AA@ 000000018005e608     libucrt:winapi_thunks.obj
 0002:00002620       ??_C@_07PEJMOBNF@FlsFree?$AA@ 000000018005e620     libucrt:winapi_thunks.obj
 0002:00002630       ??_C@_0M@GDNOONDI@FlsGetValue?$AA@ 000000018005e630     libucrt:winapi_thunks.obj
 0002:00002648       ??_C@_0M@JCPCPOEF@FlsSetValue?$AA@ 000000018005e648     libucrt:winapi_thunks.obj
 0002:00002660       ??_C@_0BA@HNOPNCHB@GetActiveWindow?$AA@ 000000018005e660     libucrt:winapi_thunks.obj
 0002:00002678       ??_C@_0BD@HHGDFDBJ@GetLastActivePopup?$AA@ 000000018005e678     libucrt:winapi_thunks.obj
 0002:00002698       ??_C@_0BI@DFKBFLJE@GetProcessWindowStation?$AA@ 000000018005e698     libucrt:winapi_thunks.obj
 0002:000026b8       ??_C@_0BK@DEKFELLI@GetUserObjectInformationW?$AA@ 000000018005e6b8     libucrt:winapi_thunks.obj
 0002:000026e0       ??_C@_0BM@HCFOFFN@InitializeCriticalSectionEx?$AA@ 000000018005e6e0     libucrt:winapi_thunks.obj
 0002:00002708       ??_C@_0O@KKBNKAPF@LCMapStringEx?$AA@ 000000018005e708     libucrt:winapi_thunks.obj
 0002:00002720       ??_C@_0BB@HBDEELFH@LocaleNameToLCID?$AA@ 000000018005e720     libucrt:winapi_thunks.obj
 0002:00002740       ??_C@_0M@CHKKJDAI@MessageBoxA?$AA@ 000000018005e740     libucrt:winapi_thunks.obj
 0002:00002758       ??_C@_0M@DLDCCGNP@MessageBoxW?$AA@ 000000018005e758     libucrt:winapi_thunks.obj
 0002:00002768       ??_C@_0N@PPOMPGGK@RoInitialize?$AA@ 000000018005e768     libucrt:winapi_thunks.obj
 0002:00002780       ??_C@_0P@LLFHBIJD@RoUninitialize?$AA@ 000000018005e780     libucrt:winapi_thunks.obj
 0002:00002798       ??_C@_0CF@OJOFEIGO@AppPolicyGetProcessTerminationMe@ 000000018005e798     libucrt:winapi_thunks.obj
 0002:000027c8       ??_C@_0CF@NNDFDCOC@AppPolicyGetThreadInitialization@ 000000018005e7c8     libucrt:winapi_thunks.obj
 0002:000027f8       ??_C@_0CE@OICFMIKE@AppPolicyGetShowDeveloperDiagnos@ 000000018005e7f8     libucrt:winapi_thunks.obj
 0002:00002820       ??_C@_0BL@ODDJNEDA@AppPolicyGetWindowingModel?$AA@ 000000018005e820     libucrt:winapi_thunks.obj
 0002:0000283c       ?ccs@?1???$__acrt_stdio_parse_mode@D@@YA?AU__acrt_stdio_stream_mode@@QEBD@Z@4QBDB 000000018005e83c     libucrt:openfile.obj
 0002:00002840       ?utf8_encoding@?1???$__acrt_stdio_parse_mode@D@@YA?AU__acrt_stdio_stream_mode@@QEBD@Z@4QBDB 000000018005e840     libucrt:openfile.obj
 0002:00002848       ?utf16_encoding@?1???$__acrt_stdio_parse_mode@D@@YA?AU__acrt_stdio_stream_mode@@QEBD@Z@4QBDB 000000018005e848     libucrt:openfile.obj
 0002:00002850       ?unicode_encoding@?1???$__acrt_stdio_parse_mode@D@@YA?AU__acrt_stdio_stream_mode@@QEBD@Z@4QBDB 000000018005e850     libucrt:openfile.obj
 0002:00002860       _sys_errlist               000000018005e860     libucrt:syserr.obj
 0002:000029c0       ??_C@_08INEPGKHH@No?5error?$AA@ 000000018005e9c0     libucrt:syserr.obj
 0002:000029d0       ??_C@_0BI@BJFCGOHL@Operation?5not?5permitted?$AA@ 000000018005e9d0     libucrt:syserr.obj
 0002:000029e8       ??_C@_0BK@FMDHKPNF@No?5such?5file?5or?5directory?$AA@ 000000018005e9e8     libucrt:syserr.obj
 0002:00002a08       ??_C@_0BA@FKIAIBGA@No?5such?5process?$AA@ 000000018005ea08     libucrt:syserr.obj
 0002:00002a18       ??_C@_0BK@FJBOAFDK@Interrupted?5function?5call?$AA@ 000000018005ea18     libucrt:syserr.obj
 0002:00002a38       ??_C@_0BD@KKNFOBBD@Input?1output?5error?$AA@ 000000018005ea38     libucrt:syserr.obj
 0002:00002a50       ??_C@_0BK@DPKMCKJ@No?5such?5device?5or?5address?$AA@ 000000018005ea50     libucrt:syserr.obj
 0002:00002a70       ??_C@_0BC@MFFGCDFL@Arg?5list?5too?5long?$AA@ 000000018005ea70     libucrt:syserr.obj
 0002:00002a88       ??_C@_0BC@HKPNECK@Exec?5format?5error?$AA@ 000000018005ea88     libucrt:syserr.obj
 0002:00002aa0       ??_C@_0BE@NFGDDCEF@Bad?5file?5descriptor?$AA@ 000000018005eaa0     libucrt:syserr.obj
 0002:00002ab8       ??_C@_0BD@LOHELEP@No?5child?5processes?$AA@ 000000018005eab8     libucrt:syserr.obj
 0002:00002ad0       ??_C@_0CB@EPFKGNAK@Resource?5temporarily?5unavailable@ 000000018005ead0     libucrt:syserr.obj
 0002:00002af8       ??_C@_0BB@IMDKMPFB@Not?5enough?5space?$AA@ 000000018005eaf8     libucrt:syserr.obj
 0002:00002b10       ??_C@_0BC@HFNFNKAI@Permission?5denied?$AA@ 000000018005eb10     libucrt:syserr.obj
 0002:00002b28       ??_C@_0M@LOEHLCJD@Bad?5address?$AA@ 000000018005eb28     libucrt:syserr.obj
 0002:00002b38       ??_C@_0O@NIPGCINC@Unknown?5error?$AA@ 000000018005eb38     libucrt:syserr.obj
 0002:00002b48       ??_C@_0BA@BIBLIOEK@Resource?5device?$AA@ 000000018005eb48     libucrt:syserr.obj
 0002:00002b58       ??_C@_0M@NAAJNNGH@File?5exists?$AA@ 000000018005eb58     libucrt:syserr.obj
 0002:00002b68       ??_C@_0O@OAMDNOCP@Improper?5link?$AA@ 000000018005eb68     libucrt:syserr.obj
 0002:00002b78       ??_C@_0P@NLEIANHE@No?5such?5device?$AA@ 000000018005eb78     libucrt:syserr.obj
 0002:00002b88       ??_C@_0BA@CJBACOOL@Not?5a?5directory?$AA@ 000000018005eb88     libucrt:syserr.obj
 0002:00002b98       ??_C@_0P@NDHGCGKE@Is?5a?5directory?$AA@ 000000018005eb98     libucrt:syserr.obj
 0002:00002ba8       ??_C@_0BB@HMGGCEBG@Invalid?5argument?$AA@ 000000018005eba8     libucrt:syserr.obj
 0002:00002bc0       ??_C@_0BO@IIFBODJE@Too?5many?5open?5files?5in?5system?$AA@ 000000018005ebc0     libucrt:syserr.obj
 0002:00002be0       ??_C@_0BE@INBJMKGG@Too?5many?5open?5files?$AA@ 000000018005ebe0     libucrt:syserr.obj
 0002:00002bf8       ??_C@_0CE@ONOKNLPF@Inappropriate?5I?1O?5control?5operat@ 000000018005ebf8     libucrt:syserr.obj
 0002:00002c20       ??_C@_0P@LFMMIPAE@File?5too?5large?$AA@ 000000018005ec20     libucrt:syserr.obj
 0002:00002c30       ??_C@_0BI@FEALHKLD@No?5space?5left?5on?5device?$AA@ 000000018005ec30     libucrt:syserr.obj
 0002:00002c48       ??_C@_0N@FEHLOILP@Invalid?5seek?$AA@ 000000018005ec48     libucrt:syserr.obj
 0002:00002c58       ??_C@_0BG@DDBFNKBH@Read?9only?5file?5system?$AA@ 000000018005ec58     libucrt:syserr.obj
 0002:00002c70       ??_C@_0P@PKCJJLLM@Too?5many?5links?$AA@ 000000018005ec70     libucrt:syserr.obj
 0002:00002c80       ??_C@_0M@LHEPIIOM@Broken?5pipe?$AA@ 000000018005ec80     libucrt:syserr.obj
 0002:00002c90       ??_C@_0N@MMJPGLJK@Domain?5error?$AA@ 000000018005ec90     libucrt:syserr.obj
 0002:00002ca0       ??_C@_0BB@FCBJFCAJ@Result?5too?5large?$AA@ 000000018005eca0     libucrt:syserr.obj
 0002:00002cb8       ??_C@_0BK@JAEBMJJM@Resource?5deadlock?5avoided?$AA@ 000000018005ecb8     libucrt:syserr.obj
 0002:00002cd8       ??_C@_0BC@BEDIHIDK@Filename?5too?5long?$AA@ 000000018005ecd8     libucrt:syserr.obj
 0002:00002cf0       ??_C@_0BD@CLHBCGPB@No?5locks?5available?$AA@ 000000018005ecf0     libucrt:syserr.obj
 0002:00002d08       ??_C@_0BJ@IHEHINLI@Function?5not?5implemented?$AA@ 000000018005ed08     libucrt:syserr.obj
 0002:00002d28       ??_C@_0BE@ICMCHPHH@Directory?5not?5empty?$AA@ 000000018005ed28     libucrt:syserr.obj
 0002:00002d40       ??_C@_0BG@KLEAJEFJ@Illegal?5byte?5sequence?$AA@ 000000018005ed40     libucrt:syserr.obj
 0002:00002d58       _sys_nerr                  000000018005ed58     libucrt:syserr.obj
 0002:00002d80       ??_C@_1M@HPNHIDJI@?$AAj?$AAa?$AA?9?$AAJ?$AAP?$AA?$AA@ 000000018005ed80     libucrt:mbctype.obj
 0002:00002d90       ??_C@_1M@BIBDDEMK@?$AAz?$AAh?$AA?9?$AAC?$AAN?$AA?$AA@ 000000018005ed90     libucrt:mbctype.obj
 0002:00002da0       ??_C@_1M@JLOOOEGK@?$AAk?$AAo?$AA?9?$AAK?$AAR?$AA?$AA@ 000000018005eda0     libucrt:mbctype.obj
 0002:00002db0       ??_C@_1M@CLNBBOPM@?$AAz?$AAh?$AA?9?$AAT?$AAW?$AA?$AA@ 000000018005edb0     libucrt:mbctype.obj
 0002:00002dc0       __newctype                 000000018005edc0     libucrt:ctype.obj
 0002:000030c0       __newclmap                 000000018005f0c0     libucrt:ctype.obj
 0002:00003240       __newcumap                 000000018005f240     libucrt:ctype.obj
 0002:000033c0       _wctype                    000000018005f3c0     libucrt:ctype.obj
 0002:000035c4       ??_C@_15PJPFLCCM@?$AAu?$AAk?$AA?$AA@ 000000018005f5c4     libucrt:get_qualified_locale.obj
 0002:000035ca       ??_C@_00CNPNBAHC@?$AA@     000000018005f5ca     libucrt:mbrtowc.obj
 0002:000035d0       ?large_power_data@?1??multiply_by_power_of_ten@__crt_strtox@@YA_NAEAUbig_integer@2@I@Z@4QBIB 000000018005f5d0     libucrt:cfout.obj
 0002:00003ee0       ?large_power_indices@?1??multiply_by_power_of_ten@__crt_strtox@@YA_NAEAUbig_integer@2@I@Z@4QBUunpack_index@?1??12@YA_N0I@Z@B 000000018005fee0     libucrt:cfout.obj
 0002:00003f78       ?small_powers_of_ten@?1??multiply_by_power_of_ten@__crt_strtox@@YA_NAEAUbig_integer@2@I@Z@4QBIB 000000018005ff78     libucrt:cfout.obj
 0002:00003f9c       ??_C@_01GBGANLPD@0?$AA@    000000018005ff9c     libucrt:cfout.obj
 0002:00003fa0       ??_C@_05DNEBIAHO@1?$CDINF?$AA@ 000000018005ffa0     libucrt:cfout.obj
 0002:00003fa8       ??_C@_06IMKFLFPG@1?$CDQNAN?$AA@ 000000018005ffa8     libucrt:cfout.obj
 0002:00003fb0       ??_C@_06PGGFOGJG@1?$CDSNAN?$AA@ 000000018005ffb0     libucrt:cfout.obj
 0002:00003fb8       ??_C@_05PHHOCPM@1?$CDIND?$AA@ 000000018005ffb8     libucrt:cfout.obj
 0002:00004e00       ??_C@_15EMKDOKLE@?$AAa?$AAr?$AA?$AA@ 0000000180060e00     libucrt:lcidtoname_downlevel.obj
 0002:00004e08       ??_C@_15KNPADPLH@?$AAb?$AAg?$AA?$AA@ 0000000180060e08     libucrt:lcidtoname_downlevel.obj
 0002:00004e10       ??_C@_15EDMHLDMO@?$AAc?$AAa?$AA?$AA@ 0000000180060e10     libucrt:lcidtoname_downlevel.obj
 0002:00004e18       ??_C@_1O@BPEAJADD@?$AAz?$AAh?$AA?9?$AAC?$AAH?$AAS?$AA?$AA@ 0000000180060e18     libucrt:lcidtoname_downlevel.obj
 0002:00004e28       ??_C@_15LJNHCMNK@?$AAc?$AAs?$AA?$AA@ 0000000180060e28     libucrt:lcidtoname_downlevel.obj
 0002:00004e30       ??_C@_15FOMCIDHG@?$AAd?$AAa?$AA?$AA@ 0000000180060e30     libucrt:lcidtoname_downlevel.obj
 0002:00004e38       ??_C@_15NBKABECB@?$AAd?$AAe?$AA?$AA@ 0000000180060e38     libucrt:lcidtoname_downlevel.obj
 0002:00004e40       ??_C@_15GHPEIIAO@?$AAe?$AAl?$AA?$AA@ 0000000180060e40     libucrt:lcidtoname_downlevel.obj
 0002:00004e48       ??_C@_15MNPNEAIF@?$AAe?$AAn?$AA?$AA@ 0000000180060e48     libucrt:lcidtoname_downlevel.obj
 0002:00004e50       ??_C@_15GPIOMPMH@?$AAe?$AAs?$AA?$AA@ 0000000180060e50     libucrt:lcidtoname_downlevel.obj
 0002:00004e58       ??_C@_15NGLOAKJC@?$AAf?$AAi?$AA?$AA@ 0000000180060e58     libucrt:lcidtoname_downlevel.obj
 0002:00004e60       ??_C@_15FBKGNKAM@?$AAf?$AAr?$AA?$AA@ 0000000180060e60     libucrt:lcidtoname_downlevel.obj
 0002:00004e68       ??_C@_15KGGCNEFK@?$AAh?$AAe?$AA?$AA@ 0000000180060e68     libucrt:lcidtoname_downlevel.obj
 0002:00004e70       ??_C@_15PGHLIDMF@?$AAh?$AAu?$AA?$AA@ 0000000180060e70     libucrt:lcidtoname_downlevel.obj
 0002:00004e78       ??_C@_15BIEMAPLM@?$AAi?$AAs?$AA?$AA@ 0000000180060e78     libucrt:lcidtoname_downlevel.obj
 0002:00004e80       ??_C@_15IFJLDHAF@?$AAi?$AAt?$AA?$AA@ 0000000180060e80     libucrt:lcidtoname_downlevel.obj
 0002:00004e88       ??_C@_15GEMIOCAG@?$AAj?$AAa?$AA?$AA@ 0000000180060e88     libucrt:lcidtoname_downlevel.obj
 0002:00004e90       ??_C@_15EPELEGJA@?$AAk?$AAo?$AA?$AA@ 0000000180060e90     libucrt:lcidtoname_downlevel.obj
 0002:00004e98       ??_C@_15NDDHIMN@?$AAn?$AAl?$AA?$AA@ 0000000180060e98     libucrt:lcidtoname_downlevel.obj
 0002:00004ea0       ??_C@_15BPIGNHCD@?$AAn?$AAo?$AA?$AA@ 0000000180060ea0     libucrt:lcidtoname_downlevel.obj
 0002:00004ea8       ??_C@_15DEOPBLCG@?$AAp?$AAl?$AA?$AA@ 0000000180060ea8     libucrt:lcidtoname_downlevel.obj
 0002:00004eb0       ??_C@_15KBECGEFG@?$AAp?$AAt?$AA?$AA@ 0000000180060eb0     libucrt:lcidtoname_downlevel.obj
 0002:00004eb8       ??_C@_15GLJCBFMD@?$AAr?$AAo?$AA?$AA@ 0000000180060eb8     libucrt:lcidtoname_downlevel.obj
 0002:00004ec0       ??_C@_15FEDGKCDI@?$AAr?$AAu?$AA?$AA@ 0000000180060ec0     libucrt:lcidtoname_downlevel.obj
 0002:00004ec8       ??_C@_15GLKMLLHM@?$AAh?$AAr?$AA?$AA@ 0000000180060ec8     libucrt:lcidtoname_downlevel.obj
 0002:00004ed0       ??_C@_15CPKMFBDB@?$AAs?$AAk?$AA?$AA@ 0000000180060ed0     libucrt:lcidtoname_downlevel.obj
 0002:00004ed8       ??_C@_15BAAIOGMK@?$AAs?$AAq?$AA?$AA@ 0000000180060ed8     libucrt:lcidtoname_downlevel.obj
 0002:00004ee0       ??_C@_15INNPNOHD@?$AAs?$AAv?$AA?$AA@ 0000000180060ee0     libucrt:lcidtoname_downlevel.obj
 0002:00004ee8       ??_C@_15CABMMOGH@?$AAt?$AAh?$AA?$AA@ 0000000180060ee8     libucrt:lcidtoname_downlevel.obj
 0002:00004ef0       ??_C@_15BPLIHJJM@?$AAt?$AAr?$AA?$AA@ 0000000180060ef0     libucrt:lcidtoname_downlevel.obj
 0002:00004ef8       ??_C@_15NEOEKKDJ@?$AAu?$AAr?$AA?$AA@ 0000000180060ef8     libucrt:lcidtoname_downlevel.obj
 0002:00004f00       ??_C@_15NFICGAJK@?$AAi?$AAd?$AA?$AA@ 0000000180060f00     libucrt:lcidtoname_downlevel.obj
 0002:00004f08       ??_C@_15HPJPHDM@?$AAb?$AAe?$AA?$AA@ 0000000180060f08     libucrt:lcidtoname_downlevel.obj
 0002:00004f10       ??_C@_15LCHLGJII@?$AAs?$AAl?$AA?$AA@ 0000000180060f10     libucrt:lcidtoname_downlevel.obj
 0002:00004f18       ??_C@_15PCFJPHHO@?$AAe?$AAt?$AA?$AA@ 0000000180060f18     libucrt:lcidtoname_downlevel.obj
 0002:00004f20       ??_C@_15HPFPGODN@?$AAl?$AAv?$AA?$AA@ 0000000180060f20     libucrt:lcidtoname_downlevel.obj
 0002:00004f28       ??_C@_15NFFGKGLG@?$AAl?$AAt?$AA?$AA@ 0000000180060f28     libucrt:lcidtoname_downlevel.obj
 0002:00004f30       ??_C@_15BDAKCCHN@?$AAf?$AAa?$AA?$AA@ 0000000180060f30     libucrt:lcidtoname_downlevel.obj
 0002:00004f38       ??_C@_15NFGIAIAJ@?$AAv?$AAi?$AA?$AA@ 0000000180060f38     libucrt:lcidtoname_downlevel.obj
 0002:00004f40       ??_C@_15LMKNDMHN@?$AAh?$AAy?$AA?$AA@ 0000000180060f40     libucrt:lcidtoname_downlevel.obj
 0002:00004f48       ??_C@_15IJBHMCFL@?$AAa?$AAz?$AA?$AA@ 0000000180060f48     libucrt:lcidtoname_downlevel.obj
 0002:00004f50       ??_C@_15EKOFJABL@?$AAe?$AAu?$AA?$AA@ 0000000180060f50     libucrt:lcidtoname_downlevel.obj
 0002:00004f58       ??_C@_15BGHADCNK@?$AAm?$AAk?$AA?$AA@ 0000000180060f58     libucrt:lcidtoname_downlevel.obj
 0002:00004f60       ??_C@_15JDNICKHM@?$AAa?$AAf?$AA?$AA@ 0000000180060f60     libucrt:lcidtoname_downlevel.obj
 0002:00004f68       ??_C@_15KPJEDBKD@?$AAk?$AAa?$AA?$AA@ 0000000180060f68     libucrt:lcidtoname_downlevel.obj
 0002:00004f70       ??_C@_15PDNFFFEO@?$AAf?$AAo?$AA?$AA@ 0000000180060f70     libucrt:lcidtoname_downlevel.obj
 0002:00004f78       ??_C@_15OMLEGLOC@?$AAh?$AAi?$AA?$AA@ 0000000180060f78     libucrt:lcidtoname_downlevel.obj
 0002:00004f80       ??_C@_15IDNNENKK@?$AAm?$AAs?$AA?$AA@ 0000000180060f80     libucrt:lcidtoname_downlevel.obj
 0002:00004f88       ??_C@_15MACJNBMH@?$AAk?$AAk?$AA?$AA@ 0000000180060f88     libucrt:lcidtoname_downlevel.obj
 0002:00004f90       ??_C@_15DKDJEOND@?$AAk?$AAy?$AA?$AA@ 0000000180060f90     libucrt:lcidtoname_downlevel.obj
 0002:00004f98       ??_C@_15DFGDLJBG@?$AAs?$AAw?$AA?$AA@ 0000000180060f98     libucrt:lcidtoname_downlevel.obj
 0002:00004fa0       ??_C@_15BBFAICNG@?$AAu?$AAz?$AA?$AA@ 0000000180060fa0     libucrt:lcidtoname_downlevel.obj
 0002:00004fa8       ??_C@_15DKNDCGEA@?$AAt?$AAt?$AA?$AA@ 0000000180060fa8     libucrt:lcidtoname_downlevel.obj
 0002:00004fb0       ??_C@_15MGIFMDPL@?$AAp?$AAa?$AA?$AA@ 0000000180060fb0     libucrt:lcidtoname_downlevel.obj
 0002:00004fb8       ??_C@_15HCNDBBA@?$AAg?$AAu?$AA?$AA@ 0000000180060fb8     libucrt:lcidtoname_downlevel.obj
 0002:00004fc0       ??_C@_15FNBEIBON@?$AAt?$AAa?$AA?$AA@ 0000000180060fc0     libucrt:lcidtoname_downlevel.obj
 0002:00004fc8       ??_C@_15NCHGBGLK@?$AAt?$AAe?$AA?$AA@ 0000000180060fc8     libucrt:lcidtoname_downlevel.obj
 0002:00004fd0       ??_C@_15PHPHCBPF@?$AAk?$AAn?$AA?$AA@ 0000000180060fd0     libucrt:lcidtoname_downlevel.obj
 0002:00004fd8       ??_C@_15DLGBCKMP@?$AAm?$AAr?$AA?$AA@ 0000000180060fd8     libucrt:lcidtoname_downlevel.obj
 0002:00004fe0       ??_C@_15EABBLBFF@?$AAs?$AAa?$AA?$AA@ 0000000180060fe0     libucrt:lcidtoname_downlevel.obj
 0002:00004fe8       ??_C@_15CBKOMCOI@?$AAm?$AAn?$AA?$AA@ 0000000180060fe8     libucrt:lcidtoname_downlevel.obj
 0002:00004ff0       ??_C@_15CKDMCJAF@?$AAg?$AAl?$AA?$AA@ 0000000180060ff0     libucrt:lcidtoname_downlevel.obj
 0002:00004ff8       ??_C@_17CNJFBPG@?$AAk?$AAo?$AAk?$AA?$AA@ 0000000180060ff8     libucrt:lcidtoname_downlevel.obj
 0002:00005000       ??_C@_17FFBJICPL@?$AAs?$AAy?$AAr?$AA?$AA@ 0000000180061000     libucrt:lcidtoname_downlevel.obj
 0002:00005008       ??_C@_17KPNDCPAF@?$AAd?$AAi?$AAv?$AA?$AA@ 0000000180061008     libucrt:lcidtoname_downlevel.obj
 0002:00005010       ??_C@_11LOCGONAA@?$AA?$AA@ 0000000180061010     libucrt:lcidtoname_downlevel.obj
 0002:00005018       ??_C@_1M@OKAHONE@?$AAa?$AAr?$AA?9?$AAS?$AAA?$AA?$AA@ 0000000180061018     libucrt:lcidtoname_downlevel.obj
 0002:00005028       ??_C@_1M@FFFIGIGK@?$AAb?$AAg?$AA?9?$AAB?$AAG?$AA?$AA@ 0000000180061028     libucrt:lcidtoname_downlevel.obj
 0002:00005038       ??_C@_1M@BJNKEDC@?$AAc?$AAa?$AA?9?$AAE?$AAS?$AA?$AA@ 0000000180061038     libucrt:lcidtoname_downlevel.obj
 0002:00005048       ??_C@_1M@IJJHFJHA@?$AAc?$AAs?$AA?9?$AAC?$AAZ?$AA?$AA@ 0000000180061048     libucrt:lcidtoname_downlevel.obj
 0002:00005058       ??_C@_1M@CLPEOBGI@?$AAd?$AAa?$AA?9?$AAD?$AAK?$AA?$AA@ 0000000180061058     libucrt:lcidtoname_downlevel.obj
 0002:00005068       ??_C@_1M@MCMADGCB@?$AAd?$AAe?$AA?9?$AAD?$AAE?$AA?$AA@ 0000000180061068     libucrt:lcidtoname_downlevel.obj
 0002:00005078       ??_C@_1M@OOCKEMAM@?$AAe?$AAl?$AA?9?$AAG?$AAR?$AA?$AA@ 0000000180061078     libucrt:lcidtoname_downlevel.obj
 0002:00005088       ??_C@_1M@DDNJFGID@?$AAf?$AAi?$AA?9?$AAF?$AAI?$AA?$AA@ 0000000180061088     libucrt:lcidtoname_downlevel.obj
 0002:00005098       ??_C@_1M@GLIPPMAC@?$AAf?$AAr?$AA?9?$AAF?$AAR?$AA?$AA@ 0000000180061098     libucrt:lcidtoname_downlevel.obj
 0002:000050a8       ??_C@_1M@GFMCHPE@?$AAh?$AAe?$AA?9?$AAI?$AAL?$AA?$AA@ 00000001800610a8     libucrt:lcidtoname_downlevel.obj
 0002:000050b8       ??_C@_1M@MHLPGNKM@?$AAh?$AAu?$AA?9?$AAH?$AAU?$AA?$AA@ 00000001800610b8     libucrt:lcidtoname_downlevel.obj
 0002:000050c8       ??_C@_1M@LPDDNNPN@?$AAi?$AAs?$AA?9?$AAI?$AAS?$AA?$AA@ 00000001800610c8     libucrt:lcidtoname_downlevel.obj
 0002:000050d8       ??_C@_1M@MADIPODN@?$AAi?$AAt?$AA?9?$AAI?$AAT?$AA?$AA@ 00000001800610d8     libucrt:lcidtoname_downlevel.obj
 0002:000050e8       ??_C@_1M@IHBJJGG@?$AAn?$AAl?$AA?9?$AAN?$AAL?$AA?$AA@ 00000001800610e8     libucrt:lcidtoname_downlevel.obj
 0002:000050f8       ??_C@_1M@EANAGDL@?$AAn?$AAb?$AA?9?$AAN?$AAO?$AA?$AA@ 00000001800610f8     libucrt:lcidtoname_downlevel.obj
 0002:00005108       ??_C@_1M@NEIEMEGP@?$AAp?$AAl?$AA?9?$AAP?$AAL?$AA?$AA@ 0000000180061108     libucrt:lcidtoname_downlevel.obj
 0002:00005118       ??_C@_1M@BOCFIGEP@?$AAp?$AAt?$AA?9?$AAB?$AAR?$AA?$AA@ 0000000180061118     libucrt:lcidtoname_downlevel.obj
 0002:00005128       ??_C@_1M@IMPFOPBG@?$AAr?$AAo?$AA?9?$AAR?$AAO?$AA?$AA@ 0000000180061128     libucrt:lcidtoname_downlevel.obj
 0002:00005138       ??_C@_1M@IDNNEJMM@?$AAr?$AAu?$AA?9?$AAR?$AAU?$AA?$AA@ 0000000180061138     libucrt:lcidtoname_downlevel.obj
 0002:00005148       ??_C@_1M@LILEEOGM@?$AAh?$AAr?$AA?9?$AAH?$AAR?$AA?$AA@ 0000000180061148     libucrt:lcidtoname_downlevel.obj
 0002:00005158       ??_C@_1M@FKIFEHPB@?$AAs?$AAk?$AA?9?$AAS?$AAK?$AA?$AA@ 0000000180061158     libucrt:lcidtoname_downlevel.obj
 0002:00005168       ??_C@_1M@LJMAMNPJ@?$AAs?$AAq?$AA?9?$AAA?$AAL?$AA?$AA@ 0000000180061168     libucrt:lcidtoname_downlevel.obj
 0002:00005178       ??_C@_1M@GIAKDKJK@?$AAs?$AAv?$AA?9?$AAS?$AAE?$AA?$AA@ 0000000180061178     libucrt:lcidtoname_downlevel.obj
 0002:00005188       ??_C@_1M@MKJKIKCL@?$AAt?$AAh?$AA?9?$AAT?$AAH?$AA?$AA@ 0000000180061188     libucrt:lcidtoname_downlevel.obj
 0002:00005198       ??_C@_1M@MFLCCMPB@?$AAt?$AAr?$AA?9?$AAT?$AAR?$AA?$AA@ 0000000180061198     libucrt:lcidtoname_downlevel.obj
 0002:000051a8       ??_C@_1M@OIJHDKJN@?$AAu?$AAr?$AA?9?$AAP?$AAK?$AA?$AA@ 00000001800611a8     libucrt:lcidtoname_downlevel.obj
 0002:000051b8       ??_C@_1M@LHIPCIEK@?$AAi?$AAd?$AA?9?$AAI?$AAD?$AA?$AA@ 00000001800611b8     libucrt:lcidtoname_downlevel.obj
 0002:000051c8       ??_C@_1M@MFMOBGI@?$AAu?$AAk?$AA?9?$AAU?$AAA?$AA?$AA@ 00000001800611c8     libucrt:lcidtoname_downlevel.obj
 0002:000051d8       ??_C@_1M@OBGLJIPL@?$AAb?$AAe?$AA?9?$AAB?$AAY?$AA?$AA@ 00000001800611d8     libucrt:lcidtoname_downlevel.obj
 0002:000051e8       ??_C@_1M@BCFAJEAD@?$AAs?$AAl?$AA?9?$AAS?$AAI?$AA?$AA@ 00000001800611e8     libucrt:lcidtoname_downlevel.obj
 0002:000051f8       ??_C@_1M@FKFFEDDN@?$AAe?$AAt?$AA?9?$AAE?$AAE?$AA?$AA@ 00000001800611f8     libucrt:lcidtoname_downlevel.obj
 0002:00005208       ??_C@_1M@KGKKAACI@?$AAl?$AAv?$AA?9?$AAL?$AAV?$AA?$AA@ 0000000180061208     libucrt:lcidtoname_downlevel.obj
 0002:00005218       ??_C@_1M@IFGBIJO@?$AAl?$AAt?$AA?9?$AAL?$AAT?$AA?$AA@ 0000000180061218     libucrt:lcidtoname_downlevel.obj
 0002:00005228       ??_C@_1M@FGEAHEDM@?$AAf?$AAa?$AA?9?$AAI?$AAR?$AA?$AA@ 0000000180061228     libucrt:lcidtoname_downlevel.obj
 0002:00005238       ??_C@_1M@KBMAIBFN@?$AAv?$AAi?$AA?9?$AAV?$AAN?$AA?$AA@ 0000000180061238     libucrt:lcidtoname_downlevel.obj
 0002:00005248       ??_C@_1M@GPCBKDJK@?$AAh?$AAy?$AA?9?$AAA?$AAM?$AA?$AA@ 0000000180061248     libucrt:lcidtoname_downlevel.obj
 0002:00005258       ??_C@_1BG@BECMDDJB@?$AAa?$AAz?$AA?9?$AAA?$AAZ?$AA?9?$AAL?$AAa?$AAt?$AAn?$AA?$AA@ 0000000180061258     libucrt:lcidtoname_downlevel.obj
 0002:00005270       ??_C@_1M@MAOFCAEA@?$AAe?$AAu?$AA?9?$AAE?$AAS?$AA?$AA@ 0000000180061270     libucrt:lcidtoname_downlevel.obj
 0002:00005280       ??_C@_1M@IGHABKPI@?$AAm?$AAk?$AA?9?$AAM?$AAK?$AA?$AA@ 0000000180061280     libucrt:lcidtoname_downlevel.obj
 0002:00005290       ??_C@_1M@IAIGNEJG@?$AAt?$AAn?$AA?9?$AAZ?$AAA?$AA?$AA@ 0000000180061290     libucrt:lcidtoname_downlevel.obj
 0002:000052a0       ??_C@_1M@IIJCOJFA@?$AAx?$AAh?$AA?9?$AAZ?$AAA?$AA?$AA@ 00000001800612a0     libucrt:lcidtoname_downlevel.obj
 0002:000052b0       ??_C@_1M@LGPJHNJH@?$AAz?$AAu?$AA?9?$AAZ?$AAA?$AA?$AA@ 00000001800612b0     libucrt:lcidtoname_downlevel.obj
 0002:000052c0       ??_C@_1M@HOKAOIO@?$AAa?$AAf?$AA?9?$AAZ?$AAA?$AA?$AA@ 00000001800612c0     libucrt:lcidtoname_downlevel.obj
 0002:000052d0       ??_C@_1M@DPCLHLIE@?$AAk?$AAa?$AA?9?$AAG?$AAE?$AA?$AA@ 00000001800612d0     libucrt:lcidtoname_downlevel.obj
 0002:000052e0       ??_C@_1M@BLKMHJBI@?$AAf?$AAo?$AA?9?$AAF?$AAO?$AA?$AA@ 00000001800612e0     libucrt:lcidtoname_downlevel.obj
 0002:000052f0       ??_C@_1M@LGGJAPPB@?$AAh?$AAi?$AA?9?$AAI?$AAN?$AA?$AA@ 00000001800612f0     libucrt:lcidtoname_downlevel.obj
 0002:00005300       ??_C@_1M@FIKPIHFE@?$AAm?$AAt?$AA?9?$AAM?$AAT?$AA?$AA@ 0000000180061300     libucrt:lcidtoname_downlevel.obj
 0002:00005310       ??_C@_1M@HEGGPBFA@?$AAs?$AAe?$AA?9?$AAN?$AAO?$AA?$AA@ 0000000180061310     libucrt:lcidtoname_downlevel.obj
 0002:00005320       ??_C@_1M@EIBJEEPA@?$AAm?$AAs?$AA?9?$AAM?$AAY?$AA?$AA@ 0000000180061320     libucrt:lcidtoname_downlevel.obj
 0002:00005330       ??_C@_1M@FHLBGMPP@?$AAk?$AAk?$AA?9?$AAK?$AAZ?$AA?$AA@ 0000000180061330     libucrt:lcidtoname_downlevel.obj
 0002:00005340       ??_C@_1M@NGJJLCGI@?$AAk?$AAy?$AA?9?$AAK?$AAG?$AA?$AA@ 0000000180061340     libucrt:lcidtoname_downlevel.obj
 0002:00005350       ??_C@_1M@GIENNBFC@?$AAs?$AAw?$AA?9?$AAK?$AAE?$AA?$AA@ 0000000180061350     libucrt:lcidtoname_downlevel.obj
 0002:00005360       ??_C@_1BG@NDGMJIMJ@?$AAu?$AAz?$AA?9?$AAU?$AAZ?$AA?9?$AAL?$AAa?$AAt?$AAn?$AA?$AA@ 0000000180061360     libucrt:lcidtoname_downlevel.obj
 0002:00005378       ??_C@_1M@IDCCIHBC@?$AAt?$AAt?$AA?9?$AAR?$AAU?$AA?$AA@ 0000000180061378     libucrt:lcidtoname_downlevel.obj
 0002:00005388       ??_C@_1M@LOICPMOJ@?$AAb?$AAn?$AA?9?$AAI?$AAN?$AA?$AA@ 0000000180061388     libucrt:lcidtoname_downlevel.obj
 0002:00005398       ??_C@_1M@KPKKNEAH@?$AAp?$AAa?$AA?9?$AAI?$AAN?$AA?$AA@ 0000000180061398     libucrt:lcidtoname_downlevel.obj
 0002:000053a8       ??_C@_1M@PJGPPBOG@?$AAg?$AAu?$AA?9?$AAI?$AAN?$AA?$AA@ 00000001800613a8     libucrt:lcidtoname_downlevel.obj
 0002:000053b8       ??_C@_1M@KMKMOPHI@?$AAt?$AAa?$AA?9?$AAI?$AAN?$AA?$AA@ 00000001800613b8     libucrt:lcidtoname_downlevel.obj
 0002:000053c8       ??_C@_1M@KFEHEPAC@?$AAt?$AAe?$AA?9?$AAI?$AAN?$AA?$AA@ 00000001800613c8     libucrt:lcidtoname_downlevel.obj
 0002:000053d8       ??_C@_1M@CDCLMGHI@?$AAk?$AAn?$AA?9?$AAI?$AAN?$AA?$AA@ 00000001800613d8     libucrt:lcidtoname_downlevel.obj
 0002:000053e8       ??_C@_1M@MIODLDKF@?$AAm?$AAl?$AA?9?$AAI?$AAN?$AA?$AA@ 00000001800613e8     libucrt:lcidtoname_downlevel.obj
 0002:000053f8       ??_C@_1M@PBIEACPO@?$AAm?$AAr?$AA?9?$AAI?$AAN?$AA?$AA@ 00000001800613f8     libucrt:lcidtoname_downlevel.obj
 0002:00005408       ??_C@_1M@NIDEAGPH@?$AAs?$AAa?$AA?9?$AAI?$AAN?$AA?$AA@ 0000000180061408     libucrt:lcidtoname_downlevel.obj
 0002:00005418       ??_C@_1M@FHIHCBIO@?$AAm?$AAn?$AA?9?$AAM?$AAN?$AA?$AA@ 0000000180061418     libucrt:lcidtoname_downlevel.obj
 0002:00005428       ??_C@_1M@JAIJPENP@?$AAc?$AAy?$AA?9?$AAG?$AAB?$AA?$AA@ 0000000180061428     libucrt:lcidtoname_downlevel.obj
 0002:00005438       ??_C@_1M@PHGFBEPN@?$AAg?$AAl?$AA?9?$AAE?$AAS?$AA?$AA@ 0000000180061438     libucrt:lcidtoname_downlevel.obj
 0002:00005448       ??_C@_1O@KPIPDNCP@?$AAk?$AAo?$AAk?$AA?9?$AAI?$AAN?$AA?$AA@ 0000000180061448     libucrt:lcidtoname_downlevel.obj
 0002:00005458       ??_C@_1O@KNHJLDJA@?$AAs?$AAy?$AAr?$AA?9?$AAS?$AAY?$AA?$AA@ 0000000180061458     libucrt:lcidtoname_downlevel.obj
 0002:00005468       ??_C@_1O@MKEKBLAH@?$AAd?$AAi?$AAv?$AA?9?$AAM?$AAV?$AA?$AA@ 0000000180061468     libucrt:lcidtoname_downlevel.obj
 0002:00005478       ??_C@_1O@OHDCKDDF@?$AAq?$AAu?$AAz?$AA?9?$AAB?$AAO?$AA?$AA@ 0000000180061478     libucrt:lcidtoname_downlevel.obj
 0002:00005488       ??_C@_1M@LEPJNLFD@?$AAn?$AAs?$AA?9?$AAZ?$AAA?$AA?$AA@ 0000000180061488     libucrt:lcidtoname_downlevel.obj
 0002:00005498       ??_C@_1M@OMLEIIJB@?$AAm?$AAi?$AA?9?$AAN?$AAZ?$AA?$AA@ 0000000180061498     libucrt:lcidtoname_downlevel.obj
 0002:000054a8       ??_C@_1M@PMPEAILG@?$AAa?$AAr?$AA?9?$AAI?$AAQ?$AA?$AA@ 00000001800614a8     libucrt:lcidtoname_downlevel.obj
 0002:000054b8       ??_C@_1M@CNKPNOEE@?$AAd?$AAe?$AA?9?$AAC?$AAH?$AA?$AA@ 00000001800614b8     libucrt:lcidtoname_downlevel.obj
 0002:000054c8       ??_C@_1M@LKMGMLKO@?$AAe?$AAn?$AA?9?$AAG?$AAB?$AA?$AA@ 00000001800614c8     libucrt:lcidtoname_downlevel.obj
 0002:000054d8       ??_C@_1M@PGKJFFGL@?$AAe?$AAs?$AA?9?$AAM?$AAX?$AA?$AA@ 00000001800614d8     libucrt:lcidtoname_downlevel.obj
 0002:000054e8       ??_C@_1M@DNNANBDC@?$AAf?$AAr?$AA?9?$AAB?$AAE?$AA?$AA@ 00000001800614e8     libucrt:lcidtoname_downlevel.obj
 0002:000054f8       ??_C@_1M@HLGMDFHM@?$AAi?$AAt?$AA?9?$AAC?$AAH?$AA?$AA@ 00000001800614f8     libucrt:lcidtoname_downlevel.obj
 0002:00005508       ??_C@_1M@CLLBGJH@?$AAn?$AAl?$AA?9?$AAB?$AAE?$AA?$AA@ 0000000180061508     libucrt:lcidtoname_downlevel.obj
 0002:00005518       ??_C@_1M@BODBOGLF@?$AAn?$AAn?$AA?9?$AAN?$AAO?$AA?$AA@ 0000000180061518     libucrt:lcidtoname_downlevel.obj
 0002:00005528       ??_C@_1M@HFFAHKAD@?$AAp?$AAt?$AA?9?$AAP?$AAT?$AA?$AA@ 0000000180061528     libucrt:lcidtoname_downlevel.obj
 0002:00005538       ??_C@_1BG@LNOAKHIE@?$AAs?$AAr?$AA?9?$AAS?$AAP?$AA?9?$AAL?$AAa?$AAt?$AAn?$AA?$AA@ 0000000180061538     libucrt:lcidtoname_downlevel.obj
 0002:00005550       ??_C@_1M@HBMHBGAK@?$AAs?$AAv?$AA?9?$AAF?$AAI?$AA?$AA@ 0000000180061550     libucrt:lcidtoname_downlevel.obj
 0002:00005560       ??_C@_1BG@DGCJGJBE@?$AAa?$AAz?$AA?9?$AAA?$AAZ?$AA?9?$AAC?$AAy?$AAr?$AAl?$AA?$AA@ 0000000180061560     libucrt:lcidtoname_downlevel.obj
 0002:00005578       ??_C@_1M@KEJDAAHB@?$AAs?$AAe?$AA?9?$AAS?$AAE?$AA?$AA@ 0000000180061578     libucrt:lcidtoname_downlevel.obj
 0002:00005588       ??_C@_1M@HEIBJJAD@?$AAm?$AAs?$AA?9?$AAB?$AAN?$AA?$AA@ 0000000180061588     libucrt:lcidtoname_downlevel.obj
 0002:00005598       ??_C@_1BG@PBGJMCEM@?$AAu?$AAz?$AA?9?$AAU?$AAZ?$AA?9?$AAC?$AAy?$AAr?$AAl?$AA?$AA@ 0000000180061598     libucrt:lcidtoname_downlevel.obj
 0002:000055b0       ??_C@_1O@LAOBCMDF@?$AAq?$AAu?$AAz?$AA?9?$AAE?$AAC?$AA?$AA@ 00000001800615b0     libucrt:lcidtoname_downlevel.obj
 0002:000055c0       ??_C@_1M@POEEMAIO@?$AAa?$AAr?$AA?9?$AAE?$AAG?$AA?$AA@ 00000001800615c0     libucrt:lcidtoname_downlevel.obj
 0002:000055d0       ??_C@_1M@EFAKDEDL@?$AAz?$AAh?$AA?9?$AAH?$AAK?$AA?$AA@ 00000001800615d0     libucrt:lcidtoname_downlevel.obj
 0002:000055e0       ??_C@_1M@HKKIJHGI@?$AAd?$AAe?$AA?9?$AAA?$AAT?$AA?$AA@ 00000001800615e0     libucrt:lcidtoname_downlevel.obj
 0002:000055f0       ??_C@_1M@KBFBEHJF@?$AAe?$AAn?$AA?9?$AAA?$AAU?$AA?$AA@ 00000001800615f0     libucrt:lcidtoname_downlevel.obj
 0002:00005600       ??_C@_1M@MNPLFAAH@?$AAe?$AAs?$AA?9?$AAE?$AAS?$AA?$AA@ 0000000180061600     libucrt:lcidtoname_downlevel.obj
 0002:00005610       ??_C@_1M@HJOOJFMA@?$AAf?$AAr?$AA?9?$AAC?$AAA?$AA?$AA@ 0000000180061610     libucrt:lcidtoname_downlevel.obj
 0002:00005620       ??_C@_1BG@JPOFPNAB@?$AAs?$AAr?$AA?9?$AAS?$AAP?$AA?9?$AAC?$AAy?$AAr?$AAl?$AA?$AA@ 0000000180061620     libucrt:lcidtoname_downlevel.obj
 0002:00005638       ??_C@_1M@LNFOCMOB@?$AAs?$AAe?$AA?9?$AAF?$AAI?$AA?$AA@ 0000000180061638     libucrt:lcidtoname_downlevel.obj
 0002:00005648       ??_C@_1O@MGJBOAMB@?$AAq?$AAu?$AAz?$AA?9?$AAP?$AAE?$AA?$AA@ 0000000180061648     libucrt:lcidtoname_downlevel.obj
 0002:00005658       ??_C@_1M@GJINLBOK@?$AAa?$AAr?$AA?9?$AAL?$AAY?$AA?$AA@ 0000000180061658     libucrt:lcidtoname_downlevel.obj
 0002:00005668       ??_C@_1M@GGMNHJNL@?$AAz?$AAh?$AA?9?$AAS?$AAG?$AA?$AA@ 0000000180061668     libucrt:lcidtoname_downlevel.obj
 0002:00005678       ??_C@_1M@HOIKODND@?$AAd?$AAe?$AA?9?$AAL?$AAU?$AA?$AA@ 0000000180061678     libucrt:lcidtoname_downlevel.obj
 0002:00005688       ??_C@_1M@DDOCCGFG@?$AAe?$AAn?$AA?9?$AAC?$AAA?$AA?$AA@ 0000000180061688     libucrt:lcidtoname_downlevel.obj
 0002:00005698       ??_C@_1M@BNOEMJLF@?$AAe?$AAs?$AA?9?$AAG?$AAT?$AA?$AA@ 0000000180061698     libucrt:lcidtoname_downlevel.obj
 0002:000056a8       ??_C@_1M@EOGNKEK@?$AAf?$AAr?$AA?9?$AAC?$AAH?$AA?$AA@ 00000001800616a8     libucrt:lcidtoname_downlevel.obj
 0002:000056b8       ??_C@_1M@FLIDJFHL@?$AAh?$AAr?$AA?9?$AAB?$AAA?$AA?$AA@ 00000001800616b8     libucrt:lcidtoname_downlevel.obj
 0002:000056c8       ??_C@_1O@FMCELNAJ@?$AAs?$AAm?$AAj?$AA?9?$AAN?$AAO?$AA?$AA@ 00000001800616c8     libucrt:lcidtoname_downlevel.obj
 0002:000056d8       ??_C@_1M@JHGLJMGJ@?$AAa?$AAr?$AA?9?$AAD?$AAZ?$AA?$AA@ 00000001800616d8     libucrt:lcidtoname_downlevel.obj
 0002:000056e8       ??_C@_1M@JKKFDCNP@?$AAz?$AAh?$AA?9?$AAM?$AAO?$AA?$AA@ 00000001800616e8     libucrt:lcidtoname_downlevel.obj
 0002:000056f8       ??_C@_1M@GEEFALPE@?$AAd?$AAe?$AA?9?$AAL?$AAI?$AA?$AA@ 00000001800616f8     libucrt:lcidtoname_downlevel.obj
 0002:00005708       ??_C@_1M@IGEOFBG@?$AAe?$AAn?$AA?9?$AAN?$AAZ?$AA?$AA@ 0000000180061708     libucrt:lcidtoname_downlevel.obj
 0002:00005718       ??_C@_1M@KDBONEHP@?$AAe?$AAs?$AA?9?$AAC?$AAR?$AA?$AA@ 0000000180061718     libucrt:lcidtoname_downlevel.obj
 0002:00005728       ??_C@_1M@FHMDOHNN@?$AAf?$AAr?$AA?9?$AAL?$AAU?$AA?$AA@ 0000000180061728     libucrt:lcidtoname_downlevel.obj
 0002:00005738       ??_C@_1BG@NFKKMAFG@?$AAb?$AAs?$AA?9?$AAB?$AAA?$AA?9?$AAL?$AAa?$AAt?$AAn?$AA?$AA@ 0000000180061738     libucrt:lcidtoname_downlevel.obj
 0002:00005750       ??_C@_1O@IMNBEMCI@?$AAs?$AAm?$AAj?$AA?9?$AAS?$AAE?$AA?$AA@ 0000000180061750     libucrt:lcidtoname_downlevel.obj
 0002:00005760       ??_C@_1M@DHHMBNDP@?$AAa?$AAr?$AA?9?$AAM?$AAA?$AA?$AA@ 0000000180061760     libucrt:lcidtoname_downlevel.obj
 0002:00005770       ??_C@_1M@BNBLJCGH@?$AAe?$AAn?$AA?9?$AAI?$AAE?$AA?$AA@ 0000000180061770     libucrt:lcidtoname_downlevel.obj
 0002:00005780       ??_C@_1M@GEPAFMDL@?$AAe?$AAs?$AA?9?$AAP?$AAA?$AA?$AA@ 0000000180061780     libucrt:lcidtoname_downlevel.obj
 0002:00005790       ??_C@_1M@OJONDMDL@?$AAf?$AAr?$AA?9?$AAM?$AAC?$AA?$AA@ 0000000180061790     libucrt:lcidtoname_downlevel.obj
 0002:000057a0       ??_C@_1BG@OBCNFJB@?$AAs?$AAr?$AA?9?$AAB?$AAA?$AA?9?$AAL?$AAa?$AAt?$AAn?$AA?$AA@ 00000001800617a0     libucrt:lcidtoname_downlevel.obj
 0002:000057b8       ??_C@_1O@KEMEEGPO@?$AAs?$AAm?$AAa?$AA?9?$AAN?$AAO?$AA?$AA@ 00000001800617b8     libucrt:lcidtoname_downlevel.obj
 0002:000057c8       ??_C@_1M@ELMGFODK@?$AAa?$AAr?$AA?9?$AAT?$AAN?$AA?$AA@ 00000001800617c8     libucrt:lcidtoname_downlevel.obj
 0002:000057d8       ??_C@_1M@BHDLHFAF@?$AAe?$AAn?$AA?9?$AAZ?$AAA?$AA?$AA@ 00000001800617d8     libucrt:lcidtoname_downlevel.obj
 0002:000057e8       ??_C@_1M@BMGIGLIF@?$AAe?$AAs?$AA?9?$AAD?$AAO?$AA?$AA@ 00000001800617e8     libucrt:lcidtoname_downlevel.obj
 0002:000057f8       ??_C@_1BG@CMBHIPBE@?$AAs?$AAr?$AA?9?$AAB?$AAA?$AA?9?$AAC?$AAy?$AAr?$AAl?$AA?$AA@ 00000001800617f8     libucrt:lcidtoname_downlevel.obj
 0002:00005810       ??_C@_1O@HEDBLHNP@?$AAs?$AAm?$AAa?$AA?9?$AAS?$AAE?$AA?$AA@ 0000000180061810     libucrt:lcidtoname_downlevel.obj
 0002:00005820       ??_C@_1M@DAGCADIM@?$AAa?$AAr?$AA?9?$AAO?$AAM?$AA?$AA@ 0000000180061820     libucrt:lcidtoname_downlevel.obj
 0002:00005830       ??_C@_1M@FODLMICG@?$AAe?$AAn?$AA?9?$AAJ?$AAM?$AA?$AA@ 0000000180061830     libucrt:lcidtoname_downlevel.obj
 0002:00005840       ??_C@_1M@DNMLCIHB@?$AAe?$AAs?$AA?9?$AAV?$AAE?$AA?$AA@ 0000000180061840     libucrt:lcidtoname_downlevel.obj
 0002:00005850       ??_C@_1O@EOKHMKJK@?$AAs?$AAm?$AAs?$AA?9?$AAF?$AAI?$AA?$AA@ 0000000180061850     libucrt:lcidtoname_downlevel.obj
 0002:00005860       ??_C@_1M@CAFJMKOF@?$AAa?$AAr?$AA?9?$AAY?$AAE?$AA?$AA@ 0000000180061860     libucrt:lcidtoname_downlevel.obj
 0002:00005870       ??_C@_1M@CBFHIJLI@?$AAe?$AAn?$AA?9?$AAC?$AAB?$AA?$AA@ 0000000180061870     libucrt:lcidtoname_downlevel.obj
 0002:00005880       ??_C@_1M@BGNFLDN@?$AAe?$AAs?$AA?9?$AAC?$AAO?$AA?$AA@ 0000000180061880     libucrt:lcidtoname_downlevel.obj
 0002:00005890       ??_C@_1O@JMPHMAMC@?$AAs?$AAm?$AAn?$AA?9?$AAF?$AAI?$AA?$AA@ 0000000180061890     libucrt:lcidtoname_downlevel.obj
 0002:000058a0       ??_C@_1M@JLANABKE@?$AAa?$AAr?$AA?9?$AAS?$AAY?$AA?$AA@ 00000001800618a0     libucrt:lcidtoname_downlevel.obj
 0002:000058b0       ??_C@_1M@HPKGCFGN@?$AAe?$AAn?$AA?9?$AAB?$AAZ?$AA?$AA@ 00000001800618b0     libucrt:lcidtoname_downlevel.obj
 0002:000058c0       ??_C@_1M@OLJCMLGM@?$AAe?$AAs?$AA?9?$AAP?$AAE?$AA?$AA@ 00000001800618c0     libucrt:lcidtoname_downlevel.obj
 0002:000058d0       ??_C@_1M@MKKGFKLE@?$AAa?$AAr?$AA?9?$AAJ?$AAO?$AA?$AA@ 00000001800618d0     libucrt:lcidtoname_downlevel.obj
 0002:000058e0       ??_C@_1M@EKPGLDNI@?$AAe?$AAn?$AA?9?$AAT?$AAT?$AA?$AA@ 00000001800618e0     libucrt:lcidtoname_downlevel.obj
 0002:000058f0       ??_C@_1M@OONGHFHE@?$AAe?$AAs?$AA?9?$AAA?$AAR?$AA?$AA@ 00000001800618f0     libucrt:lcidtoname_downlevel.obj
 0002:00005900       ??_C@_1M@OOJFGBHE@?$AAa?$AAr?$AA?9?$AAL?$AAB?$AA?$AA@ 0000000180061900     libucrt:lcidtoname_downlevel.obj
 0002:00005910       ??_C@_1M@GCEJHNEG@?$AAe?$AAn?$AA?9?$AAZ?$AAW?$AA?$AA@ 0000000180061910     libucrt:lcidtoname_downlevel.obj
 0002:00005920       ??_C@_1M@JNOCAHJI@?$AAe?$AAs?$AA?9?$AAE?$AAC?$AA?$AA@ 0000000180061920     libucrt:lcidtoname_downlevel.obj
 0002:00005930       ??_C@_1M@JEFHPGGB@?$AAa?$AAr?$AA?9?$AAK?$AAW?$AA?$AA@ 0000000180061930     libucrt:lcidtoname_downlevel.obj
 0002:00005940       ??_C@_1M@MLKIBJOJ@?$AAe?$AAn?$AA?9?$AAP?$AAH?$AA?$AA@ 0000000180061940     libucrt:lcidtoname_downlevel.obj
 0002:00005950       ??_C@_1M@BDNIPEND@?$AAe?$AAs?$AA?9?$AAC?$AAL?$AA?$AA@ 0000000180061950     libucrt:lcidtoname_downlevel.obj
 0002:00005960       ??_C@_1M@MPNMEKBD@?$AAa?$AAr?$AA?9?$AAA?$AAE?$AA?$AA@ 0000000180061960     libucrt:lcidtoname_downlevel.obj
 0002:00005970       ??_C@_1M@KBJALCPI@?$AAe?$AAs?$AA?9?$AAU?$AAY?$AA?$AA@ 0000000180061970     libucrt:lcidtoname_downlevel.obj
 0002:00005980       ??_C@_1M@LLCCOAGA@?$AAa?$AAr?$AA?9?$AAB?$AAH?$AA?$AA@ 0000000180061980     libucrt:lcidtoname_downlevel.obj
 0002:00005990       ??_C@_1M@PBFNCDEL@?$AAe?$AAs?$AA?9?$AAP?$AAY?$AA?$AA@ 0000000180061990     libucrt:lcidtoname_downlevel.obj
 0002:000059a0       ??_C@_1M@EDGINPNP@?$AAa?$AAr?$AA?9?$AAQ?$AAA?$AA?$AA@ 00000001800619a0     libucrt:lcidtoname_downlevel.obj
 0002:000059b0       ??_C@_1M@MKDBIIJI@?$AAe?$AAs?$AA?9?$AAB?$AAO?$AA?$AA@ 00000001800619b0     libucrt:lcidtoname_downlevel.obj
 0002:000059c0       ??_C@_1M@CPKKEBLD@?$AAe?$AAs?$AA?9?$AAS?$AAV?$AA?$AA@ 00000001800619c0     libucrt:lcidtoname_downlevel.obj
 0002:000059d0       ??_C@_1M@NDBGMMJL@?$AAe?$AAs?$AA?9?$AAH?$AAN?$AA?$AA@ 00000001800619d0     libucrt:lcidtoname_downlevel.obj
 0002:000059e0       ??_C@_1M@JIJIBHDP@?$AAe?$AAs?$AA?9?$AAN?$AAI?$AA?$AA@ 00000001800619e0     libucrt:lcidtoname_downlevel.obj
 0002:000059f0       ??_C@_1M@CGFMKEEK@?$AAe?$AAs?$AA?9?$AAP?$AAR?$AA?$AA@ 00000001800619f0     libucrt:lcidtoname_downlevel.obj
 0002:00005a00       ??_C@_1O@ICJHKIIK@?$AAz?$AAh?$AA?9?$AAC?$AAH?$AAT?$AA?$AA@ 0000000180061a00     libucrt:lcidtoname_downlevel.obj
 0002:00005a10       ??_C@_15CLNEJCE@?$AAs?$AAr?$AA?$AA@ 0000000180061a10     libucrt:lcidtoname_downlevel.obj
 0002:00006860       ??_C@_1M@KAHEKEIG@?$AAa?$AAf?$AA?9?$AAz?$AAa?$AA?$AA@ 0000000180062860     libucrt:lcidtoname_downlevel.obj
 0002:00006870       ??_C@_1M@GIECOABL@?$AAa?$AAr?$AA?9?$AAa?$AAe?$AA?$AA@ 0000000180062870     libucrt:lcidtoname_downlevel.obj
 0002:00006880       ??_C@_1M@BMLMEKGI@?$AAa?$AAr?$AA?9?$AAb?$AAh?$AA?$AA@ 0000000180062880     libucrt:lcidtoname_downlevel.obj
 0002:00006890       ??_C@_1M@DAPFDGGB@?$AAa?$AAr?$AA?9?$AAd?$AAz?$AA?$AA@ 0000000180062890     libucrt:lcidtoname_downlevel.obj
 0002:000068a0       ??_C@_1M@FJNKGKIG@?$AAa?$AAr?$AA?9?$AAe?$AAg?$AA?$AA@ 00000001800628a0     libucrt:lcidtoname_downlevel.obj
 0002:000068b0       ??_C@_1M@FLGKKCLO@?$AAa?$AAr?$AA?9?$AAi?$AAq?$AA?$AA@ 00000001800628b0     libucrt:lcidtoname_downlevel.obj
 0002:000068c0       ??_C@_1M@GNDIPALM@?$AAa?$AAr?$AA?9?$AAj?$AAo?$AA?$AA@ 00000001800628c0     libucrt:lcidtoname_downlevel.obj
 0002:000068d0       ??_C@_1M@DDMJFMGJ@?$AAa?$AAr?$AA?9?$AAk?$AAw?$AA?$AA@ 00000001800628d0     libucrt:lcidtoname_downlevel.obj
 0002:000068e0       ??_C@_1M@EJALMLHM@?$AAa?$AAr?$AA?9?$AAl?$AAb?$AA?$AA@ 00000001800628e0     libucrt:lcidtoname_downlevel.obj
 0002:000068f0       ??_C@_1M@MOBDBLOC@?$AAa?$AAr?$AA?9?$AAl?$AAy?$AA?$AA@ 00000001800628f0     libucrt:lcidtoname_downlevel.obj
 0002:00006900       ??_C@_1M@JAOCLHDH@?$AAa?$AAr?$AA?9?$AAm?$AAa?$AA?$AA@ 0000000180062900     libucrt:lcidtoname_downlevel.obj
 0002:00006910       ??_C@_1M@JHPMKJIE@?$AAa?$AAr?$AA?9?$AAo?$AAm?$AA?$AA@ 0000000180062910     libucrt:lcidtoname_downlevel.obj
 0002:00006920       ??_C@_1M@OEPGHFNH@?$AAa?$AAr?$AA?9?$AAq?$AAa?$AA?$AA@ 0000000180062920     libucrt:lcidtoname_downlevel.obj
 0002:00006930       ??_C@_1M@KJDONENM@?$AAa?$AAr?$AA?9?$AAs?$AAa?$AA?$AA@ 0000000180062930     libucrt:lcidtoname_downlevel.obj
 0002:00006940       ??_C@_1M@DMJDKLKM@?$AAa?$AAr?$AA?9?$AAs?$AAy?$AA?$AA@ 0000000180062940     libucrt:lcidtoname_downlevel.obj
 0002:00006950       ??_C@_1M@OMFIPEDC@?$AAa?$AAr?$AA?9?$AAt?$AAn?$AA?$AA@ 0000000180062950     libucrt:lcidtoname_downlevel.obj
 0002:00006960       ??_C@_1M@IHMHGAON@?$AAa?$AAr?$AA?9?$AAy?$AAe?$AA?$AA@ 0000000180062960     libucrt:lcidtoname_downlevel.obj
 0002:00006970       ??_C@_1BG@KDCPGJGB@?$AAa?$AAz?$AA?9?$AAa?$AAz?$AA?9?$AAc?$AAy?$AAr?$AAl?$AA?$AA@ 0000000180062970     libucrt:lcidtoname_downlevel.obj
 0002:00006988       ??_C@_1BG@IBCKDDOE@?$AAa?$AAz?$AA?9?$AAa?$AAz?$AA?9?$AAl?$AAa?$AAt?$AAn?$AA?$AA@ 0000000180062988     libucrt:lcidtoname_downlevel.obj
 0002:000069a0       ??_C@_1M@EGPFDCPD@?$AAb?$AAe?$AA?9?$AAb?$AAy?$AA?$AA@ 00000001800629a0     libucrt:lcidtoname_downlevel.obj
 0002:000069b0       ??_C@_1M@PCMGMCGC@?$AAb?$AAg?$AA?9?$AAb?$AAg?$AA?$AA@ 00000001800629b0     libucrt:lcidtoname_downlevel.obj
 0002:000069c0       ??_C@_1M@BJBMFGOB@?$AAb?$AAn?$AA?9?$AAi?$AAn?$AA?$AA@ 00000001800629c0     libucrt:lcidtoname_downlevel.obj
 0002:000069d0       ??_C@_1BG@EAKMMACD@?$AAb?$AAs?$AA?9?$AAb?$AAa?$AA?9?$AAl?$AAa?$AAt?$AAn?$AA?$AA@ 00000001800629d0     libucrt:lcidtoname_downlevel.obj
 0002:000069e8       ??_C@_1M@KGADAODK@?$AAc?$AAa?$AA?9?$AAe?$AAs?$AA?$AA@ 00000001800629e8     libucrt:lcidtoname_downlevel.obj
 0002:000069f8       ??_C@_1M@COAJPDHI@?$AAc?$AAs?$AA?9?$AAc?$AAz?$AA?$AA@ 00000001800629f8     libucrt:lcidtoname_downlevel.obj
 0002:00006a08       ??_C@_1M@DHBHFONH@?$AAc?$AAy?$AA?9?$AAg?$AAb?$AA?$AA@ 0000000180062a08     libucrt:lcidtoname_downlevel.obj
 0002:00006a18       ??_C@_1M@IMGKELGA@?$AAd?$AAa?$AA?9?$AAd?$AAk?$AA?$AA@ 0000000180062a18     libucrt:lcidtoname_downlevel.obj
 0002:00006a28       ??_C@_1M@NNDGDNGA@?$AAd?$AAe?$AA?9?$AAa?$AAt?$AA?$AA@ 0000000180062a28     libucrt:lcidtoname_downlevel.obj
 0002:00006a38       ??_C@_1M@IKDBHEEM@?$AAd?$AAe?$AA?9?$AAc?$AAh?$AA?$AA@ 0000000180062a38     libucrt:lcidtoname_downlevel.obj
 0002:00006a48       ??_C@_1M@GFFOJMCJ@?$AAd?$AAe?$AA?9?$AAd?$AAe?$AA?$AA@ 0000000180062a48     libucrt:lcidtoname_downlevel.obj
 0002:00006a58       ??_C@_1M@MDNLKBPM@?$AAd?$AAe?$AA?9?$AAl?$AAi?$AA?$AA@ 0000000180062a58     libucrt:lcidtoname_downlevel.obj
 0002:00006a68       ??_C@_1M@NJBEEJNL@?$AAd?$AAe?$AA?9?$AAl?$AAu?$AA?$AA@ 0000000180062a68     libucrt:lcidtoname_downlevel.obj
 0002:00006a78       ??_C@_1O@GNNELBAP@?$AAd?$AAi?$AAv?$AA?9?$AAm?$AAv?$AA?$AA@ 0000000180062a78     libucrt:lcidtoname_downlevel.obj
 0002:00006a88       ??_C@_1M@EJLEOGAE@?$AAe?$AAl?$AA?9?$AAg?$AAr?$AA?$AA@ 0000000180062a88     libucrt:lcidtoname_downlevel.obj
 0002:00006a98       ??_C@_1M@GMPONJN@?$AAe?$AAn?$AA?9?$AAa?$AAu?$AA?$AA@ 0000000180062a98     libucrt:lcidtoname_downlevel.obj
 0002:00006aa8       ??_C@_1M@NIDIIPGF@?$AAe?$AAn?$AA?9?$AAb?$AAz?$AA?$AA@ 0000000180062aa8     libucrt:lcidtoname_downlevel.obj
 0002:00006ab8       ??_C@_1M@JEHMIMFO@?$AAe?$AAn?$AA?9?$AAc?$AAa?$AA?$AA@ 0000000180062ab8     libucrt:lcidtoname_downlevel.obj
 0002:00006ac8       ??_C@_1M@IGMJCDLA@?$AAe?$AAn?$AA?9?$AAc?$AAb?$AA?$AA@ 0000000180062ac8     libucrt:lcidtoname_downlevel.obj
 0002:00006ad8       ??_C@_1M@BNFIGBKG@?$AAe?$AAn?$AA?9?$AAg?$AAb?$AA?$AA@ 0000000180062ad8     libucrt:lcidtoname_downlevel.obj
 0002:00006ae8       ??_C@_1M@LKIFDIGP@?$AAe?$AAn?$AA?9?$AAi?$AAe?$AA?$AA@ 0000000180062ae8     libucrt:lcidtoname_downlevel.obj
 0002:00006af8       ??_C@_1M@PJKFGCCO@?$AAe?$AAn?$AA?9?$AAj?$AAm?$AA?$AA@ 0000000180062af8     libucrt:lcidtoname_downlevel.obj
 0002:00006b08       ??_C@_1M@KPPKEPBO@?$AAe?$AAn?$AA?9?$AAn?$AAz?$AA?$AA@ 0000000180062b08     libucrt:lcidtoname_downlevel.obj
 0002:00006b18       ??_C@_1M@GMDGLDOB@?$AAe?$AAn?$AA?9?$AAp?$AAh?$AA?$AA@ 0000000180062b18     libucrt:lcidtoname_downlevel.obj
 0002:00006b28       ??_C@_1M@ONGIBJNA@?$AAe?$AAn?$AA?9?$AAt?$AAt?$AA?$AA@ 0000000180062b28     libucrt:lcidtoname_downlevel.obj
 0002:00006b38       ??_C@_1M@LLODPCMM@?$AAe?$AAn?$AA?9?$AAu?$AAs?$AA?$AA@ 0000000180062b38     libucrt:lcidtoname_downlevel.obj
 0002:00006b48       ??_C@_1M@LAKFNPAN@?$AAe?$AAn?$AA?9?$AAz?$AAa?$AA?$AA@ 0000000180062b48     libucrt:lcidtoname_downlevel.obj
 0002:00006b58       ??_C@_1M@MFNHNHEO@?$AAe?$AAn?$AA?9?$AAz?$AAw?$AA?$AA@ 0000000180062b58     libucrt:lcidtoname_downlevel.obj
 0002:00006b68       ??_C@_1M@EJEINPHM@?$AAe?$AAs?$AA?9?$AAa?$AAr?$AA?$AA@ 0000000180062b68     libucrt:lcidtoname_downlevel.obj
 0002:00006b78       ??_C@_1M@GNKPCCJA@?$AAe?$AAs?$AA?9?$AAb?$AAo?$AA?$AA@ 0000000180062b78     libucrt:lcidtoname_downlevel.obj
 0002:00006b88       ??_C@_1M@LEEGFONL@?$AAe?$AAs?$AA?9?$AAc?$AAl?$AA?$AA@ 0000000180062b88     libucrt:lcidtoname_downlevel.obj
 0002:00006b98       ??_C@_1M@KGPDPBDF@?$AAe?$AAs?$AA?9?$AAc?$AAo?$AA?$AA@ 0000000180062b98     libucrt:lcidtoname_downlevel.obj
 0002:00006ba8       ??_C@_1M@EIAHOHH@?$AAe?$AAs?$AA?9?$AAc?$AAr?$AA?$AA@ 0000000180062ba8     libucrt:lcidtoname_downlevel.obj
 0002:00006bb8       ??_C@_1M@LLPGMBIN@?$AAe?$AAs?$AA?9?$AAd?$AAo?$AA?$AA@ 0000000180062bb8     libucrt:lcidtoname_downlevel.obj
 0002:00006bc8       ??_C@_1M@DKHMKNJA@?$AAe?$AAs?$AA?9?$AAe?$AAc?$AA?$AA@ 0000000180062bc8     libucrt:lcidtoname_downlevel.obj
 0002:00006bd8       ??_C@_1M@GKGFPKAP@?$AAe?$AAs?$AA?9?$AAe?$AAs?$AA?$AA@ 0000000180062bd8     libucrt:lcidtoname_downlevel.obj
 0002:00006be8       ??_C@_1M@LKHKGDLN@?$AAe?$AAs?$AA?9?$AAg?$AAt?$AA?$AA@ 0000000180062be8     libucrt:lcidtoname_downlevel.obj
 0002:00006bf8       ??_C@_1M@HEIIGGJD@?$AAe?$AAs?$AA?9?$AAh?$AAn?$AA?$AA@ 0000000180062bf8     libucrt:lcidtoname_downlevel.obj
 0002:00006c08       ??_C@_1M@FBDHPPGD@?$AAe?$AAs?$AA?9?$AAm?$AAx?$AA?$AA@ 0000000180062c08     libucrt:lcidtoname_downlevel.obj
 0002:00006c18       ??_C@_1M@DPAGLNDH@?$AAe?$AAs?$AA?9?$AAn?$AAi?$AA?$AA@ 0000000180062c18     libucrt:lcidtoname_downlevel.obj
 0002:00006c28       ??_C@_1M@MDGOPGDD@?$AAe?$AAs?$AA?9?$AAp?$AAa?$AA?$AA@ 0000000180062c28     libucrt:lcidtoname_downlevel.obj
 0002:00006c38       ??_C@_1M@EMAMGBGE@?$AAe?$AAs?$AA?9?$AAp?$AAe?$AA?$AA@ 0000000180062c38     libucrt:lcidtoname_downlevel.obj
 0002:00006c48       ??_C@_1M@IBMCAOEC@?$AAe?$AAs?$AA?9?$AAp?$AAr?$AA?$AA@ 0000000180062c48     libucrt:lcidtoname_downlevel.obj
 0002:00006c58       ??_C@_1M@FGMDIJED@?$AAe?$AAs?$AA?9?$AAp?$AAy?$AA?$AA@ 0000000180062c58     libucrt:lcidtoname_downlevel.obj
 0002:00006c68       ??_C@_1M@IIDEOLLL@?$AAe?$AAs?$AA?9?$AAs?$AAv?$AA?$AA@ 0000000180062c68     libucrt:lcidtoname_downlevel.obj
 0002:00006c78       ??_C@_1M@GAOBIPA@?$AAe?$AAs?$AA?9?$AAu?$AAy?$AA?$AA@ 0000000180062c78     libucrt:lcidtoname_downlevel.obj
 0002:00006c88       ??_C@_1M@JKFFICHJ@?$AAe?$AAs?$AA?9?$AAv?$AAe?$AA?$AA@ 0000000180062c88     libucrt:lcidtoname_downlevel.obj
 0002:00006c98       ??_C@_1M@PNMLOJDF@?$AAe?$AAt?$AA?9?$AAe?$AAe?$AA?$AA@ 0000000180062c98     libucrt:lcidtoname_downlevel.obj
 0002:00006ca8       ??_C@_1M@GHHLIKEI@?$AAe?$AAu?$AA?9?$AAe?$AAs?$AA?$AA@ 0000000180062ca8     libucrt:lcidtoname_downlevel.obj
 0002:00006cb8       ??_C@_1M@PBNONODE@?$AAf?$AAa?$AA?9?$AAi?$AAr?$AA?$AA@ 0000000180062cb8     libucrt:lcidtoname_downlevel.obj
 0002:00006cc8       ??_C@_1M@JEEHPMIL@?$AAf?$AAi?$AA?9?$AAf?$AAi?$AA?$AA@ 0000000180062cc8     libucrt:lcidtoname_downlevel.obj
 0002:00006cd8       ??_C@_1M@LMDCNDBA@?$AAf?$AAo?$AA?9?$AAf?$AAo?$AA?$AA@ 0000000180062cd8     libucrt:lcidtoname_downlevel.obj
 0002:00006ce8       ??_C@_1M@JKEOHLDK@?$AAf?$AAr?$AA?9?$AAb?$AAe?$AA?$AA@ 0000000180062ce8     libucrt:lcidtoname_downlevel.obj
 0002:00006cf8       ??_C@_1M@NOHADPMI@?$AAf?$AAr?$AA?9?$AAc?$AAa?$AA?$AA@ 0000000180062cf8     libucrt:lcidtoname_downlevel.obj
 0002:00006d08       ??_C@_1M@KDHIHAEC@?$AAf?$AAr?$AA?9?$AAc?$AAh?$AA?$AA@ 0000000180062d08     libucrt:lcidtoname_downlevel.obj
 0002:00006d18       ??_C@_1M@MMBBFGAK@?$AAf?$AAr?$AA?9?$AAf?$AAr?$AA?$AA@ 0000000180062d18     libucrt:lcidtoname_downlevel.obj
 0002:00006d28       ??_C@_1M@PAFNENNF@?$AAf?$AAr?$AA?9?$AAl?$AAu?$AA?$AA@ 0000000180062d28     libucrt:lcidtoname_downlevel.obj
 0002:00006d38       ??_C@_1M@EOHDJGDD@?$AAf?$AAr?$AA?9?$AAm?$AAc?$AA?$AA@ 0000000180062d38     libucrt:lcidtoname_downlevel.obj
 0002:00006d48       ??_C@_1M@FAPLLOPF@?$AAg?$AAl?$AA?9?$AAe?$AAs?$AA?$AA@ 0000000180062d48     libucrt:lcidtoname_downlevel.obj
 0002:00006d58       ??_C@_1M@FOPBFLOO@?$AAg?$AAu?$AA?9?$AAi?$AAn?$AA?$AA@ 0000000180062d58     libucrt:lcidtoname_downlevel.obj
 0002:00006d68       ??_C@_1M@KBMCINPM@?$AAh?$AAe?$AA?9?$AAi?$AAl?$AA?$AA@ 0000000180062d68     libucrt:lcidtoname_downlevel.obj
 0002:00006d78       ??_C@_1M@BBPHKFPJ@?$AAh?$AAi?$AA?9?$AAi?$AAn?$AA?$AA@ 0000000180062d78     libucrt:lcidtoname_downlevel.obj
 0002:00006d88       ??_C@_1M@PMBNDPHD@?$AAh?$AAr?$AA?9?$AAb?$AAa?$AA?$AA@ 0000000180062d88     libucrt:lcidtoname_downlevel.obj
 0002:00006d98       ??_C@_1M@BPCKOEGE@?$AAh?$AAr?$AA?9?$AAh?$AAr?$AA?$AA@ 0000000180062d98     libucrt:lcidtoname_downlevel.obj
 0002:00006da8       ??_C@_1M@GACBMHKE@?$AAh?$AAu?$AA?9?$AAh?$AAu?$AA?$AA@ 0000000180062da8     libucrt:lcidtoname_downlevel.obj
 0002:00006db8       ??_C@_1M@MILPAJJC@?$AAh?$AAy?$AA?9?$AAa?$AAm?$AA?$AA@ 0000000180062db8     libucrt:lcidtoname_downlevel.obj
 0002:00006dc8       ??_C@_1M@BABBICEC@?$AAi?$AAd?$AA?9?$AAi?$AAd?$AA?$AA@ 0000000180062dc8     libucrt:lcidtoname_downlevel.obj
 0002:00006dd8       ??_C@_1M@BIKNHHPF@?$AAi?$AAs?$AA?9?$AAi?$AAs?$AA?$AA@ 0000000180062dd8     libucrt:lcidtoname_downlevel.obj
 0002:00006de8       ??_C@_1M@NMPCJPHE@?$AAi?$AAt?$AA?9?$AAc?$AAh?$AA?$AA@ 0000000180062de8     libucrt:lcidtoname_downlevel.obj
 0002:00006df8       ??_C@_1M@GHKGFEDF@?$AAi?$AAt?$AA?9?$AAi?$AAt?$AA?$AA@ 0000000180062df8     libucrt:lcidtoname_downlevel.obj
 0002:00006e08       ??_C@_1M@NIEJCJJA@?$AAj?$AAa?$AA?9?$AAj?$AAp?$AA?$AA@ 0000000180062e08     libucrt:lcidtoname_downlevel.obj
 0002:00006e18       ??_C@_1M@JILFNBIM@?$AAk?$AAa?$AA?9?$AAg?$AAe?$AA?$AA@ 0000000180062e18     libucrt:lcidtoname_downlevel.obj
 0002:00006e28       ??_C@_1M@PACPMGPH@?$AAk?$AAk?$AA?9?$AAk?$AAz?$AA?$AA@ 0000000180062e28     libucrt:lcidtoname_downlevel.obj
 0002:00006e38       ??_C@_1M@IELFGMHA@?$AAk?$AAn?$AA?9?$AAi?$AAn?$AA?$AA@ 0000000180062e38     libucrt:lcidtoname_downlevel.obj
 0002:00006e48       ??_C@_1O@IBBJHCH@?$AAk?$AAo?$AAk?$AA?9?$AAi?$AAn?$AA?$AA@ 0000000180062e48     libucrt:lcidtoname_downlevel.obj
 0002:00006e58       ??_C@_1M@DMHAEOGC@?$AAk?$AAo?$AA?9?$AAk?$AAr?$AA?$AA@ 0000000180062e58     libucrt:lcidtoname_downlevel.obj
 0002:00006e68       ??_C@_1M@HBAHBIGA@?$AAk?$AAy?$AA?9?$AAk?$AAg?$AA?$AA@ 0000000180062e68     libucrt:lcidtoname_downlevel.obj
 0002:00006e78       ??_C@_1M@KPMILCJG@?$AAl?$AAt?$AA?9?$AAl?$AAt?$AA?$AA@ 0000000180062e78     libucrt:lcidtoname_downlevel.obj
 0002:00006e88       ??_C@_1M@BDEKKCA@?$AAl?$AAv?$AA?9?$AAl?$AAv?$AA?$AA@ 0000000180062e88     libucrt:lcidtoname_downlevel.obj
 0002:00006e98       ??_C@_1M@ELCKCCJJ@?$AAm?$AAi?$AA?9?$AAn?$AAz?$AA?$AA@ 0000000180062e98     libucrt:lcidtoname_downlevel.obj
 0002:00006ea8       ??_C@_1M@CBOOLAPA@?$AAm?$AAk?$AA?9?$AAm?$AAk?$AA?$AA@ 0000000180062ea8     libucrt:lcidtoname_downlevel.obj
 0002:00006eb8       ??_C@_1M@GPHNBJKN@?$AAm?$AAl?$AA?9?$AAi?$AAn?$AA?$AA@ 0000000180062eb8     libucrt:lcidtoname_downlevel.obj
 0002:00006ec8       ??_C@_1M@PABJILIG@?$AAm?$AAn?$AA?9?$AAm?$AAn?$AA?$AA@ 0000000180062ec8     libucrt:lcidtoname_downlevel.obj
 0002:00006ed8       ??_C@_1M@FGBKKIPG@?$AAm?$AAr?$AA?9?$AAi?$AAn?$AA?$AA@ 0000000180062ed8     libucrt:lcidtoname_downlevel.obj
 0002:00006ee8       ??_C@_1M@NDBPDDAL@?$AAm?$AAs?$AA?9?$AAb?$AAn?$AA?$AA@ 0000000180062ee8     libucrt:lcidtoname_downlevel.obj
 0002:00006ef8       ??_C@_1M@OPIHOOPI@?$AAm?$AAs?$AA?9?$AAm?$AAy?$AA?$AA@ 0000000180062ef8     libucrt:lcidtoname_downlevel.obj
 0002:00006f08       ??_C@_1M@PPDBCNFM@?$AAm?$AAt?$AA?9?$AAm?$AAt?$AA?$AA@ 0000000180062f08     libucrt:lcidtoname_downlevel.obj
 0002:00006f18       ??_C@_1M@KDJDKMDD@?$AAn?$AAb?$AA?9?$AAn?$AAo?$AA?$AA@ 0000000180062f18     libucrt:lcidtoname_downlevel.obj
 0002:00006f28       ??_C@_1M@KFCFLMJP@?$AAn?$AAl?$AA?9?$AAb?$AAe?$AA?$AA@ 0000000180062f28     libucrt:lcidtoname_downlevel.obj
 0002:00006f38       ??_C@_1M@KPOPDDGO@?$AAn?$AAl?$AA?9?$AAn?$AAl?$AA?$AA@ 0000000180062f38     libucrt:lcidtoname_downlevel.obj
 0002:00006f48       ??_C@_1M@LJKPEMLN@?$AAn?$AAn?$AA?9?$AAn?$AAo?$AA?$AA@ 0000000180062f48     libucrt:lcidtoname_downlevel.obj
 0002:00006f58       ??_C@_1M@BDGHHBFL@?$AAn?$AAs?$AA?9?$AAz?$AAa?$AA?$AA@ 0000000180062f58     libucrt:lcidtoname_downlevel.obj
 0002:00006f68       ??_C@_1M@IDEHOAP@?$AAp?$AAa?$AA?9?$AAi?$AAn?$AA?$AA@ 0000000180062f68     libucrt:lcidtoname_downlevel.obj
 0002:00006f78       ??_C@_1M@HDBKGOGH@?$AAp?$AAl?$AA?9?$AAp?$AAl?$AA?$AA@ 0000000180062f78     libucrt:lcidtoname_downlevel.obj
 0002:00006f88       ??_C@_1M@LJLLCMEH@?$AAp?$AAt?$AA?9?$AAb?$AAr?$AA?$AA@ 0000000180062f88     libucrt:lcidtoname_downlevel.obj
 0002:00006f98       ??_C@_1M@NCMONAAL@?$AAp?$AAt?$AA?9?$AAp?$AAt?$AA?$AA@ 0000000180062f98     libucrt:lcidtoname_downlevel.obj
 0002:00006fa8       ??_C@_1O@EAKMAJDN@?$AAq?$AAu?$AAz?$AA?9?$AAb?$AAo?$AA?$AA@ 0000000180062fa8     libucrt:lcidtoname_downlevel.obj
 0002:00006fb8       ??_C@_1O@BHHPIGDN@?$AAq?$AAu?$AAz?$AA?9?$AAe?$AAc?$AA?$AA@ 0000000180062fb8     libucrt:lcidtoname_downlevel.obj
 0002:00006fc8       ??_C@_1O@GBAPEKMJ@?$AAq?$AAu?$AAz?$AA?9?$AAp?$AAe?$AA?$AA@ 0000000180062fc8     libucrt:lcidtoname_downlevel.obj
 0002:00006fd8       ??_C@_1M@CLGLEFBO@?$AAr?$AAo?$AA?9?$AAr?$AAo?$AA?$AA@ 0000000180062fd8     libucrt:lcidtoname_downlevel.obj
 0002:00006fe8       ??_C@_1M@CEEDODME@?$AAr?$AAu?$AA?9?$AAr?$AAu?$AA?$AA@ 0000000180062fe8     libucrt:lcidtoname_downlevel.obj
 0002:00006ff8       ??_C@_1M@HPKKKMPP@?$AAs?$AAa?$AA?9?$AAi?$AAn?$AA?$AA@ 0000000180062ff8     libucrt:lcidtoname_downlevel.obj
 0002:00007008       ??_C@_1M@BKMAIGOJ@?$AAs?$AAe?$AA?9?$AAf?$AAi?$AA?$AA@ 0000000180063008     libucrt:lcidtoname_downlevel.obj
 0002:00007018       ??_C@_1M@NDPIFLFI@?$AAs?$AAe?$AA?9?$AAn?$AAo?$AA?$AA@ 0000000180063018     libucrt:lcidtoname_downlevel.obj
 0002:00007028       ??_C@_1M@DANKKHJ@?$AAs?$AAe?$AA?9?$AAs?$AAe?$AA?$AA@ 0000000180063028     libucrt:lcidtoname_downlevel.obj
 0002:00007038       ??_C@_1M@PNBLONPJ@?$AAs?$AAk?$AA?9?$AAs?$AAk?$AA?$AA@ 0000000180063038     libucrt:lcidtoname_downlevel.obj
 0002:00007048       ??_C@_1M@LFMODOAL@?$AAs?$AAl?$AA?9?$AAs?$AAi?$AA?$AA@ 0000000180063048     libucrt:lcidtoname_downlevel.obj
 0002:00007058       ??_C@_1O@DFKOMPG@?$AAs?$AAm?$AAa?$AA?9?$AAn?$AAo?$AA?$AA@ 0000000180063058     libucrt:lcidtoname_downlevel.obj
 0002:00007068       ??_C@_1O@NDKPBNNH@?$AAs?$AAm?$AAa?$AA?9?$AAs?$AAe?$AA?$AA@ 0000000180063068     libucrt:lcidtoname_downlevel.obj
 0002:00007078       ??_C@_1O@PLLKBHAB@?$AAs?$AAm?$AAj?$AA?9?$AAn?$AAo?$AA?$AA@ 0000000180063078     libucrt:lcidtoname_downlevel.obj
 0002:00007088       ??_C@_1O@CLEPOGCA@?$AAs?$AAm?$AAj?$AA?9?$AAs?$AAe?$AA?$AA@ 0000000180063088     libucrt:lcidtoname_downlevel.obj
 0002:00007098       ??_C@_1O@DLGJGKMK@?$AAs?$AAm?$AAn?$AA?9?$AAf?$AAi?$AA?$AA@ 0000000180063098     libucrt:lcidtoname_downlevel.obj
 0002:000070a8       ??_C@_1O@OJDJGAJC@?$AAs?$AAm?$AAs?$AA?9?$AAf?$AAi?$AA?$AA@ 00000001800630a8     libucrt:lcidtoname_downlevel.obj
 0002:000070b8       ??_C@_1M@BOFOGHPB@?$AAs?$AAq?$AA?9?$AAa?$AAl?$AA?$AA@ 00000001800630b8     libucrt:lcidtoname_downlevel.obj
 0002:000070c8       ??_C@_1BG@LJBBIPGB@?$AAs?$AAr?$AA?9?$AAb?$AAa?$AA?9?$AAc?$AAy?$AAr?$AAl?$AA?$AA@ 00000001800630c8     libucrt:lcidtoname_downlevel.obj
 0002:000070e0       ??_C@_1BG@JLBENFOE@?$AAs?$AAr?$AA?9?$AAb?$AAa?$AA?9?$AAl?$AAa?$AAt?$AAn?$AA?$AA@ 00000001800630e0     libucrt:lcidtoname_downlevel.obj
 0002:000070f8       ??_C@_1BG@KODPNHE@?$AAs?$AAr?$AA?9?$AAs?$AAp?$AA?9?$AAc?$AAy?$AAr?$AAl?$AA?$AA@ 00000001800630f8     libucrt:lcidtoname_downlevel.obj
 0002:00007110       ??_C@_1BG@CIOGKHPB@?$AAs?$AAr?$AA?9?$AAs?$AAp?$AA?9?$AAl?$AAa?$AAt?$AAn?$AA?$AA@ 0000000180063110     libucrt:lcidtoname_downlevel.obj
 0002:00007128       ??_C@_1M@NGFJLMAC@?$AAs?$AAv?$AA?9?$AAf?$AAi?$AA?$AA@ 0000000180063128     libucrt:lcidtoname_downlevel.obj
 0002:00007138       ??_C@_1M@MPJEJAJC@?$AAs?$AAv?$AA?9?$AAs?$AAe?$AA?$AA@ 0000000180063138     libucrt:lcidtoname_downlevel.obj
 0002:00007148       ??_C@_1M@MPNDHLFK@?$AAs?$AAw?$AA?9?$AAk?$AAe?$AA?$AA@ 0000000180063148     libucrt:lcidtoname_downlevel.obj
 0002:00007158       ??_C@_1O@KOHBJJI@?$AAs?$AAy?$AAr?$AA?9?$AAs?$AAy?$AA?$AA@ 0000000180063158     libucrt:lcidtoname_downlevel.obj
 0002:00007168       ??_C@_1M@LDCEFHA@?$AAt?$AAa?$AA?9?$AAi?$AAn?$AA?$AA@ 0000000180063168     libucrt:lcidtoname_downlevel.obj
 0002:00007178       ??_C@_1M@CNJOFAK@?$AAt?$AAe?$AA?9?$AAi?$AAn?$AA?$AA@ 0000000180063178     libucrt:lcidtoname_downlevel.obj
 0002:00007188       ??_C@_1M@GNAECACD@?$AAt?$AAh?$AA?9?$AAt?$AAh?$AA?$AA@ 0000000180063188     libucrt:lcidtoname_downlevel.obj
 0002:00007198       ??_C@_1M@CHBIHOJO@?$AAt?$AAn?$AA?9?$AAz?$AAa?$AA?$AA@ 0000000180063198     libucrt:lcidtoname_downlevel.obj
 0002:000071a8       ??_C@_1M@GCCMIGPJ@?$AAt?$AAr?$AA?9?$AAt?$AAr?$AA?$AA@ 00000001800631a8     libucrt:lcidtoname_downlevel.obj
 0002:000071b8       ??_C@_1M@CELMCNBK@?$AAt?$AAt?$AA?9?$AAr?$AAu?$AA?$AA@ 00000001800631b8     libucrt:lcidtoname_downlevel.obj
 0002:000071c8       ??_C@_1M@KLMCELGA@?$AAu?$AAk?$AA?9?$AAu?$AAa?$AA?$AA@ 00000001800631c8     libucrt:lcidtoname_downlevel.obj
 0002:000071d8       ??_C@_1M@EPAJJAJF@?$AAu?$AAr?$AA?9?$AAp?$AAk?$AA?$AA@ 00000001800631d8     libucrt:lcidtoname_downlevel.obj
 0002:000071e8       ??_C@_1BG@GEGPMCDJ@?$AAu?$AAz?$AA?9?$AAu?$AAz?$AA?9?$AAc?$AAy?$AAr?$AAl?$AA?$AA@ 00000001800631e8     libucrt:lcidtoname_downlevel.obj
 0002:00007200       ??_C@_1BG@EGGKJILM@?$AAu?$AAz?$AA?9?$AAu?$AAz?$AA?9?$AAl?$AAa?$AAt?$AAn?$AA?$AA@ 0000000180063200     libucrt:lcidtoname_downlevel.obj
 0002:00007218       ??_C@_1M@GFOCLFF@?$AAv?$AAi?$AA?9?$AAv?$AAn?$AA?$AA@ 0000000180063218     libucrt:lcidtoname_downlevel.obj
 0002:00007228       ??_C@_1M@CPAMEDFI@?$AAx?$AAh?$AA?9?$AAz?$AAa?$AA?$AA@ 0000000180063228     libucrt:lcidtoname_downlevel.obj
 0002:00007238       ??_C@_1O@EBKIFIGN@?$AAz?$AAh?$AA?9?$AAc?$AAh?$AAs?$AA?$AA@ 0000000180063238     libucrt:lcidtoname_downlevel.obj
 0002:00007248       ??_C@_1O@NMHPGANE@?$AAz?$AAh?$AA?9?$AAc?$AAh?$AAt?$AA?$AA@ 0000000180063248     libucrt:lcidtoname_downlevel.obj
 0002:00007258       ??_C@_1M@LPINJOMC@?$AAz?$AAh?$AA?9?$AAc?$AAn?$AA?$AA@ 0000000180063258     libucrt:lcidtoname_downlevel.obj
 0002:00007268       ??_C@_1M@OCJEJODD@?$AAz?$AAh?$AA?9?$AAh?$AAk?$AA?$AA@ 0000000180063268     libucrt:lcidtoname_downlevel.obj
 0002:00007278       ??_C@_1M@DNDLJINH@?$AAz?$AAh?$AA?9?$AAm?$AAo?$AA?$AA@ 0000000180063278     libucrt:lcidtoname_downlevel.obj
 0002:00007288       ??_C@_1M@MBFDNDND@?$AAz?$AAh?$AA?9?$AAs?$AAg?$AA?$AA@ 0000000180063288     libucrt:lcidtoname_downlevel.obj
 0002:00007298       ??_C@_1M@IMEPLEPE@?$AAz?$AAh?$AA?9?$AAt?$AAw?$AA?$AA@ 0000000180063298     libucrt:lcidtoname_downlevel.obj
 0002:000072a8       ??_C@_1M@BBGHNHJP@?$AAz?$AAu?$AA?9?$AAz?$AAa?$AA?$AA@ 00000001800632a8     libucrt:lcidtoname_downlevel.obj
 0002:00007510       ??_C@_1BA@BALFACEM@?$AAC?$AAO?$AAN?$AAO?$AAU?$AAT?$AA$?$AA?$AA@ 0000000180063510     libucrt:initcon.obj
 0002:00007520       __log10_256_lead           0000000180063520     libucrt:log10_256_lead_tail_table.obj
 0002:00007d30       __log10_256_tail           0000000180063d30     libucrt:log10_256_lead_tail_table.obj
 0002:00008540       __log_F_inv_qword          0000000180064540     libucrt:log_f_inv_qword_table.obj
 0002:00008d50       ??_C@_05HGHHAHAP@log10?$AA@ 0000000180064d50     libucrt:log_special.obj
 0002:00008d70       ??_C@_1BK@DBDEIDLH@?$AAK?$AAE?$AAR?$AAN?$AAE?$AAL?$AA3?$AA2?$AA?4?$AAD?$AAL?$AAL@ 0000000180064d70     DelayImp:delayhlp.obj
 0002:00008d90       ??_C@_0BI@OMNLIJDB@AcquireSRWLockExclusive@ 0000000180064d90     DelayImp:delayhlp.obj
 0002:00008da8       ??_C@_0BI@HMIEPCNJ@ReleaseSRWLockExclusive@ 0000000180064da8     DelayImp:delayhlp.obj
 0002:00008dc0       __pfnDliFailureHook2       0000000180064dc0     DelayImp:delayhk1.obj
 0002:00008dd0       _load_config_used          0000000180064dd0     LIBCMT:loadcfg.obj
 0002:00008ed0       ??_C@_1DG@OKCGPKIB@?$AAp?$AAe?$AAr?$AAs?$AAi?$AAs?$AAt?$AAe?$AAn?$AAt?$AA?$CI?$AA?$CJ?$AA?4?$AAI?$AAs@ 0000000180064ed0     batch.obj
 0002:00008f08       ??_C@_1CO@EGNPJLKI@?$AAp?$AAe?$AAr?$AAs?$AAi?$AAs?$AAt?$AAe?$AAn?$AAt?$AA?$CI?$AA?$CJ?$AA?4?$AAI?$AAs@ 0000000180064f08     batch.obj
 0002:00008f38       ??_C@_1DA@FBGAEOIO@?$AA?$CB?$AAp?$AAe?$AAr?$AAs?$AAi?$AAs?$AAt?$AAe?$AAn?$AAt?$AA?$CI?$AA?$CJ?$AA?4?$AAI@ 0000000180064f38     batch.obj
 0002:00008f68       ??_C@_1CO@JCKLEFMA@?$AA?$CB?$AAp?$AAe?$AAr?$AAs?$AAi?$AAs?$AAt?$AAe?$AAn?$AAt?$AA?$CI?$AA?$CJ?$AA?4?$AAI@ 0000000180064f68     batch.obj
 0002:00008f98       ??_C@_1BE@GMLLOIPJ@?$AAr?$AAe?$AAf?$AAs?$AA_?$AA?5?$AA?$DO?$AA?5?$AA0@ 0000000180064f98     batch.obj
 0002:00008fb0       ??_C@_1CC@GBFLAAPF@?$AAw?$AAr?$AAa?$AAp?$AA?9?$AA?$DO?$AAr?$AAe?$AAf?$AAs?$AA_?$AA?5?$AA?$DN?$AA?$DN?$AA?5@ 0000000180064fb0     batch.obj
 0002:00008fe0       ??_C@_1BAA@JHGCEHHA@?$AAc?$AA?3?$AA?2?$AAp?$AAr?$AAo?$AAj?$AAe?$AAt?$AAo?$AAs?$AA?2?$AAp?$AAr?$AAo@ 0000000180064fe0     batch.obj
 0002:000090e0       ??_C@_1EC@MGGLMBLC@?$AAo?$AAb?$AAj?$AAe?$AAc?$AAt?$AA?9?$AA?$DO?$AAI?$AAn?$AAt?$AAe?$AAr?$AAn?$AAa@ 00000001800650e0     batch.obj
 0002:00009128       ??_C@_1DI@ELDBKNAK@?$AAw?$AAr?$AAa?$AAp?$AA?9?$AA?$DO?$AAh?$AAa?$AAn?$AAd?$AAl?$AAe?$AA_?$AA?4?$AAI@ 0000000180065128     batch.obj
 0002:00009160       ??_C@_05KLBHAINL@Batch@    0000000180065160     batch.obj
 0002:00009168       ??_C@_03KMONJGDG@put@      0000000180065168     batch.obj
 0002:0000916c       ??_C@_03ONKLGNNH@del@      000000018006516c     batch.obj
 0002:00009170       ??_C@_05MEHLAELG@clear@    0000000180065170     batch.obj
 0002:00009178       ??_C@_05NGFEDHGN@write@    0000000180065178     batch.obj
 0002:00009180       ??_C@_04JNABKDKF@sync@     0000000180065180     batch.obj
 0002:00009188       ??_C@_0CE@NLKGCCKK@Could?5not?5create?5new?5Batch?5inst@ 0000000180065188     batch.obj
 0002:000091ac       ??_C@_05KMLLANON@batch@    00000001800651ac     batch.obj
 0002:000091b8       ??_C@_0BG@GANLGIFO@leveldown?3batch?4write@ 00000001800651b8     batch.obj
 0002:000091d0       ??_C@_1CE@LNAGEONJ@?$AA?$CB?$AAo?$AAb?$AAj?$AAe?$AAc?$AAt?$AA?4?$AAI?$AAs?$AAE?$AAm?$AAp?$AAt?$AAy@ 00000001800651d0     batch.obj
 0002:000091f8       ??_7Batch@leveldown@@6B@   00000001800651f8     batch.obj
 0002:00009210       ??_7ObjectWrap@Nan@@6B@    0000000180065210     batch.obj
 0002:00009228       ??_7AsyncWorker@Nan@@6B@   0000000180065228     batch_async.obj
 0002:00009258       ??_7BatchWriteWorker@leveldown@@6B@ 0000000180065258     batch_async.obj
 0002:00009288       ??_7AsyncWorker@leveldown@@6B@ 0000000180065288     batch_async.obj
 0002:000092b8       ??_C@_0BA@JFNIOLAK@string?5too?5long@ 00000001800652b8     database.obj
 0002:000092d0       ??_C@_1OI@EEPFOJOM@?$AAc?$AA?3?$AA?2?$AAp?$AAr?$AAo?$AAj?$AAe?$AAt?$AAo?$AAs?$AA?2?$AAp?$AAr?$AAo@ 00000001800652d0     database.obj
 0002:000093b8       ??_C@_1BO@OPFMAOCA@?$AAl?$AAe?$AAn?$AA?5?$AA?$DM?$AA?$DN?$AA?5?$AAI?$AAN?$AAT?$AA_?$AAM?$AAA?$AAX@ 00000001800653b8     database.obj
 0002:000093d8       ??_C@_1BE@CKDJNAPC@?$AAs?$AAt?$AAr?$AA_?$AA?5?$AA?$CB?$AA?$DN?$AA?5?$AA0@ 00000001800653d8     database.obj
 0002:000093ec       ??_C@_03JBJLGPFL@end@      00000001800653ec     database.obj
 0002:000093f0       ??_C@_08HDBDMMBI@Database@ 00000001800653f0     database.obj
 0002:000093fc       ??_C@_04PMOCAHAA@open@     00000001800653fc     database.obj
 0002:00009404       ??_C@_05LBOHBHFK@close@    0000000180065404     database.obj
 0002:0000940c       ??_C@_03HNAFFKGA@get@      000000018006540c     database.obj
 0002:00009410       ??_C@_0BA@ICBLEBO@approximateSize@ 0000000180065410     database.obj
 0002:00009420       ??_C@_0N@BCNJFBMC@compactRange@ 0000000180065420     database.obj
 0002:00009430       ??_C@_0M@NBNLNHMA@getProperty@ 0000000180065430     database.obj
 0002:00009440       ??_C@_08EAMFHCBD@iterator@ 0000000180065440     database.obj
 0002:00009450       ??_C@_0CH@CPAEAMGP@Could?5not?5create?5new?5Database?5i@ 0000000180065450     database.obj
 0002:00009478       ??_C@_0CE@HHBAOMKC@open?$CI?$CJ?5requires?5a?5callback?5argu@ 0000000180065478     database.obj
 0002:000094a0       ??_C@_0BA@IMLMMIHB@createIfMissing@ 00000001800654a0     database.obj
 0002:000094b0       ??_C@_0O@CKMGLPGG@errorIfExists@ 00000001800654b0     database.obj
 0002:000094c0       ??_C@_0M@DGJEMLOB@compression@ 00000001800654c0     database.obj
 0002:000094d0       ??_C@_09KLMIPJNI@cacheSize@ 00000001800654d0     database.obj
 0002:000094e0       ??_C@_0BA@DHJKOGAG@writeBufferSize@ 00000001800654e0     database.obj
 0002:000094f0       ??_C@_09NKOHFFHE@blockSize@ 00000001800654f0     database.obj
 0002:00009500       ??_C@_0N@OEAPABBL@maxOpenFiles@ 0000000180065500     database.obj
 0002:00009510       ??_C@_0BF@KEFIBIAB@blockRestartInterval@ 0000000180065510     database.obj
 0002:00009528       ??_C@_0M@EIGBNOHB@maxFileSize@ 0000000180065528     database.obj
 0002:00009538       ??_C@_08PBOCEOLL@database@ 0000000180065538     database.obj
 0002:00009548       ??_C@_0CF@NPLBOPGM@close?$CI?$CJ?5requires?5a?5callback?5arg@ 0000000180065548     database.obj
 0002:00009570       ??_C@_0BH@GLBDANBE@leveldown?3iterator?4end@ 0000000180065570     database.obj
 0002:00009588       ??_C@_0CD@OPCHGGCC@put?$CI?$CJ?5requires?5a?5callback?5argum@ 0000000180065588     database.obj
 0002:000095b0       ??_C@_0CD@IGCCFGHB@get?$CI?$CJ?5requires?5a?5callback?5argum@ 00000001800655b0     database.obj
 0002:000095d8       ??_C@_08KDGACIGK@asBuffer@ 00000001800655d8     database.obj
 0002:000095e8       ??_C@_09KBFNDMIM@fillCache@ 00000001800655e8     database.obj
 0002:000095f8       ??_C@_0CD@LINPOKAD@del?$CI?$CJ?5requires?5a?5callback?5argum@ 00000001800655f8     database.obj
 0002:00009620       ??_C@_0BB@CAABEJCO@leveldown?3db?4del@ 0000000180065620     database.obj
 0002:00009638       ??_C@_0CF@CIMGFFEN@batch?$CI?$CJ?5requires?5a?5callback?5arg@ 0000000180065638     database.obj
 0002:00009660       ??_C@_03ICHNJLJF@key@      0000000180065660     database.obj
 0002:00009664       ??_C@_04GPMDFGEJ@type@     0000000180065664     database.obj
 0002:0000966c       ??_C@_05MFEJDJP@value@     000000018006566c     database.obj
 0002:00009678       ??_C@_0BD@FFMGHOGC@leveldown?3db?4batch@ 0000000180065678     database.obj
 0002:00009690       ??_C@_0CP@IOHKLPIB@approximateSize?$CI?$CJ?5requires?5a?5ca@ 0000000180065690     database.obj
 0002:000096c0       ??_C@_0CM@EIEJEHHL@compactRange?$CI?$CJ?5requires?5a?5callb@ 00000001800656c0     database.obj
 0002:000096f0       ??_C@_0CD@DMCOACFB@Fatal?5Error?5in?5Database?3?3Iterat@ 00000001800656f0     database.obj
 0002:00009718       ??_C@_0BE@JONHPENG@map?1set?$DMT?$DO?5too?5long@ 0000000180065718     database.obj
 0002:00009738       __pfnDliNotifyHook2        0000000180065738     win_delay_load_hook.obj
 0002:0000a960       ??_7Database@leveldown@@6B@ 0000000180066960     database.obj
 0002:0000a978       ??_C@_00CNPNBAHC@@         0000000180066978     database_async.obj
 0002:0000a980       ??_C@_1FM@LOELJOFK@?$AAs?$AAi?$AAz?$AAe?$AA?5?$AA?$DM?$AA?$DN?$AA?5?$AAi?$AAm?$AAp?$AA?3?$AA?3?$AAk?$AAM@ 0000000180066980     database_async.obj
 0002:0000a9e0       ??_C@_0BC@DIEOOHJM@leveldown?3db?4open@ 00000001800669e0     database_async.obj
 0002:0000a9f8       ??_C@_0BD@EIJKGENF@leveldown?3db?4close@ 00000001800669f8     database_async.obj
 0002:0000aa10       ??_C@_0BB@LAKPHOJJ@leveldown?3db?4get@ 0000000180066a10     database_async.obj
 0002:0000aa28       ??_C@_0BB@GBEHLCMP@leveldown?3db?4put@ 0000000180066a28     database_async.obj
 0002:0000aa40       ??_C@_0BN@BALCOCMJ@leveldown?3db?4approximateSize@ 0000000180066a40     database_async.obj
 0002:0000aa60       ??_C@_05FAGFPHJG@start@    0000000180066a60     database_async.obj
 0002:0000aa68       ??_C@_0BK@BLBNMJOF@leveldown?3db?4compactRange@ 0000000180066a68     database_async.obj
 0002:0000aa88       ??_C@_0N@GANCMIEI@compactStart@ 0000000180066a88     database_async.obj
 0002:0000aa98       ??_C@_0L@DMDPIKJI@compactEnd@ 0000000180066a98     database_async.obj
 0002:0000aaa8       ??_7BatchWorker@leveldown@@6B@ 0000000180066aa8     database_async.obj
 0002:0000aad8       ??_7CloseWorker@leveldown@@6B@ 0000000180066ad8     database_async.obj
 0002:0000ab08       ??_7DeleteWorker@leveldown@@6B@ 0000000180066b08     database_async.obj
 0002:0000ab38       ??_7WriteWorker@leveldown@@6B@ 0000000180066b38     database_async.obj
 0002:0000ab68       ??_7OpenWorker@leveldown@@6B@ 0000000180066b68     database_async.obj
 0002:0000ab98       ??_7ReadWorker@leveldown@@6B@ 0000000180066b98     database_async.obj
 0002:0000abc8       ??_7IOWorker@leveldown@@6B@ 0000000180066bc8     database_async.obj
 0002:0000abf8       ??_7CompactRangeWorker@leveldown@@6B@ 0000000180066bf8     database_async.obj
 0002:0000ac28       ??_7ApproximateSizeWorker@leveldown@@6B@ 0000000180066c28     database_async.obj
 0002:0000ac58       ??_C@_0CE@FOALBICH@next?$CI?$CJ?5requires?5a?5callback?5argu@ 0000000180066c58     iterator.obj
 0002:0000ac80       ??_C@_0BD@DKFIMDA@iterator?5has?5ended@ 0000000180066c80     iterator.obj
 0002:0000ac98       ??_C@_0BI@OEAPJHIG@leveldown?3iterator?4next@ 0000000180066c98     iterator.obj
 0002:0000acb0       ??_C@_0CD@IJEBAALJ@end?$CI?$CJ?5requires?5a?5callback?5argum@ 0000000180066cb0     iterator.obj
 0002:0000acd8       ??_C@_08MCDEPALA@Iterator@ 0000000180066cd8     iterator.obj
 0002:0000ace4       ??_C@_04EDECCOGL@seek@     0000000180066ce4     iterator.obj
 0002:0000acec       ??_C@_04CJGEDOF@next@      0000000180066cec     iterator.obj
 0002:0000acf8       ??_C@_0CH@HJJGKNGL@Could?5not?5create?5new?5Iterator?5i@ 0000000180066cf8     iterator.obj
 0002:0000ad20       ??_C@_07KOIEOCCE@reverse@  0000000180066d20     iterator.obj
 0002:0000ad28       ??_C@_05GADAOHMC@limit@    0000000180066d28     iterator.obj
 0002:0000ad30       ??_C@_0O@PLFAGPJD@highWaterMark@ 0000000180066d30     iterator.obj
 0002:0000ad40       ??_C@_02KCAKIFL@lt@        0000000180066d40     iterator.obj
 0002:0000ad44       ??_C@_03OEDJDHDG@lte@      0000000180066d44     iterator.obj
 0002:0000ad48       ??_C@_02GHFEHLK@gt@        0000000180066d48     iterator.obj
 0002:0000ad4c       ??_C@_03DDDILADH@gte@      0000000180066d4c     iterator.obj
 0002:0000ad50       ??_C@_04IEPFDAGF@keys@     0000000180066d50     iterator.obj
 0002:0000ad58       ??_C@_06GEKOPAHD@values@   0000000180066d58     iterator.obj
 0002:0000ad60       ??_C@_0M@MOFCCECG@keyAsBuffer@ 0000000180066d60     iterator.obj
 0002:0000ad70       ??_C@_0O@ECAICMIE@valueAsBuffer@ 0000000180066d70     iterator.obj
 0002:0000ad80       ??_C@_0BD@OLBABOEK@vector?$DMT?$DO?5too?5long@ 0000000180066d80     iterator.obj
 0002:0000ad98       ??_7Iterator@leveldown@@6B@ 0000000180066d98     iterator.obj
 0002:0000adb0       ??_7NextWorker@leveldown@@6B@ 0000000180066db0     iterator_async.obj
 0002:0000ade0       ??_7EndWorker@leveldown@@6B@ 0000000180066de0     iterator_async.obj
 0002:0000ae10       ??_C@_07OKFGPCEA@destroy@  0000000180066e10     leveldown.obj
 0002:0000ae18       ??_C@_06GBBKOEBI@repair@   0000000180066e18     leveldown.obj
 0002:0000ae20       ??_C@_09KIOKINMM@leveldown@ 0000000180066e20     leveldown.obj
 0002:0000ae30       ??_C@_0GO@JJCBLHFP@c?3?2projetos?2project_blockchain?2@ 0000000180066e30     leveldown.obj
 0002:0000aea0       ??_C@_0BC@PINEKNGD@leveldown?3destroy@ 0000000180066ea0     leveldown_async.obj
 0002:0000aeb8       ??_C@_0BB@FEKMJHEB@leveldown?3repair@ 0000000180066eb8     leveldown_async.obj
 0002:0000aed0       ??_7RepairWorker@leveldown@@6B@ 0000000180066ed0     leveldown_async.obj
 0002:0000af00       ??_7DestroyWorker@leveldown@@6B@ 0000000180066f00     leveldown_async.obj
 0002:0000af30       ??_C@_08HCOMDCCD@iojs?4exe@ 0000000180066f30     win_delay_load_hook.obj
 0002:0000af40       ??_C@_08JDDNMFDB@node?4exe@ 0000000180066f40     win_delay_load_hook.obj
 0002:0000af50       ??_C@_1BBO@ONFPDGP@?$AAc?$AA?3?$AA?2?$AAp?$AAr?$AAo?$AAj?$AAe?$AAt?$AAo?$AAs?$AA?2?$AAp?$AAr?$AAo@ 0000000180066f50     leveldb:write_batch.obj
 0002:0000b070       ??_C@_1BG@NADKCJKJ@?$AAn?$AA?5?$AA?$DM?$AA?5?$AAs?$AAi?$AAz?$AAe?$AA?$CI?$AA?$CJ@ 0000000180067070     leveldb:write_batch.obj
 0002:0000b088       ??_C@_1BI@LMLGEHCA@?$AAn?$AA?5?$AA?$DM?$AA?$DN?$AA?5?$AAs?$AAi?$AAz?$AAe?$AA?$CI?$AA?$CJ@ 0000000180067088     leveldb:write_batch.obj
 0002:0000b0a0       ??_C@_0CB@MFAPGBPB@malformed?5WriteBatch?5?$CItoo?5small@ 00000001800670a0     leveldb:write_batch.obj
 0002:0000b0c8       ??_C@_0BD@KFCDGH@bad?5WriteBatch?5Put@ 00000001800670c8     leveldb:write_batch.obj
 0002:0000b0e0       ??_C@_0BG@NCNAMDPJ@bad?5WriteBatch?5Delete@ 00000001800670e0     leveldb:write_batch.obj
 0002:0000b0f8       ??_C@_0BH@MHGNFOAB@unknown?5WriteBatch?5tag@ 00000001800670f8     leveldb:write_batch.obj
 0002:0000b110       ??_C@_0BL@GDAJGIHJ@WriteBatch?5has?5wrong?5count@ 0000000180067110     leveldb:write_batch.obj
 0002:0000b130       ??_C@_1BBC@BGNGDNOG@?$AAc?$AA?3?$AA?2?$AAp?$AAr?$AAo?$AAj?$AAe?$AAt?$AAo?$AAs?$AA?2?$AAp?$AAr?$AAo@ 0000000180067130     leveldb:write_batch.obj
 0002:0000b248       ??_C@_1DI@BGNOMHCM@?$AAs?$AAr?$AAc?$AA?9?$AA?$DO?$AAr?$AAe?$AAp?$AA_?$AA?4?$AAs?$AAi?$AAz?$AAe?$AA?$CI@ 0000000180067248     leveldb:write_batch.obj
 0002:0000b280       ??_7Handler@WriteBatch@leveldb@@6B@ 0000000180067280     leveldb:write_batch.obj
 0002:0000b280       ??_7SequentialFile@leveldb@@6B@ 0000000180067280     leveldb:env.obj
 0002:0000b2b0       ??_C@_1BAM@NNPLPPHL@?$AAc?$AA?3?$AA?2?$AAp?$AAr?$AAo?$AAj?$AAe?$AAt?$AAo?$AAs?$AA?2?$AAp?$AAr?$AAo@ 00000001800672b0     leveldb:status.obj
 0002:0000b3c0       ??_C@_1BI@DNJOCBDA@?$AAc?$AAo?$AAd?$AAe?$AA?5?$AA?$CB?$AA?$DN?$AA?5?$AAk?$AAO?$AAk@ 00000001800673c0     leveldb:status.obj
 0002:0000b3d8       ??_C@_02GIPFHKNO@OK@       00000001800673d8     leveldb:status.obj
 0002:0000b3e0       ??_C@_0L@HKDIDHFG@NotFound?3?5@ 00000001800673e0     leveldb:status.obj
 0002:0000b3f0       ??_C@_0N@KDKDJABO@Corruption?3?5@ 00000001800673f0     leveldb:status.obj
 0002:0000b400       ??_C@_0BC@IFMBLDI@Not?5implemented?3?5@ 0000000180067400     leveldb:status.obj
 0002:0000b418       ??_C@_0BD@JMODGJIE@Invalid?5argument?3?5@ 0000000180067418     leveldb:status.obj
 0002:0000b430       ??_C@_0L@BHAHLIIP@IO?5error?3?5@ 0000000180067430     leveldb:status.obj
 0002:0000b440       ??_C@_0BD@MHNAFLBE@Unknown?5code?$CI?$CFd?$CJ?3?5@ 0000000180067440     leveldb:status.obj
 0002:0000b458       ??_C@_0BM@ELMIHIHJ@leveldb?4BuiltinBloomFilter2@ 0000000180067458     leveldb:bloom.obj
 0002:0000b478       ??_7Source@snappy@@6B@     0000000180067478     snappy:snappy.obj
 0002:0000b478       ??_7FilterPolicy@leveldb@@6B@ 0000000180067478     leveldb:bloom.obj
 0002:0000b4b8       ??_7RandomAccessFile@leveldb@@6B@ 00000001800674b8     leveldb:env.obj
 0002:0000b4b8       ??_7Logger@leveldb@@6B@    00000001800674b8     leveldb:env.obj
 0002:0000b4b8       ??_7Reporter@Reader@log@leveldb@@6B@ 00000001800674b8     leveldb:db_impl.obj
 0002:0000b4d8       ??_7DBImpl@leveldb@@6B@    00000001800674d8     leveldb:db_impl.obj
 0002:0000b530       ??_7WritableFile@leveldb@@6B@ 0000000180067530     leveldb:env.obj
 0002:0000b530       ??_7Comparator@leveldb@@6B@ 0000000180067530     leveldb:db_impl.obj
 0002:0000b558       ??_7InternalKeyComparator@leveldb@@6B@ 0000000180067558     leveldb:db_impl.obj
 0002:0000b580       ??_7DB@leveldb@@6B@        0000000180067580     leveldb:db_impl.obj
 0002:0000b5d8       ??_7Snapshot@leveldb@@6B@  00000001800675d8     leveldb:db_impl.obj
 0002:0000b5d8       ??_7FileLock@leveldb@@6B@  00000001800675d8     leveldb:env.obj
 0002:0000b5e0       ??_7InternalFilterPolicy@leveldb@@6B@ 00000001800675e0     leveldb:db_impl.obj
 0002:0000b600       ??_7SnapshotImpl@leveldb@@6B@ 0000000180067600     leveldb:db_impl.obj
 0002:0000b610       ??_C@_1BAK@MGHLADEP@?$AAc?$AA?3?$AA?2?$AAp?$AAr?$AAo?$AAj?$AAe?$AAt?$AAo?$AAs?$AA?2?$AAp?$AAr?$AAo@ 0000000180067610     leveldb:db_impl.obj
 0002:0000b720       ??_C@_1DC@KFNEGKGI@?$AAi?$AAn?$AAt?$AAe?$AAr?$AAn?$AAa?$AAl?$AA_?$AAk?$AAe?$AAy?$AA?4?$AAs?$AAi@ 0000000180067720     leveldb:db_impl.obj
 0002:0000b760       ??_C@_1BAK@ELOFLPLA@?$AAc?$AA?3?$AA?2?$AAp?$AAr?$AAo?$AAj?$AAe?$AAt?$AAo?$AAs?$AA?2?$AAp?$AAr?$AAo@ 0000000180067760     leveldb:db_impl.obj
 0002:0000b870       ??_C@_1CC@BBPCDAAO@?$AAs?$AA?9?$AA?$DO?$AAl?$AAi?$AAs?$AAt?$AA_?$AA?5?$AA?$DN?$AA?$DN?$AA?5?$AAt?$AAh?$AAi@ 0000000180067870     leveldb:db_impl.obj
 0002:0000b8a0       ??_C@_1BAK@OFNHLNJC@?$AAc?$AA?3?$AA?2?$AAp?$AAr?$AAo?$AAj?$AAe?$AAt?$AAo?$AAs?$AA?2?$AAp?$AAr?$AAo@ 00000001800678a0     leveldb:db_impl.obj
 0002:0000b9b0       ??_C@_1BG@HPOMICMF@?$AAr?$AAe?$AAf?$AAs?$AA_?$AA?5?$AA?$DO?$AA?$DN?$AA?5?$AA0@ 00000001800679b0     leveldb:db_impl.obj
 0002:0000b9d0       ??_C@_1BBA@GNOPMKKK@?$AAc?$AA?3?$AA?2?$AAp?$AAr?$AAo?$AAj?$AAe?$AAt?$AAo?$AAs?$AA?2?$AAp?$AAr?$AAo@ 00000001800679d0     leveldb:db_impl.obj
 0002:0000bae0       ??_C@_1CI@ONGMKBKI@?$AAs?$AA?5?$AA?$DO?$AA?$DN?$AA?5?$AAl?$AAa?$AAs?$AAt?$AA_?$AAs?$AAe?$AAq?$AAu?$AAe@ 0000000180067ae0     leveldb:db_impl.obj
 0002:0000bb08       ??_C@_0BC@JALOIKCP@Ignoring?5error?5?$CFs@ 0000000180067b08     leveldb:db_impl.obj
 0002:0000bb20       ??_C@_0BG@JFOLEODH@Delete?5type?$DN?$CFd?5?$CD?$CFlld?6@ 0000000180067b20     leveldb:db_impl.obj
 0002:0000bb38       ??_C@_01KMDKNFGN@?1@       0000000180067b38     leveldb:db_impl.obj
 0002:0000bb40       ??_C@_1BAK@OJECAIOL@?$AAc?$AA?3?$AA?2?$AAp?$AAr?$AAo?$AAj?$AAe?$AAt?$AAo?$AAs?$AA?2?$AAp?$AAr?$AAo@ 0000000180067b40     leveldb:db_impl.obj
 0002:0000bc50       ??_C@_1CC@ILLOLGKN@?$AAd?$AAb?$AA_?$AAl?$AAo?$AAc?$AAk?$AA_?$AA?5?$AA?$DN?$AA?$DN?$AA?5?$AAN?$AAU?$AAL@ 0000000180067c50     leveldb:db_impl.obj
 0002:0000bc78       ??_C@_0CM@NJBPDBKJ@does?5not?5exist?5?$CIcreate_if_missi@ 0000000180067c78     leveldb:db_impl.obj
 0002:0000bca8       ??_C@_0CB@JKAIOEMM@exists?5?$CIerror_if_exists?5is?5true@ 0000000180067ca8     leveldb:db_impl.obj
 0002:0000bcd0       ??_C@_0BH@FNAANBPD@?$CFd?5missing?5files?$DL?5e?4g?4@ 0000000180067cd0     leveldb:db_impl.obj
 0002:0000bce8       ??_C@_0BC@HAHNELHF@?$CIignoring?5error?$CJ?5@ 0000000180067ce8     leveldb:db_impl.obj
 0002:0000bd00       ??_C@_0BM@IEECBMAN@?$CFs?$CFs?3?5dropping?5?$CFd?5bytes?$DL?5?$CFs@ 0000000180067d00     leveldb:db_impl.obj
 0002:0000bd20       ??_C@_0BF@KNKOMAKO@Recovering?5log?5?$CD?$CFllu@ 0000000180067d20     leveldb:db_impl.obj
 0002:0000bd38       ??_C@_0BF@JFEJNHOC@log?5record?5too?5small@ 0000000180067d38     leveldb:db_impl.obj
 0002:0000bd50       ??_C@_1CC@KHGGPAKF@?$AAl?$AAo?$AAg?$AAf?$AAi?$AAl?$AAe?$AA_?$AA?5?$AA?$DN?$AA?$DN?$AA?5?$AAN?$AAU?$AAL@ 0000000180067d50     leveldb:db_impl.obj
 0002:0000bd78       ??_C@_1BK@EEPDGBND@?$AAl?$AAo?$AAg?$AA_?$AA?5?$AA?$DN?$AA?$DN?$AA?5?$AAN?$AAU?$AAL?$AAL@ 0000000180067d78     leveldb:db_impl.obj
 0002:0000bd98       ??_C@_1BK@DPMLNIHF@?$AAm?$AAe?$AAm?$AA_?$AA?5?$AA?$DN?$AA?$DN?$AA?5?$AAN?$AAU?$AAL?$AAL@ 0000000180067d98     leveldb:db_impl.obj
 0002:0000bdb8       ??_C@_0BF@HIHGMFHA@Reusing?5old?5log?5?$CFs?5?6@ 0000000180067db8     leveldb:db_impl.obj
 0002:0000bdd0       ??_C@_0BN@COCEKI@Level?90?5table?5?$CD?$CFllu?3?5started@ 0000000180067dd0     leveldb:db_impl.obj
 0002:0000bdf0       ??_C@_0CD@DPCIKGHP@Level?90?5table?5?$CD?$CFllu?3?5?$CFlld?5bytes@ 0000000180067df0     leveldb:db_impl.obj
 0002:0000be18       ??_C@_1BK@IGFHJPED@?$AAi?$AAm?$AAm?$AA_?$AA?5?$AA?$CB?$AA?$DN?$AA?5?$AAN?$AAU?$AAL?$AAL@ 0000000180067e18     leveldb:db_impl.obj
 0002:0000be38       ??_C@_0CH@IOLOKLFC@Deleting?5DB?5during?5memtable?5com@ 0000000180067e38     leveldb:db_impl.obj
 0002:0000be60       ??_C@_1BG@FBALNOAJ@?$AAl?$AAe?$AAv?$AAe?$AAl?$AA?5?$AA?$DO?$AA?$DN?$AA?5?$AA0@ 0000000180067e60     leveldb:db_impl.obj
 0002:0000be78       ??_C@_1DO@HOBCOBHH@?$AAl?$AAe?$AAv?$AAe?$AAl?$AA?5?$AA?$CL?$AA?5?$AA1?$AA?5?$AA?$DM?$AA?5?$AAc?$AAo?$AAn@ 0000000180067e78     leveldb:db_impl.obj
 0002:0000beb8       ??_C@_1DC@OJMHCMCP@?$AAb?$AAg?$AA_?$AAc?$AAo?$AAm?$AAp?$AAa?$AAc?$AAt?$AAi?$AAo?$AAn?$AA_?$AAs@ 0000000180067eb8     leveldb:db_impl.obj
 0002:0000beec       ??_C@_05CEHBFNBN@?$CIend?$CJ@ 0000000180067eec     leveldb:db_impl.obj
 0002:0000bef8       ??_C@_07JPGNPAEF@?$CIbegin?$CJ@ 0000000180067ef8     leveldb:db_impl.obj
 0002:0000bf00       ??_C@_0DO@LGGFBPLI@Manual?5compaction?5at?5level?9?$CFd?5f@ 0000000180067f00     leveldb:db_impl.obj
 0002:0000bf40       ??_C@_1DG@BKJODJLI@?$AAc?$AA?9?$AA?$DO?$AAn?$AAu?$AAm?$AA_?$AAi?$AAn?$AAp?$AAu?$AAt?$AA_?$AAf?$AAi@ 0000000180067f40     leveldb:db_impl.obj
 0002:0000bf78       ??_C@_0CL@LBPMNBCM@Moved?5?$CD?$CFlld?5to?5level?9?$CFd?5?$CFlld?5by@ 0000000180067f78     leveldb:db_impl.obj
 0002:0000bfa8       ??_C@_0BF@JOIADNEO@Compaction?5error?3?5?$CFs@ 0000000180067fa8     leveldb:db_impl.obj
 0002:0000bfc0       ??_C@_1DC@KCAEGKPC@?$AAc?$AAo?$AAm?$AAp?$AAa?$AAc?$AAt?$AA?9?$AA?$DO?$AAo?$AAu?$AAt?$AAf?$AAi?$AAl@ 0000000180067fc0     leveldb:db_impl.obj
 0002:0000bff8       ??_C@_1CA@NDGIODEB@?$AAc?$AAo?$AAm?$AAp?$AAa?$AAc?$AAt?$AA?5?$AA?$CB?$AA?$DN?$AA?5?$AAN?$AAU?$AAL?$AAL@ 0000000180067ff8     leveldb:db_impl.obj
 0002:0000c018       ??_C@_1DC@FHGJPBE@?$AAc?$AAo?$AAm?$AAp?$AAa?$AAc?$AAt?$AA?9?$AA?$DO?$AAb?$AAu?$AAi?$AAl?$AAd?$AAe@ 0000000180068018     leveldb:db_impl.obj
 0002:0000c050       ??_C@_1DC@ODABIHKE@?$AAc?$AAo?$AAm?$AAp?$AAa?$AAc?$AAt?$AA?9?$AA?$DO?$AAo?$AAu?$AAt?$AAf?$AAi?$AAl@ 0000000180068050     leveldb:db_impl.obj
 0002:0000c088       ??_C@_1DC@EEHDHCEC@?$AAc?$AAo?$AAm?$AAp?$AAa?$AAc?$AAt?$AA?9?$AA?$DO?$AAb?$AAu?$AAi?$AAl?$AAd?$AAe@ 0000000180068088     leveldb:db_impl.obj
 0002:0000c0c0       ??_C@_1CG@KJIIHBA@?$AAo?$AAu?$AAt?$AAp?$AAu?$AAt?$AA_?$AAn?$AAu?$AAm?$AAb?$AAe?$AAr?$AA?5?$AA?$CB@ 00000001800680c0     leveldb:db_impl.obj
 0002:0000c0e8       ??_C@_0DA@MEIODOEN@Generated?5table?5?$CD?$CFllu?$EA?$CFd?3?5?$CFlld?5@ 00000001800680e8     leveldb:db_impl.obj
 0002:0000c118       ??_C@_0CM@JOHCMPNB@Compacted?5?$CFd?$EA?$CFd?5?$CL?5?$CFd?$EA?$CFd?5files?5?$DN@ 0000000180068118     leveldb:db_impl.obj
 0002:0000c148       ??_C@_0BP@GPNCHHBE@Compacting?5?$CFd?$EA?$CFd?5?$CL?5?$CFd?$EA?$CFd?5files@ 0000000180068148     leveldb:db_impl.obj
 0002:0000c170       ??_C@_1HG@ECCOJIDM@?$AAv?$AAe?$AAr?$AAs?$AAi?$AAo?$AAn?$AAs?$AA_?$AA?9?$AA?$DO?$AAN?$AAu?$AAm?$AAL@ 0000000180068170     leveldb:db_impl.obj
 0002:0000c1e8       ??_C@_0BO@HDOHHFLN@Deleting?5DB?5during?5compaction@ 00000001800681e8     leveldb:db_impl.obj
 0002:0000c208       ??_C@_0BB@GIEMGFNH@compacted?5to?3?5?$CFs@ 0000000180068208     leveldb:db_impl.obj
 0002:0000c220       ??_C@_1CE@COAOCGAO@?$AA?$CB?$AAw?$AAr?$AAi?$AAt?$AAe?$AAr?$AAs?$AA_?$AA?4?$AAe?$AAm?$AAp?$AAt?$AAy@ 0000000180068220     leveldb:db_impl.obj
 0002:0000c248       ??_C@_1BO@PMNIFHIJ@?$AAr?$AAe?$AAs?$AAu?$AAl?$AAt?$AA?5?$AA?$CB?$AA?$DN?$AA?5?$AAN?$AAU?$AAL?$AAL@ 0000000180068248     leveldb:db_impl.obj
 0002:0000c270       ??_C@_1EO@NFIJBALM@?$AAW?$AAr?$AAi?$AAt?$AAe?$AAB?$AAa?$AAt?$AAc?$AAh?$AAI?$AAn?$AAt?$AAe?$AAr@ 0000000180068270     leveldb:db_impl.obj
 0002:0000c2c0       ??_C@_0CD@OHHDGDOO@Current?5memtable?5full?$DL?5waiting?4@ 00000001800682c0     leveldb:db_impl.obj
 0002:0000c2e8       ??_C@_0BP@GEAHKBIC@Too?5many?5L0?5files?$DL?5waiting?4?4?4?6@ 00000001800682e8     leveldb:db_impl.obj
 0002:0000c310       ??_C@_1EA@HKFFNOJN@?$AAv?$AAe?$AAr?$AAs?$AAi?$AAo?$AAn?$AAs?$AA_?$AA?9?$AA?$DO?$AAP?$AAr?$AAe?$AAv@ 0000000180068310     leveldb:db_impl.obj
 0002:0000c350       ??_C@_08EEPJKALM@leveldb?4@ 0000000180068350     leveldb:db_impl.obj
 0002:0000c360       ??_C@_0BD@BJKCBABH@num?9files?9at?9level@ 0000000180068360     leveldb:db_impl.obj
 0002:0000c374       ??_C@_02DPKJAMEF@?$CFd@    0000000180068374     leveldb:db_impl.obj
 0002:0000c378       ??_C@_05BLKJBNOD@stats@    0000000180068378     leveldb:db_impl.obj
 0002:0000c380       ??_C@_0JC@FBIEFEEE@?5?5?5?5?5?5?5?5?5?5?5?5?5?5?5?5?5?5?5?5?5?5?5?5?5?5?5?5?5?5?5@ 0000000180068380     leveldb:db_impl.obj
 0002:0000c418       ??_C@_0CB@CPHKKDC@?$CF3d?5?$CF8d?5?$CF8?40f?5?$CF9?40f?5?$CF8?40f?5?$CF9?40f@ 0000000180068418     leveldb:db_impl.obj
 0002:0000c440       ??_C@_08PBIEOFJN@sstables@ 0000000180068440     leveldb:db_impl.obj
 0002:0000c450       ??_C@_0BJ@EGPMFMGF@approximate?9memory?9usage@ 0000000180068450     leveldb:db_impl.obj
 0002:0000c46c       ??_C@_04FCIJFPNK@?$CFllu@  000000018006846c     leveldb:db_impl.obj
 0002:0000c478       ??_C@_1CG@JLBPNDIH@?$AAi?$AAm?$AAp?$AAl?$AA?9?$AA?$DO?$AAm?$AAe?$AAm?$AA_?$AA?5?$AA?$CB?$AA?$DN?$AA?5?$AAN@ 0000000180068478     leveldb:db_impl.obj
 0002:0000c4a0       ??_C@_0BC@KBDMBKEH@deque?$DMT?$DO?5too?5long@ 00000001800684a0     leveldb:db_impl.obj
 0002:0000c4c0       ??_C@_1BAK@HEKOKJLM@?$AAc?$AA?3?$AA?2?$AAp?$AAr?$AAo?$AAj?$AAe?$AAt?$AAo?$AAs?$AA?2?$AAp?$AAr?$AAo@ 00000001800684c0     leveldb:cache.obj
 0002:0000c5d0       ??_C@_1CA@DEHIGIIA@?$AAe?$AAl?$AAe?$AAm?$AAs?$AA_?$AA?5?$AA?$DN?$AA?$DN?$AA?5?$AAc?$AAo?$AAu?$AAn?$AAt@ 00000001800685d0     leveldb:cache.obj
 0002:0000c5f0       ??_C@_1DC@LMGNJKFM@?$AAi?$AAn?$AA_?$AAu?$AAs?$AAe?$AA_?$AA?4?$AAn?$AAe?$AAx?$AAt?$AA?5?$AA?$DN?$AA?$DN@ 00000001800685f0     leveldb:cache.obj
 0002:0000c628       ??_C@_1BI@FFMGBBDA@?$AAe?$AA?9?$AA?$DO?$AAi?$AAn?$AA_?$AAc?$AAa?$AAc?$AAh?$AAe@ 0000000180068628     leveldb:cache.obj
 0002:0000c640       ??_C@_1BK@NGJLMDHI@?$AAe?$AA?9?$AA?$DO?$AAr?$AAe?$AAf?$AAs?$AA?5?$AA?$DN?$AA?$DN?$AA?5?$AA1@ 0000000180068640     leveldb:cache.obj
 0002:0000c660       ??_C@_1BI@HFHCLOOL@?$AAe?$AA?9?$AA?$DO?$AAr?$AAe?$AAf?$AAs?$AA?5?$AA?$DO?$AA?5?$AA0@ 0000000180068660     leveldb:cache.obj
 0002:0000c678       ??_C@_1BK@DBCDHDAE@?$AA?$CB?$AAe?$AA?9?$AA?$DO?$AAi?$AAn?$AA_?$AAc?$AAa?$AAc?$AAh?$AAe@ 0000000180068678     leveldb:cache.obj
 0002:0000c698       ??_C@_1BO@LKJLCEGA@?$AAo?$AAl?$AAd?$AA?9?$AA?$DO?$AAr?$AAe?$AAf?$AAs?$AA?5?$AA?$DN?$AA?$DN?$AA?5?$AA1@ 0000000180068698     leveldb:cache.obj
 0002:0000c6b8       ??_C@_1O@BOMMHPJH@?$AAe?$AAr?$AAa?$AAs?$AAe?$AAd@ 00000001800686b8     leveldb:cache.obj
 0002:0000c710       ??_7Cache@leveldb@@6B@     0000000180068710     leveldb:cache.obj
 0002:0000c760       ??_C@_0FN@FKGADHBF@?$CK?$CK?$CK?$CK?5Repaired?5leveldb?5?$CFs?$DL?5recov@ 0000000180068760     leveldb:repair.obj
 0002:0000c7c0       ??_C@_0BG@OHLKFIFI@repair?5found?5no?5files@ 00000001800687c0     leveldb:repair.obj
 0002:0000c7d8       ??_C@_0CJ@EOKELPDO@Log?5?$CD?$CFllu?3?5ignoring?5conversion?5@ 00000001800687d8     leveldb:repair.obj
 0002:0000c808       ??_C@_0CB@ONPMNLMB@Log?5?$CD?$CFllu?3?5dropping?5?$CFd?5bytes?$DL?5?$CF@ 0000000180068808     leveldb:repair.obj
 0002:0000c830       ??_C@_0BH@EOEMDKLP@Log?5?$CD?$CFllu?3?5ignoring?5?$CFs@ 0000000180068830     leveldb:repair.obj
 0002:0000c848       ??_C@_0CK@CMDCKOFJ@Log?5?$CD?$CFllu?3?5?$CFd?5ops?5saved?5to?5Tabl@ 0000000180068848     leveldb:repair.obj
 0002:0000c878       ??_C@_0BJ@JPIJNMOF@Table?5?$CD?$CFllu?3?5dropped?3?5?$CFs@ 0000000180068878     leveldb:repair.obj
 0002:0000c898       ??_C@_0BP@CLHNPLFM@Table?5?$CD?$CFllu?3?5unparsable?5key?5?$CFs@ 0000000180068898     leveldb:repair.obj
 0002:0000c8b8       ??_C@_0BL@NILBKKHO@Table?5?$CD?$CFllu?3?5?$CFd?5entries?5?$CFs@ 00000001800688b8     leveldb:repair.obj
 0002:0000c8d8       ??_C@_0CB@LEFFGEHF@Table?5?$CD?$CFllu?3?5?$CFd?5entries?5repaire@ 00000001800688d8     leveldb:repair.obj
 0002:0000c8fc       ??_C@_05JKKEPOFN@?1lost@   00000001800688fc     leveldb:repair.obj
 0002:0000c908       ??_C@_0BC@ONAGHBGP@Archiving?5?$CFs?3?5?$CFs?6@ 0000000180068908     leveldb:repair.obj
 0002:0000c930       ??_C@_1BAI@MDGOLFDP@?$AAc?$AA?3?$AA?2?$AAp?$AAr?$AAo?$AAj?$AAe?$AAt?$AAo?$AAs?$AA?2?$AAp?$AAr?$AAo@ 0000000180068930     leveldb:memtable.obj
 0002:0000ca38       ??_C@_1BE@FMOLJMJA@?$AAb?$AAy?$AAt?$AAe?$AAs?$AA?5?$AA?$DO?$AA?5?$AA0@ 0000000180068a38     leveldb:memtable.obj
 0002:0000ca50       ??_C@_1BAM@LFPDGKFA@?$AAc?$AA?3?$AA?2?$AAp?$AAr?$AAo?$AAj?$AAe?$AAt?$AAo?$AAs?$AA?2?$AAp?$AAr?$AAo@ 0000000180068a50     leveldb:memtable.obj
 0002:0000cb60       ??_C@_1BG@JENLDJMG@?$AAr?$AAe?$AAf?$AAs?$AA_?$AA?5?$AA?$DN?$AA?$DN?$AA?5?$AA0@ 0000000180068b60     leveldb:memtable.obj
 0002:0000cb80       ??_C@_1EI@EDGMFDOF@?$AA?$CI?$AAp?$AA?5?$AA?$CL?$AA?5?$AAv?$AAa?$AAl?$AA_?$AAs?$AAi?$AAz?$AAe?$AA?$CJ?$AA?5@ 0000000180068b80     leveldb:memtable.obj
 0002:0000cbd0       ??_C@_1BAK@OBCPGEDA@?$AAc?$AA?3?$AA?2?$AAp?$AAr?$AAo?$AAj?$AAe?$AAt?$AAo?$AAs?$AA?2?$AAp?$AAr?$AAo@ 0000000180068bd0     leveldb:memtable.obj
 0002:0000cce0       ??_C@_1EC@PIHPBHJD@?$AAx?$AA?5?$AA?$DN?$AA?$DN?$AA?5?$AAN?$AAU?$AAL?$AAL?$AA?5?$AA?$HM?$AA?$HM?$AA?5?$AA?$CB?$AAE@ 0000000180068ce0     leveldb:memtable.obj
 0002:0000cd28       ??_C@_1BA@PLJALMOI@?$AAV?$AAa?$AAl?$AAi?$AAd?$AA?$CI?$AA?$CJ@ 0000000180068d28     leveldb:memtable.obj
 0002:0000cd38       ??_C@_1O@OOEGIONJ@?$AAn?$AA?5?$AA?$DO?$AA?$DN?$AA?5?$AA0@ 0000000180068d38     leveldb:memtable.obj
 0002:0000cd48       ??_C@_1BG@MDOPMIMK@?$AAh?$AAe?$AAi?$AAg?$AAh?$AAt?$AA?5?$AA?$DO?$AA?5?$AA0@ 0000000180068d48     leveldb:memtable.obj
 0002:0000cd60       ??_C@_1CK@ECEBNFHB@?$AAh?$AAe?$AAi?$AAg?$AAh?$AAt?$AA?5?$AA?$DM?$AA?$DN?$AA?5?$AAk?$AAM?$AAa?$AAx?$AAH@ 0000000180068d60     leveldb:memtable.obj
 0002:0000cd90       ??_C@_1FA@EOIGNBHK@?$AAx?$AA?5?$AA?$DN?$AA?$DN?$AA?5?$AAh?$AAe?$AAa?$AAd?$AA_?$AA?5?$AA?$HM?$AA?$HM?$AA?5?$AAc@ 0000000180068d90     leveldb:memtable.obj
 0002:0000cde0       ??_7MemTableIterator@leveldb@@6B@ 0000000180068de0     leveldb:memtable.obj
 0002:0000ce30       ??_C@_1BAM@KNLMGMCF@?$AAc?$AA?3?$AA?2?$AAp?$AAr?$AAo?$AAj?$AAe?$AAt?$AAo?$AAs?$AA?2?$AAp?$AAr?$AAo@ 0000000180068e30     leveldb:dbformat.obj
 0002:0000cf40       ??_C@_1DE@LFLGLKMI@?$AAs?$AAe?$AAq?$AA?5?$AA?$DM?$AA?$DN?$AA?5?$AAk?$AAM?$AAa?$AAx?$AAS?$AAe?$AAq?$AAu@ 0000000180068f40     leveldb:dbformat.obj
 0002:0000cf78       ??_C@_0O@NKEDPHCJ@?8?5?$EA?5?$CFllu?5?3?5?$CFd@ 0000000180068f78     leveldb:dbformat.obj
 0002:0000cf88       ??_C@_01GEODFPGF@?8@       0000000180068f88     leveldb:dbformat.obj
 0002:0000cf8c       ??_C@_05MODCJBFL@?$CIbad?$CJ@ 0000000180068f8c     leveldb:dbformat.obj
 0002:0000cf98       ??_C@_0BO@PEHHCKBL@leveldb?4InternalKeyComparator@ 0000000180068f98     leveldb:dbformat.obj
 0002:0000cfb8       ??_C@_1DO@GBOLJMAG@?$AAt?$AAh?$AAi?$AAs?$AA?9?$AA?$DO?$AAC?$AAo?$AAm?$AAp?$AAa?$AAr?$AAe?$AA?$CI?$AA?$CK@ 0000000180068fb8     leveldb:dbformat.obj
 0002:0000cff8       ??_C@_1DM@DCNNJMDC@?$AAt?$AAh?$AAi?$AAs?$AA?9?$AA?$DO?$AAC?$AAo?$AAm?$AAp?$AAa?$AAr?$AAe?$AA?$CI?$AAt@ 0000000180068ff8     leveldb:dbformat.obj
 0002:0000d038       ??_C@_1DK@GCDCDFNA@?$AAt?$AAh?$AAi?$AAs?$AA?9?$AA?$DO?$AAC?$AAo?$AAm?$AAp?$AAa?$AAr?$AAe?$AA?$CI?$AA?$CK@ 0000000180069038     leveldb:dbformat.obj
 0002:0000d080       ??_C@_1BAK@JOHLAOJB@?$AAc?$AA?3?$AA?2?$AAp?$AAr?$AAo?$AAj?$AAe?$AAt?$AAo?$AAs?$AA?2?$AAp?$AAr?$AAo@ 0000000180069080     leveldb:builder.obj
 0002:0000d190       ??_C@_1CI@OJIKACPE@?$AAm?$AAe?$AAt?$AAa?$AA?9?$AA?$DO?$AAf?$AAi?$AAl?$AAe?$AA_?$AAs?$AAi?$AAz?$AAe@ 0000000180069190     leveldb:builder.obj
 0002:0000d1b8       ??_C@_0L@DNJAJHIC@?1?$CF06llu?4?$CFs@ 00000001800691b8     leveldb:filename.obj
 0002:0000d1d0       ??_C@_1BAM@BHLKJFPH@?$AAc?$AA?3?$AA?2?$AAp?$AAr?$AAo?$AAj?$AAe?$AAt?$AAo?$AAs?$AA?2?$AAp?$AAr?$AAo@ 00000001800691d0     leveldb:filename.obj
 0002:0000d2e0       ??_C@_1BG@HIOOOGME@?$AAn?$AAu?$AAm?$AAb?$AAe?$AAr?$AA?5?$AA?$DO?$AA?5?$AA0@ 00000001800692e0     leveldb:filename.obj
 0002:0000d2f8       ??_C@_03MGHMBJCF@log@      00000001800692f8     leveldb:filename.obj
 0002:0000d2fc       ??_C@_03LHFOACIB@ldb@      00000001800692fc     leveldb:filename.obj
 0002:0000d300       ??_C@_03LKNFEFGK@sst@      0000000180069300     leveldb:filename.obj
 0002:0000d308       ??_C@_0BB@IIHLHEJO@?1MANIFEST?9?$CF06llu@ 0000000180069308     leveldb:filename.obj
 0002:0000d320       ??_C@_08JJMNAAPP@?1CURRENT@ 0000000180069320     leveldb:filename.obj
 0002:0000d32c       ??_C@_05IHOCLBML@?1LOCK@   000000018006932c     leveldb:filename.obj
 0002:0000d334       ??_C@_05LFMHCBHD@dbtmp@    0000000180069334     leveldb:filename.obj
 0002:0000d33c       ??_C@_04GPHAEEIN@?1LOG@    000000018006933c     leveldb:filename.obj
 0002:0000d348       ??_C@_08MHHKKEBC@?1LOG?4old@ 0000000180069348     leveldb:filename.obj
 0002:0000d358       ??_C@_07EHKOIGEK@CURRENT@  0000000180069358     leveldb:filename.obj
 0002:0000d360       ??_C@_04GPIFAJG@LOCK@      0000000180069360     leveldb:filename.obj
 0002:0000d368       ??_C@_03MLIHNEFJ@LOG@      0000000180069368     leveldb:filename.obj
 0002:0000d370       ??_C@_07BJBJCCKH@LOG?4old@ 0000000180069370     leveldb:filename.obj
 0002:0000d378       ??_C@_09IIGJKOCP@MANIFEST?9@ 0000000180069378     leveldb:filename.obj
 0002:0000d384       ??_C@_04FPOLKAEB@?4log@    0000000180069384     leveldb:filename.obj
 0002:0000d38c       ??_C@_04CDECPMAO@?4sst@    000000018006938c     leveldb:filename.obj
 0002:0000d394       ??_C@_04COMJLLOF@?4ldb@    0000000180069394     leveldb:filename.obj
 0002:0000d39c       ??_C@_06GOLBNGP@?4dbtmp@   000000018006939c     leveldb:filename.obj
 0002:0000d3b0       ??_C@_1EG@OBCHJDD@?$AAc?$AAo?$AAn?$AAt?$AAe?$AAn?$AAt?$AAs?$AA?4?$AAs?$AAt?$AAa?$AAr?$AAt?$AAs@ 00000001800693b0     leveldb:filename.obj
 0002:0000d3f8       ??_C@_01EEMJAFIK@?6@       00000001800693f8     leveldb:filename.obj
 0002:0000d400       ??_C@_0BC@NCHHPNFC@NewAppendableFile@ 0000000180069400     leveldb:env.obj
 0002:0000d418       ??_7Env@leveldb@@6B@       0000000180069418     leveldb:env.obj
 0002:0000d4c0       ??_C@_1BCA@CPMMOECE@?$AAc?$AA?3?$AA?2?$AAp?$AAr?$AAo?$AAj?$AAe?$AAt?$AAo?$AAs?$AA?2?$AAp?$AAr?$AAo@ 00000001800694c0     leveldb:merger.obj
 0002:0000d5e0       ??_C@_1M@IDPMFHAK@?$AAi?$AAt?$AAe?$AAr?$AA_@ 00000001800695e0     leveldb:merger.obj
 0002:0000d5f0       ??_C@_1BAO@DIGENIKA@?$AAc?$AA?3?$AA?2?$AAp?$AAr?$AAo?$AAj?$AAe?$AAt?$AAo?$AAs?$AA?2?$AAp?$AAr?$AAo@ 00000001800695f0     leveldb:merger.obj
 0002:0000d750       ??_C@_1BM@KMFKCCNG@?$AA?$CB?$AAr?$AAe?$AAp?$AA_?$AA?4?$AAe?$AAm?$AAp?$AAt?$AAy?$AA?$CI?$AA?$CJ@ 0000000180069750     leveldb:version_set.obj
 0002:0000d770       ??_C@_1BBC@GMANLKAM@?$AAc?$AA?3?$AA?2?$AAp?$AAr?$AAo?$AAj?$AAe?$AAt?$AAo?$AAs?$AA?2?$AAp?$AAr?$AAo@ 0000000180069770     leveldb:version_set.obj
 0002:0000d888       ??_C@_1BI@CNGMBHMD@?$AAf?$AA?9?$AA?$DO?$AAr?$AAe?$AAf?$AAs?$AA?5?$AA?$DO?$AA?5?$AA0@ 0000000180069888     leveldb:version_set.obj
 0002:0000d8a0       ??_C@_0CJ@IEJCNHMD@FileReader?5invoked?5with?5unexpec@ 00000001800698a0     leveldb:version_set.obj
 0002:0000d8d0       ??_C@_0BD@CBCIGOLN@corrupted?5key?5for?5@ 00000001800698d0     leveldb:version_set.obj
 0002:0000d8f0       ??_C@_1EA@FLNPCEIK@?$AAt?$AAh?$AAi?$AAs?$AA?5?$AA?$CB?$AA?$DN?$AA?5?$AA?$CG?$AAv?$AAs?$AAe?$AAt?$AA_?$AA?9@ 00000001800698f0     leveldb:version_set.obj
 0002:0000d930       ??_C@_1BG@MHFAOFKA@?$AAr?$AAe?$AAf?$AAs?$AA_?$AA?5?$AA?$DO?$AA?$DN?$AA?5?$AA1@ 0000000180069930     leveldb:version_set.obj
 0002:0000d948       ??_C@_1DG@MMMOKGNK@?$AAl?$AAe?$AAv?$AAe?$AAl?$AA?5?$AA?$DM?$AA?5?$AAc?$AAo?$AAn?$AAf?$AAi?$AAg?$AA?3@ 0000000180069948     leveldb:version_set.obj
 0002:0000d980       ??_C@_0L@FDBHLPMB@?9?9?9?5level?5@ 0000000180069980     leveldb:version_set.obj
 0002:0000d98c       ??_C@_05OIOCPKAF@?5?9?9?9?6@ 000000018006998c     leveldb:version_set.obj
 0002:0000d994       ??_C@_01OHGJGJJP@?$FL@     0000000180069994     leveldb:version_set.obj
 0002:0000d998       ??_C@_04BPKGLAKD@?5?4?4?5@ 0000000180069998     leveldb:version_set.obj
 0002:0000d9a0       ??_C@_02JODFHDIE@?$FN?6@   00000001800699a0     leveldb:version_set.obj
 0002:0000d9a8       ??_C@_0CM@FHNAJAEB@overlapping?5ranges?5in?5same?5leve@ 00000001800699a8     leveldb:version_set.obj
 0002:0000d9e0       ??_C@_1JE@HCNLKCGH@?$AAv?$AAs?$AAe?$AAt?$AA_?$AA?9?$AA?$DO?$AAi?$AAc?$AAm?$AAp?$AA_?$AA?4?$AAC?$AAo@ 00000001800699e0     leveldb:version_set.obj
 0002:0000da80       ??_C@_1FE@GBNPOGE@?$AAd?$AAu?$AAm?$AAm?$AAy?$AA_?$AAv?$AAe?$AAr?$AAs?$AAi?$AAo?$AAn?$AAs?$AA_@ 0000000180069a80     leveldb:version_set.obj
 0002:0000dad8       ??_C@_1BM@NFJIGFM@?$AAv?$AA?9?$AA?$DO?$AAr?$AAe?$AAf?$AAs?$AA_?$AA?5?$AA?$DN?$AA?$DN?$AA?5?$AA0@ 0000000180069ad8     leveldb:version_set.obj
 0002:0000daf8       ??_C@_1BM@JJKEPPON@?$AAv?$AA?5?$AA?$CB?$AA?$DN?$AA?5?$AAc?$AAu?$AAr?$AAr?$AAe?$AAn?$AAt?$AA_@ 0000000180069af8     leveldb:version_set.obj
 0002:0000db20       ??_C@_1EC@IADDIGKK@?$AAe?$AAd?$AAi?$AAt?$AA?9?$AA?$DO?$AAl?$AAo?$AAg?$AA_?$AAn?$AAu?$AAm?$AAb?$AAe@ 0000000180069b20     leveldb:version_set.obj
 0002:0000db70       ??_C@_1EM@MPOGPGGG@?$AAe?$AAd?$AAi?$AAt?$AA?9?$AA?$DO?$AAl?$AAo?$AAg?$AA_?$AAn?$AAu?$AAm?$AAb?$AAe@ 0000000180069b70     leveldb:version_set.obj
 0002:0000dbc0       ??_C@_1DC@PINEBDGE@?$AAd?$AAe?$AAs?$AAc?$AAr?$AAi?$AAp?$AAt?$AAo?$AAr?$AA_?$AAf?$AAi?$AAl?$AAe@ 0000000180069bc0     leveldb:version_set.obj
 0002:0000dbf8       ??_C@_0BE@DKHKMIK@MANIFEST?5write?3?5?$CFs?6@ 0000000180069bf8     leveldb:version_set.obj
 0002:0000dc10       ??_C@_0CH@CCOOCHFI@CURRENT?5file?5does?5not?5end?5with?5@ 0000000180069c10     leveldb:version_set.obj
 0002:0000dc38       ??_C@_0CF@KGCIEFG@?5does?5not?5match?5existing?5compar@ 0000000180069c38     leveldb:version_set.obj
 0002:0000dc60       ??_C@_0CF@COGGNJLO@no?5meta?9nextfile?5entry?5in?5descr@ 0000000180069c60     leveldb:version_set.obj
 0002:0000dc88       ??_C@_0CG@IGKKJHJ@no?5meta?9lognumber?5entry?5in?5desc@ 0000000180069c88     leveldb:version_set.obj
 0002:0000dcb0       ??_C@_0CM@EPLOMKKC@no?5last?9sequence?9number?5entry?5i@ 0000000180069cb0     leveldb:version_set.obj
 0002:0000dce0       ??_C@_1DA@NCENOOPN@?$AAd?$AAe?$AAs?$AAc?$AAr?$AAi?$AAp?$AAt?$AAo?$AAr?$AA_?$AAl?$AAo?$AAg?$AA_@ 0000000180069ce0     leveldb:version_set.obj
 0002:0000dd10       ??_C@_0BE@NNLEOOHC@Reuse?5MANIFEST?3?5?$CFs?6@ 0000000180069d10     leveldb:version_set.obj
 0002:0000dd28       ??_C@_0BF@JPIBOOOD@Reusing?5MANIFEST?5?$CFs?6@ 0000000180069d28     leveldb:version_set.obj
 0002:0000dd40       ??_C@_0BO@IEHPFKHC@files?$FL?5?$CFd?5?$CFd?5?$CFd?5?$CFd?5?$CFd?5?$CFd?5?$CFd?5?$FN@ 0000000180069d40     leveldb:version_set.obj
 0002:0000dd60       ??_C@_1CA@JINEDNOH@?$AA?$CB?$AAi?$AAn?$AAp?$AAu?$AAt?$AAs?$AA?4?$AAe?$AAm?$AAp?$AAt?$AAy?$AA?$CI?$AA?$CJ@ 0000000180069d60     leveldb:version_set.obj
 0002:0000dd80       ??_C@_1BK@PFCADICL@?$AAn?$AAu?$AAm?$AA?5?$AA?$DM?$AA?$DN?$AA?5?$AAs?$AAp?$AAa?$AAc?$AAe@ 0000000180069d80     leveldb:version_set.obj
 0002:0000dda0       ??_C@_1DK@BFAOJEHK@?$AAl?$AAe?$AAv?$AAe?$AAl?$AA?$CL?$AA1?$AA?5?$AA?$DM?$AA?5?$AAc?$AAo?$AAn?$AAf?$AAi@ 0000000180069da0     leveldb:version_set.obj
 0002:0000dde0       ??_C@_1CO@OHHPEOEH@?$AA?$CB?$AAc?$AA?9?$AA?$DO?$AAi?$AAn?$AAp?$AAu?$AAt?$AAs?$AA_?$AA?$FL?$AA0?$AA?$FN?$AA?4@ 0000000180069de0     leveldb:version_set.obj
 0002:0000de10       ??_C@_0DN@MPCOPHAH@Expanding?$EA?$CFd?5?$CFd?$CL?$CFd?5?$CI?$CFld?$CL?$CFld?5byt@ 0000000180069e10     leveldb:version_set.obj
 0002:0000de50       ??_7LevelFileNumIterator@Version@leveldb@@6B@ 0000000180069e50     leveldb:version_set.obj
 0002:0000deb0       ??_C@_1BBC@CJKPECDN@?$AAc?$AA?3?$AA?2?$AAp?$AAr?$AAo?$AAj?$AAe?$AAt?$AAo?$AAs?$AA?2?$AAp?$AAr?$AAo@ 0000000180069eb0     leveldb:table_cache.obj
 0002:0000dfc8       ??_C@_1BM@KCLNGDCP@?$AAt?$AAa?$AAb?$AAl?$AAe?$AA?5?$AA?$DN?$AA?$DN?$AA?5?$AAN?$AAU?$AAL?$AAL@ 0000000180069fc8     leveldb:table_cache.obj
 0002:0000dfe8       ??_C@_0BA@JKPGFGGN@comparator?5name@ 0000000180069fe8     leveldb:version_edit.obj
 0002:0000dff8       ??_C@_0L@MNAKOCL@log?5number@ 0000000180069ff8     leveldb:version_edit.obj
 0002:0000e008       ??_C@_0BE@OIMELLME@previous?5log?5number@ 000000018006a008     leveldb:version_edit.obj
 0002:0000e020       ??_C@_0BB@CFPAIGNM@next?5file?5number@ 000000018006a020     leveldb:version_edit.obj
 0002:0000e038       ??_C@_0BF@IEBCCJCO@last?5sequence?5number@ 000000018006a038     leveldb:version_edit.obj
 0002:0000e050       ??_C@_0BD@GHIHLOIC@compaction?5pointer@ 000000018006a050     leveldb:version_edit.obj
 0002:0000e068       ??_C@_0N@KHDKBPGC@deleted?5file@ 000000018006a068     leveldb:version_edit.obj
 0002:0000e078       ??_C@_0P@IFJKGILN@new?9file?5entry@ 000000018006a078     leveldb:version_edit.obj
 0002:0000e088       ??_C@_0M@NDAIKBNL@unknown?5tag@ 000000018006a088     leveldb:version_edit.obj
 0002:0000e098       ??_C@_0M@MPAGAHDJ@invalid?5tag@ 000000018006a098     leveldb:version_edit.obj
 0002:0000e0a8       ??_C@_0M@OFNLEEDF@VersionEdit@ 000000018006a0a8     leveldb:version_edit.obj
 0002:0000e0b4       ??_C@_01CLKCMJKC@?5@       000000018006a0b4     leveldb:version_edit.obj
 0002:0000e0b8       ??_C@_0BO@FGDDGPEJ@partial?5record?5without?5end?$CI1?$CJ@ 000000018006a0b8     leveldb:log_reader.obj
 0002:0000e0d8       ??_C@_0BO@FEHFNBBA@partial?5record?5without?5end?$CI2?$CJ@ 000000018006a0d8     leveldb:log_reader.obj
 0002:0000e0f8       ??_C@_0CG@BJOOPHDE@missing?5start?5of?5fragmented?5rec@ 000000018006a0f8     leveldb:log_reader.obj
 0002:0000e120       ??_C@_0CG@BLKIEJGN@missing?5start?5of?5fragmented?5rec@ 000000018006a120     leveldb:log_reader.obj
 0002:0000e148       ??_C@_0BK@HJELPHBF@error?5in?5middle?5of?5record@ 000000018006a148     leveldb:log_reader.obj
 0002:0000e168       ??_C@_0BH@MDNCILIC@unknown?5record?5type?5?$CFu@ 000000018006a168     leveldb:log_reader.obj
 0002:0000e180       ??_C@_0BC@PHFEKIH@bad?5record?5length@ 000000018006a180     leveldb:log_reader.obj
 0002:0000e198       ??_C@_0BC@BAPADOCP@checksum?5mismatch@ 000000018006a198     leveldb:log_reader.obj
 0002:0000e1b0       ??_C@_1BM@CNNDPEKL@?$AAl?$AAe?$AAf?$AAt?$AAo?$AAv?$AAe?$AAr?$AA?5?$AA?$DO?$AA?$DN?$AA?5?$AA0@ 000000018006a1b0     leveldb:log_writer.obj
 0002:0000e1d0       ??_C@_1BBA@BPMHKHDM@?$AAc?$AA?3?$AA?2?$AAp?$AAr?$AAo?$AAj?$AAe?$AAt?$AAo?$AAs?$AA?2?$AAp?$AAr?$AAo@ 000000018006a1d0     leveldb:log_writer.obj
 0002:0000e2e0       ??_C@_1FM@IPGLDLLO@?$AAk?$AAB?$AAl?$AAo?$AAc?$AAk?$AAS?$AAi?$AAz?$AAe?$AA?5?$AA?9?$AA?5?$AAb?$AAl@ 000000018006a2e0     leveldb:log_writer.obj
 0002:0000e33c       ??_C@_06GCJDCAIB@?$AA?$AA?$AA?$AA?$AA?$AA@ 000000018006a33c     leveldb:log_writer.obj
 0002:0000e350       ??_C@_1FM@DLHCNMNA@?$AAb?$AAl?$AAo?$AAc?$AAk?$AA_?$AAo?$AAf?$AAf?$AAs?$AAe?$AAt?$AA_?$AA?5?$AA?$CL@ 000000018006a350     leveldb:log_writer.obj
 0002:0000e3b0       ??_C@_1BI@FDOLHBGL@?$AAn?$AA?5?$AA?$DM?$AA?$DN?$AA?5?$AA0?$AAx?$AAf?$AAf?$AAf?$AAf@ 000000018006a3b0     leveldb:log_writer.obj
 0002:0000e3d0       ??_C@_1BBC@KBFCAPHK@?$AAc?$AA?3?$AA?2?$AAp?$AAr?$AAo?$AAj?$AAe?$AAt?$AAo?$AAs?$AA?2?$AAp?$AAr?$AAo@ 000000018006a3d0     leveldb:iterator.obj
 0002:0000e4e8       ??_C@_1M@HLGKFCJM@?$AAf?$AAa?$AAl?$AAs?$AAe@ 000000018006a4e8     leveldb:iterator.obj
 0002:0000e548       ??_7Iterator@leveldb@@6B@  000000018006a548     leveldb:iterator.obj
 0002:0000e5a0       ??_C@_1BAK@IMHKOAHA@?$AAc?$AA?3?$AA?2?$AAp?$AAr?$AAo?$AAj?$AAe?$AAt?$AAo?$AAs?$AA?2?$AAp?$AAr?$AAo@ 000000018006a5a0     leveldb:db_iter.obj
 0002:0000e6b0       ??_C@_0CB@GFNBEPN@corrupted?5internal?5key?5in?5DBIte@ 000000018006a6b0     leveldb:db_iter.obj
 0002:0000e6d8       ??_C@_1O@ILGKFDHK@?$AAv?$AAa?$AAl?$AAi?$AAd?$AA_@ 000000018006a6d8     leveldb:db_iter.obj
 0002:0000e6e8       ??_C@_1CO@EMDFNHEA@?$AAd?$AAi?$AAr?$AAe?$AAc?$AAt?$AAi?$AAo?$AAn?$AA_?$AA?5?$AA?$DN?$AA?$DN?$AA?5?$AAk@ 000000018006a6e8     leveldb:db_iter.obj
 0002:0000e718       ??_C@_1BO@CNPCPKOP@?$AAi?$AAt?$AAe?$AAr?$AA_?$AA?9?$AA?$DO?$AAV?$AAa?$AAl?$AAi?$AAd?$AA?$CI?$AA?$CJ@ 000000018006a718     leveldb:db_iter.obj
 0002:0000e738       ??_C@_1CO@NJNJHGA@?$AAd?$AAi?$AAr?$AAe?$AAc?$AAt?$AAi?$AAo?$AAn?$AA_?$AA?5?$AA?$DN?$AA?$DN?$AA?5?$AAk@ 000000018006a738     leveldb:db_iter.obj
 0002:0000e7b8       ??_C@_1BK@JKHHIBHD@?$AAr?$AAe?$AAp?$AA_?$AA?9?$AA?$DO?$AAc?$AAl?$AAo?$AAs?$AAe?$AAd@ 000000018006a7b8     leveldb:table_builder.obj
 0002:0000e7e0       ??_C@_1BBM@GLCNLMCF@?$AAc?$AA?3?$AA?2?$AAp?$AAr?$AAo?$AAj?$AAe?$AAt?$AAo?$AAs?$AA?2?$AAp?$AAr?$AAo@ 000000018006a7e0     leveldb:table_builder.obj
 0002:0000e900       ??_C@_1BG@IBLAONHD@?$AA?$CB?$AAr?$AA?9?$AA?$DO?$AAc?$AAl?$AAo?$AAs?$AAe?$AAd@ 000000018006a900     leveldb:table_builder.obj
 0002:0000e918       ??_C@_1CM@CLNKMFCM@?$AAr?$AA?9?$AA?$DO?$AAd?$AAa?$AAt?$AAa?$AA_?$AAb?$AAl?$AAo?$AAc?$AAk?$AA?4?$AAe@ 000000018006a918     leveldb:table_builder.obj
 0002:0000e950       ??_C@_1HI@DFHNJDEL@?$AAr?$AA?9?$AA?$DO?$AAo?$AAp?$AAt?$AAi?$AAo?$AAn?$AAs?$AA?4?$AAc?$AAo?$AAm?$AAp@ 000000018006a950     leveldb:table_builder.obj
 0002:0000e9c8       ??_C@_19IHNNBDHG@?$AAo?$AAk?$AA?$CI?$AA?$CJ@ 000000018006a9c8     leveldb:table_builder.obj
 0002:0000e9d8       ??_C@_1DA@OEOPKHIF@?$AA?$CB?$AAr?$AA?9?$AA?$DO?$AAp?$AAe?$AAn?$AAd?$AAi?$AAn?$AAg?$AA_?$AAi?$AAn?$AAd@ 000000018006a9d8     leveldb:table_builder.obj
 0002:0000ea08       ??_C@_07LBJJLLJB@filter?4@ 000000018006aa08     leveldb:table_builder.obj
 0002:0000ea10       ??_C@_06FIJELGDL@?2x?$CF02x@ 000000018006aa10     leveldb:logging.obj
 0002:0000ea18       ??_C@_0BL@EMJHPPE@leveldb?4BytewiseComparator@ 000000018006aa18     leveldb:comparator.obj
 0002:0000ea38       ??_C@_1DG@FGMFBCBA@?$AAC?$AAo?$AAm?$AAp?$AAa?$AAr?$AAe?$AA?$CI?$AA?$CK?$AAs?$AAt?$AAa?$AAr?$AAt?$AA?0@ 000000018006aa38     leveldb:comparator.obj
 0002:0000ea70       ??_C@_1BBE@MCMOFCGB@?$AAc?$AA?3?$AA?2?$AAp?$AAr?$AAo?$AAj?$AAe?$AAt?$AAo?$AAs?$AA?2?$AAp?$AAr?$AAo@ 000000018006aa70     leveldb:comparator.obj
 0002:0000ebb0       ??_C@_13FPGAJAPJ@?$AA?2@   000000018006abb0     leveldb:env_win.obj
 0002:0000ebb8       ??_C@_0BF@OJNGPDJN@Append?3?5cannot?5write@ 000000018006abb8     leveldb:env_win.obj
 0002:0000ebd0       ??_C@_0BC@JFFNKLNA@Invalid?5file?5name@ 000000018006abd0     leveldb:env_win.obj
 0002:0000ebe8       ??_C@_0BL@MCEMBBLK@Destroying?5Env?3?3Default?$CI?$CJ?6@ 000000018006abe8     leveldb:env_win.obj
 0002:0000ec08       ??_C@_0M@FNDMMKMH@DeleteFile?5@ 000000018006ac08     leveldb:env_win.obj
 0002:0000ec14       ??_C@_13BBDEGPLJ@?$AA?$CK@ 000000018006ac14     leveldb:env_win.obj
 0002:0000ec18       ??_C@_0M@IEPECJOK@RenameFile?5@ 000000018006ac18     leveldb:env_win.obj
 0002:0000ec28       ??_C@_0N@DCPDIALN@GetFileSize?5@ 000000018006ac28     leveldb:env_win.obj
 0002:0000ec38       ??_C@_0BL@OKNINABO@Could?5not?5close?5lock?5file?4@ 000000018006ac38     leveldb:env_win.obj
 0002:0000ec58       ??_C@_09CLLHBIAK@LockFile?5@ 000000018006ac58     leveldb:env_win.obj
 0002:0000ec64       ??_C@_02BKFDOEMK@wt@       000000018006ac64     leveldb:env_win.obj
 0002:0000ec68       ??_C@_0BJ@LBHFIONJ@Can?8t?5get?5test?5directory@ 000000018006ac68     leveldb:env_win.obj
 0002:0000ec88       ??_7WinSequentialFile@leveldb@@6B@ 000000018006ac88     leveldb:env_win.obj
 0002:0000eca0       ??_7WinWritableFile@leveldb@@6B@ 000000018006aca0     leveldb:env_win.obj
 0002:0000ecc8       ??_7WinLogger@leveldb@@6B@ 000000018006acc8     leveldb:env_win.obj
 0002:0000ecd8       ??_7WinRandomAccessFile@leveldb@@6B@ 000000018006acd8     leveldb:env_win.obj
 0002:0000ed90       ??_C@_1GO@HAPHDGIH@?$AA?$CI?$AAr?$AAe?$AAi?$AAn?$AAt?$AAe?$AAr?$AAp?$AAr?$AAe?$AAt?$AA_?$AAc?$AAa@ 000000018006ad90     leveldb:arena.obj
 0002:0000ee00       ??_C@_1BAK@KAIBAGHP@?$AAc?$AA?3?$AA?2?$AAp?$AAr?$AAo?$AAj?$AAe?$AAt?$AAo?$AAs?$AA?2?$AAp?$AAr?$AAo@ 000000018006ae00     leveldb:arena.obj
 0002:0000ef10       ??_C@_0CD@MFPEIJCL@file?5is?5too?5short?5to?5be?5an?5ssta@ 000000018006af10     leveldb:table.obj
 0002:0000ef40       ??_C@_1BCG@FJLBHMEM@?$AAc?$AA?3?$AA?2?$AAp?$AAr?$AAo?$AAj?$AAe?$AAt?$AAo?$AAs?$AA?2?$AAp?$AAr?$AAo@ 000000018006af40     leveldb:two_level_iterator.obj
 0002:0000f0c0       ??_C@_1BAO@MELMBHPE@?$AAc?$AA?3?$AA?2?$AAp?$AAr?$AAo?$AAj?$AAe?$AAt?$AAo?$AAs?$AA?2?$AAp?$AAr?$AAo@ 000000018006b0c0     leveldb:format.obj
 0002:0000f1d0       ??_C@_1EG@ILPAOCBE@?$AAs?$AAi?$AAz?$AAe?$AA_?$AA?5?$AA?$CB?$AA?$DN?$AA?5?$AA?$HO?$AAs?$AAt?$AAa?$AAt?$AAi@ 000000018006b1d0     leveldb:format.obj
 0002:0000f220       ??_C@_1EK@NLBLPNKC@?$AAo?$AAf?$AAf?$AAs?$AAe?$AAt?$AA_?$AA?5?$AA?$CB?$AA?$DN?$AA?5?$AA?$HO?$AAs?$AAt?$AAa@ 000000018006b220     leveldb:format.obj
 0002:0000f270       ??_C@_1FM@OOADEKPA@?$AAd?$AAs?$AAt?$AA?9?$AA?$DO?$AAs?$AAi?$AAz?$AAe?$AA?$CI?$AA?$CJ?$AA?5?$AA?$DN?$AA?$DN?$AA?5@ 000000018006b270     leveldb:format.obj
 0002:0000f2d0       ??_C@_0BB@COHNLJFI@bad?5block?5handle@ 000000018006b2d0     leveldb:format.obj
 0002:0000f2e8       ??_C@_0BF@ILLMDOOF@truncated?5block?5read@ 000000018006b2e8     leveldb:format.obj
 0002:0000f300       ??_C@_0CC@LKCDIABI@not?5an?5sstable?5?$CIbad?5magic?5numbe@ 000000018006b300     leveldb:format.obj
 0002:0000f328       ??_C@_0CE@CAOEIAMG@corrupted?5compressed?5block?5cont@ 000000018006b328     leveldb:format.obj
 0002:0000f350       ??_C@_0BI@GPFPFKGA@block?5checksum?5mismatch@ 000000018006b350     leveldb:format.obj
 0002:0000f368       ??_C@_0P@MDODGMKN@bad?5block?5type@ 000000018006b368     leveldb:format.obj
 0002:0000f380       ??_C@_1BBM@GABGPCHJ@?$AAc?$AA?3?$AA?2?$AAp?$AAr?$AAo?$AAj?$AAe?$AAt?$AAo?$AAs?$AA?2?$AAp?$AAr?$AAo@ 000000018006b380     leveldb:block_builder.obj
 0002:0000f4a0       ??_C@_1BG@EOCCOFML@?$AA?$CB?$AAf?$AAi?$AAn?$AAi?$AAs?$AAh?$AAe?$AAd?$AA_@ 000000018006b4a0     leveldb:block_builder.obj
 0002:0000f4c0       ??_C@_1EK@CDMOINIK@?$AAo?$AAp?$AAt?$AAi?$AAo?$AAn?$AAs?$AA?9?$AA?$DO?$AAb?$AAl?$AAo?$AAc?$AAk?$AA_@ 000000018006b4c0     leveldb:block_builder.obj
 0002:0000f510       ??_C@_1JE@IDLNCLOC@?$AAb?$AAu?$AAf?$AAf?$AAe?$AAr?$AA_?$AA?4?$AAe?$AAm?$AAp?$AAt?$AAy?$AA?$CI?$AA?$CJ@ 000000018006b510     leveldb:block_builder.obj
 0002:0000f5b0       ??_C@_1FK@EBPNECBO@?$AAc?$AAo?$AAu?$AAn?$AAt?$AAe?$AAr?$AA_?$AA?5?$AA?$DM?$AA?$DN?$AA?5?$AAo?$AAp?$AAt@ 000000018006b5b0     leveldb:block_builder.obj
 0002:0000f610       ??_C@_1DA@HKBPACGM@?$AAS?$AAl?$AAi?$AAc?$AAe?$AA?$CI?$AAl?$AAa?$AAs?$AAt?$AA_?$AAk?$AAe?$AAy?$AA_@ 000000018006b610     leveldb:block_builder.obj
 0002:0000f640       ??_C@_1BBK@EKIMKGC@?$AAc?$AA?3?$AA?2?$AAp?$AAr?$AAo?$AAj?$AAe?$AAt?$AAo?$AAs?$AA?2?$AAp?$AAr?$AAo@ 000000018006b640     leveldb:filter_block.obj
 0002:0000f760       ??_C@_1EO@PGEBFJEE@?$AAf?$AAi?$AAl?$AAt?$AAe?$AAr?$AA_?$AAi?$AAn?$AAd?$AAe?$AAx?$AA?5?$AA?$DO?$AA?$DN@ 000000018006b760     leveldb:filter_block.obj
 0002:0000f7b0       ??_C@_1BAG@IFMJDOCE@?$AAc?$AA?3?$AA?2?$AAp?$AAr?$AAo?$AAj?$AAe?$AAt?$AAo?$AAs?$AA?2?$AAp?$AAr?$AAo@ 000000018006b7b0     leveldb:win_logger.obj
 0002:0000f8b8       ??_C@_0CJ@PLBDDMCE@?$CF04d?1?$CF02d?1?$CF02d?9?$CF02d?3?$CF02d?3?$CF02d?4?$CF@ 000000018006b8b8     leveldb:win_logger.obj
 0002:0000f8e8       ??_C@_1BG@HMMENFBB@?$AAp?$AA?5?$AA?$DM?$AA?$DN?$AA?5?$AAl?$AAi?$AAm?$AAi?$AAt@ 000000018006b8e8     leveldb:win_logger.obj
 0002:0000f900       ??_C@_1DE@GPJNGOEK@?$AAs?$AAi?$AAz?$AAe?$AA_?$AA?5?$AA?$DO?$AA?$DN?$AA?5?$AAs?$AAi?$AAz?$AAe?$AAo?$AAf@ 000000018006b900     leveldb:block.obj
 0002:0000f940       ??_C@_1BAM@GEPLJCKD@?$AAc?$AA?3?$AA?2?$AAp?$AAr?$AAo?$AAj?$AAe?$AAt?$AAo?$AAs?$AA?2?$AAp?$AAr?$AAo@ 000000018006b940     leveldb:block.obj
 0002:0000fa50       ??_C@_1CE@HBCAJAAP@?$AAn?$AAu?$AAm?$AA_?$AAr?$AAe?$AAs?$AAt?$AAa?$AAr?$AAt?$AAs?$AA_?$AA?5?$AA?$DO@ 000000018006ba50     leveldb:block.obj
 0002:0000fa78       ??_C@_1CM@KILDAMOA@?$AAi?$AAn?$AAd?$AAe?$AAx?$AA?5?$AA?$DM?$AA?5?$AAn?$AAu?$AAm?$AA_?$AAr?$AAe?$AAs@ 000000018006ba78     leveldb:block.obj
 0002:0000faa8       ??_C@_0BD@NJCNHDLE@bad?5block?5contents@ 000000018006baa8     leveldb:block.obj
 0002:0000fac0       ??_C@_0BD@CHEKDAPJ@bad?5entry?5in?5block@ 000000018006bac0     leveldb:block.obj
 0002:0000fad8       ??_7Iter@Block@leveldb@@6B@ 000000018006bad8     leveldb:block.obj
 0002:0000fb28       ??_C@_1BG@GNOBELO@?$AAv?$AAa?$AAl?$AAu?$AAe?$AA?5?$AA?$DN?$AA?$DN?$AA?5?$AA1@ 000000018006bb28     snappy:snappy.obj
 0002:0000fb40       ??_C@_1BBM@KHJNDCBG@?$AAc?$AA?3?$AA?2?$AAp?$AAr?$AAo?$AAj?$AAe?$AAt?$AAo?$AAs?$AA?2?$AAp?$AAr?$AAo@ 000000018006bb40     snappy:snappy.obj
 0002:0000fc60       ??_C@_1BO@HOKEIBLG@?$AAs?$AA2?$AA_?$AAl?$AAi?$AAm?$AAi?$AAt?$AA?5?$AA?$DO?$AA?$DN?$AA?5?$AAs?$AA2@ 000000018006bc60     snappy:snappy.obj
 0002:0000fc80       ??_C@_1BBA@OJAPNALE@?$AAc?$AA?3?$AA?2?$AAp?$AAr?$AAo?$AAj?$AAe?$AAt?$AAo?$AAs?$AA?2?$AAp?$AAr?$AAo@ 000000018006bc80     snappy:snappy.obj
 0002:0000fd90       ??_C@_1BC@BCGFIDBL@?$AAs?$AAr?$AAc?$AA?5?$AA?$DM?$AA?5?$AAo?$AAp@ 000000018006bd90     snappy:snappy.obj
 0002:0000fdb0       ??_C@_1BAA@IHCHOGEE@?$AAc?$AA?3?$AA?2?$AAp?$AAr?$AAo?$AAj?$AAe?$AAt?$AAo?$AAs?$AA?2?$AAp?$AAr?$AAo@ 000000018006bdb0     snappy:snappy.obj
 0002:0000feb0       ??_C@_1CM@BCIBAAPP@?$AAo?$AAp?$AA_?$AAl?$AAi?$AAm?$AAi?$AAt?$AA?5?$AA?$DM?$AA?$DN?$AA?5?$AAb?$AAu?$AAf@ 000000018006beb0     snappy:snappy.obj
 0002:0000fee0       ??_C@_1BG@IHIONFJH@?$AAc?$AAo?$AAu?$AAn?$AAt?$AA?5?$AA?$DO?$AA?$DN?$AA?5?$AA1@ 000000018006bee0     snappy:snappy.obj
 0002:0000fef8       ??_C@_1BA@GMKHALLP@?$AAl?$AAe?$AAn?$AA?5?$AA?$DO?$AA?5?$AA0@ 000000018006bef8     snappy:snappy.obj
 0002:0000ff08       ??_C@_1BE@DLMJINK@?$AAl?$AAe?$AAn?$AA?5?$AA?$DM?$AA?$DN?$AA?5?$AA6?$AA4@ 000000018006bf08     snappy:snappy.obj
 0002:0000ff20       ??_C@_1BG@LEKFPFJI@?$AAc?$AAo?$AAu?$AAn?$AAt?$AA?5?$AA?$DM?$AA?$DN?$AA?5?$AA4@ 000000018006bf20     snappy:snappy.obj
 0002:0000ff38       ??_C@_1BO@PPEGDPPA@?$AAo?$AAf?$AAf?$AAs?$AAe?$AAt?$AA?5?$AA?$DM?$AA?5?$AA6?$AA5?$AA5?$AA3?$AA6@ 000000018006bf38     snappy:snappy.obj
 0002:0000ff58       ??_C@_1BC@GPKOEOMP@?$AAl?$AAe?$AAn?$AA?5?$AA?$DO?$AA?$DN?$AA?5?$AA4@ 000000018006bf58     snappy:snappy.obj
 0002:0000ff70       ??_C@_1DO@IILEOCEN@?$AAl?$AAe?$AAn?$AA_?$AAl?$AAe?$AAs?$AAs?$AA_?$AAt?$AAh?$AAa?$AAn?$AA_?$AA1@ 000000018006bf70     snappy:snappy.obj
 0002:0000ffb0       ??_C@_1DC@OPGIIANN@?$AAi?$AAn?$AAp?$AAu?$AAt?$AA_?$AAs?$AAi?$AAz?$AAe?$AA?5?$AA?$DM?$AA?$DN?$AA?5?$AAk@ 000000018006bfb0     snappy:snappy.obj
 0002:0000fff0       ??_C@_1HA@CGBFNEOD@?$AAs?$AAt?$AAa?$AAt?$AAi?$AAc?$AA_?$AAc?$AAa?$AAs?$AAt?$AA?$DM?$AAi?$AAn?$AAt@ 000000018006bff0     snappy:snappy.obj
 0002:00010060       ??_C@_1EK@FEBNOKCP@?$AA?$CI?$AAt?$AAa?$AAb?$AAl?$AAe?$AA_?$AAs?$AAi?$AAz?$AAe?$AA?5?$AA?$CG?$AA?5?$AA?$CI@ 000000018006c060     snappy:snappy.obj
 0002:000100b0       ??_C@_1DA@JPFPEEHF@?$AAh?$AAa?$AAs?$AAh?$AA?5?$AA?$DN?$AA?$DN?$AA?5?$AAH?$AAa?$AAs?$AAh?$AA?$CI?$AAi?$AAp@ 000000018006c0b0     snappy:snappy.obj
 0002:000100e0       ??_C@_1BO@POBPHOCK@?$AAn?$AAe?$AAx?$AAt?$AA_?$AAe?$AAm?$AAi?$AAt?$AA?5?$AA?$DM?$AA?5?$AAi?$AAp@ 000000018006c0e0     snappy:snappy.obj
 0002:00010100       ??_C@_1BO@NJGNGDBA@?$AAc?$AAa?$AAn?$AAd?$AAi?$AAd?$AAa?$AAt?$AAe?$AA?5?$AA?$DM?$AA?5?$AAi?$AAp@ 000000018006c100     snappy:snappy.obj
 0002:00010120       ??_C@_1CK@LPFHJPBE@?$AAc?$AAa?$AAn?$AAd?$AAi?$AAd?$AAa?$AAt?$AAe?$AA?5?$AA?$DO?$AA?$DN?$AA?5?$AAb?$AAa@ 000000018006c120     snappy:snappy.obj
 0002:00010150       ??_C@_1EM@HJJPEPBA@?$AA0?$AA?5?$AA?$DN?$AA?$DN?$AA?5?$AAm?$AAe?$AAm?$AAc?$AAm?$AAp?$AA?$CI?$AAb?$AAa?$AAs@ 000000018006c150     snappy:snappy.obj
 0002:000101a0       ??_C@_1DC@OIJJOGJB@?$AAn?$AAe?$AAx?$AAt?$AA_?$AAe?$AAm?$AAi?$AAt?$AA?5?$AA?$CL?$AA?5?$AA1?$AA6?$AA?5@ 000000018006c1a0     snappy:snappy.obj
 0002:000101d8       ??_C@_1BO@NMEHIMPL@?$AAi?$AAp?$AA?5?$AA?$DM?$AA?5?$AAi?$AAp?$AA_?$AAl?$AAi?$AAm?$AAi?$AAt?$AA_@ 000000018006c1d8     snappy:snappy.obj
 0002:000101f8       ??_C@_1BO@IALOIOFH@?$AAn?$AAb?$AAu?$AAf?$AA?5?$AA?$DN?$AA?$DN?$AA?5?$AAn?$AAe?$AAe?$AAd?$AAe?$AAd@ 000000018006c1f8     snappy:snappy.obj
 0002:00010218       ??_C@_1DG@CJMIIFFC@?$AAn?$AAe?$AAe?$AAd?$AAe?$AAd?$AA?5?$AA?$DM?$AA?$DN?$AA?5?$AAs?$AAi?$AAz?$AAe?$AAo@ 000000018006c218     snappy:snappy.obj
 0002:00010250       ??_C@_1DE@GIPLEENC@?$AAb?$AAy?$AAt?$AAe?$AAs?$AA_?$AAr?$AAe?$AAa?$AAd?$AA?5?$AA?$DN?$AA?$DN?$AA?5?$AAn@ 000000018006c250     snappy:snappy.obj
 0002:00010288       ??_C@_1CG@MOFADOEH@?$AAf?$AAr?$AAa?$AAg?$AAm?$AAe?$AAn?$AAt?$AA_?$AAs?$AAi?$AAz?$AAe?$AA?5?$AA?$CB@ 000000018006c288     snappy:snappy.obj
 0002:000102b0       ??_C@_1BK@NIHCJJIO@?$AAo?$AAp?$AA_?$AA?5?$AA?$DO?$AA?$DN?$AA?5?$AAb?$AAa?$AAs?$AAe?$AA_@ 000000018006c2b0     snappy:snappy.obj
 0002:000102d0       ??_C@_1CI@LJPILCOO@?$AAl?$AAi?$AAt?$AAe?$AAr?$AAa?$AAl?$AA_?$AAl?$AAe?$AAn?$AAg?$AAt?$AAh?$AA?5@ 000000018006c2d0     snappy:snappy.obj
 0002:000102f8       ??_7UncheckedByteArraySink@snappy@@6B@ 000000018006c2f8     snappy:snappy.obj
 0002:00010320       ??_7Sink@snappy@@6B@       000000018006c320     snappy:snappy.obj
 0002:00010348       ??_7ByteArraySource@snappy@@6B@ 000000018006c348     snappy:snappy.obj
 0002:00010660       __real@3eb0000000000000    000000018006c660     leveldb:db_impl.obj
 0002:00010668       __real@3fd0000000000000    000000018006c668     leveldb:version_set.obj
 0002:00010670       __real@3ff0000000000000    000000018006c670     leveldb:db_impl.obj
 0002:00010678       __real@401b999999999999    000000018006c678     leveldb:bloom.obj
 0002:00010680       __real@4024000000000000    000000018006c680     leveldb:version_set.obj
 0002:00010688       __real@412e848000000000    000000018006c688     leveldb:db_impl.obj
 0002:00010690       __real@4164000000000000    000000018006c690     leveldb:version_set.obj
 0002:00010698       __real@43e0000000000000    000000018006c698     leveldb:bloom.obj
 0002:000106a0       __real@43f0000000000000    000000018006c6a0     leveldb:version_set.obj
 0002:000106a8       __real@bff0000000000000    000000018006c6a8     batch.obj
 0002:000106b0       __xmm@000000000000000f0000000000000000 000000018006c6b0     leveldb:db_iter.obj
 0002:00014040       _tls_used                  0000000180070040     LIBCMT:tlssup.obj
 0002:00014068       ??_R4exception@std@@6B@    0000000180070068     libcpmt:xthrow.obj
 0002:00014090       ??_R3exception@std@@8      0000000180070090     libcpmt:xthrow.obj
 0002:000140a8       ??_R2exception@std@@8      00000001800700a8     libcpmt:xthrow.obj
 0002:000140b8       ??_R1A@?0A@EA@exception@std@@8 00000001800700b8     libcpmt:xthrow.obj
 0002:000140e0       ??_R4bad_alloc@std@@6B@    00000001800700e0     libcpmt:xthrow.obj
 0002:00014108       ??_R3bad_alloc@std@@8      0000000180070108     libcpmt:xthrow.obj
 0002:00014120       ??_R2bad_alloc@std@@8      0000000180070120     libcpmt:xthrow.obj
 0002:00014138       ??_R1A@?0A@EA@bad_alloc@std@@8 0000000180070138     libcpmt:xthrow.obj
 0002:00014160       ??_R4logic_error@std@@6B@  0000000180070160     libcpmt:xthrow.obj
 0002:00014188       ??_R3logic_error@std@@8    0000000180070188     libcpmt:xthrow.obj
 0002:000141a0       ??_R2logic_error@std@@8    00000001800701a0     libcpmt:xthrow.obj
 0002:000141b8       ??_R1A@?0A@EA@logic_error@std@@8 00000001800701b8     libcpmt:xthrow.obj
 0002:000141e0       ??_R4length_error@std@@6B@ 00000001800701e0     libcpmt:xthrow.obj
 0002:00014208       ??_R3length_error@std@@8   0000000180070208     libcpmt:xthrow.obj
 0002:00014220       ??_R2length_error@std@@8   0000000180070220     libcpmt:xthrow.obj
 0002:00014240       ??_R1A@?0A@EA@length_error@std@@8 0000000180070240     libcpmt:xthrow.obj
 0002:00014268       ??_R4type_info@@6B@        0000000180070268     LIBCMT:std_type_info_static.obj
 0002:00014290       ??_R3type_info@@8          0000000180070290     LIBCMT:std_type_info_static.obj
 0002:000142a8       ??_R2type_info@@8          00000001800702a8     LIBCMT:std_type_info_static.obj
 0002:000142b8       ??_R1A@?0A@EA@type_info@@8 00000001800702b8     LIBCMT:std_type_info_static.obj
 0002:000142e0       ??_R4bad_array_new_length@std@@6B@ 00000001800702e0     LIBCMT:throw_bad_alloc.obj
 0002:00014308       ??_R3bad_array_new_length@std@@8 0000000180070308     LIBCMT:throw_bad_alloc.obj
 0002:00014320       ??_R2bad_array_new_length@std@@8 0000000180070320     LIBCMT:throw_bad_alloc.obj
 0002:00014340       ??_R1A@?0A@EA@bad_array_new_length@std@@8 0000000180070340     LIBCMT:throw_bad_alloc.obj
 0002:00014368       ??_R4bad_exception@std@@6B@ 0000000180070368     libvcruntime:frame.obj
 0002:00014390       ??_R3bad_exception@std@@8  0000000180070390     libvcruntime:frame.obj
 0002:000143a8       ??_R2bad_exception@std@@8  00000001800703a8     libvcruntime:frame.obj
 0002:000143c0       ??_R1A@?0A@EA@bad_exception@std@@8 00000001800703c0     libvcruntime:frame.obj
 0002:00014868       __rtc_iaa                  0000000180070868     LIBCMT:initsect.obj
 0002:00014870       __rtc_izz                  0000000180070870     LIBCMT:initsect.obj
 0002:00014878       __rtc_taa                  0000000180070878     LIBCMT:initsect.obj
 0002:00014880       __rtc_tzz                  0000000180070880     LIBCMT:initsect.obj
 0002:00014888       _tls_start                 0000000180070888     LIBCMT:tlssup.obj
 0002:0001488c       _Init_thread_epoch         000000018007088c     LIBCMT:thread_safe_statics.obj
 0002:00014890       _tls_end                   0000000180070890     LIBCMT:tlssup.obj
 0002:000211e8       _TI2?AVbad_alloc@std@@     000000018007d1e8     libcpmt:xthrow.obj
 0002:00021208       _CTA2?AVbad_alloc@std@@    000000018007d208     libcpmt:xthrow.obj
 0002:00021220       _CT??_R0?AVbad_alloc@std@@@8??0bad_alloc@std@@QEAA@AEBV01@@Z24 000000018007d220     libcpmt:xthrow.obj
 0002:00021248       _CT??_R0?AVexception@std@@@8??0exception@std@@QEAA@AEBV01@@Z24 000000018007d248     libcpmt:xthrow.obj
 0002:00021270       _CT??_R0?AVlogic_error@std@@@8??0logic_error@std@@QEAA@AEBV01@@Z24 000000018007d270     libcpmt:xthrow.obj
 0002:00021298       _TI3?AVlength_error@std@@  000000018007d298     libcpmt:xthrow.obj
 0002:000212b8       _CTA3?AVlength_error@std@@ 000000018007d2b8     libcpmt:xthrow.obj
 0002:000212d8       _CT??_R0?AVlength_error@std@@@8??0length_error@std@@QEAA@AEBV01@@Z24 000000018007d2d8     libcpmt:xthrow.obj
 0002:00021300       _TI3?AVbad_array_new_length@std@@ 000000018007d300     LIBCMT:throw_bad_alloc.obj
 0002:00021320       _CTA3?AVbad_array_new_length@std@@ 000000018007d320     LIBCMT:throw_bad_alloc.obj
 0002:00021340       _CT??_R0?AVbad_array_new_length@std@@@8??0bad_array_new_length@std@@QEAA@AEBV01@@Z24 000000018007d340     LIBCMT:throw_bad_alloc.obj
 0002:00021368       _TI2?AVbad_exception@std@@ 000000018007d368     libvcruntime:frame.obj
 0002:00021388       _CTA2?AVbad_exception@std@@ 000000018007d388     libvcruntime:frame.obj
 0002:000213a0       _CT??_R0?AVbad_exception@std@@@8??0bad_exception@std@@QEAA@AEBV01@@Z24 000000018007d3a0     libvcruntime:frame.obj
 0002:000213c4       __DELAY_IMPORT_DESCRIPTOR_node_exe 000000018007d3c4     node:node.exe
 0002:000213e4       __NULL_DELAY_IMPORT_DESCRIPTOR 000000018007d3e4     node:node.exe
 0002:000216a8       \177node_NULL_THUNK_DATA_DLN 000000018007d6a8     node:node.exe
 0002:00022978       \177node_NULL_THUNK_DATA_DLB 000000018007e978     node:node.exe
 0002:00022c78       __IMPORT_DESCRIPTOR_KERNEL32 000000018007ec78     kernel32:KERNEL32.dll
 0002:00022c8c       __NULL_IMPORT_DESCRIPTOR   000000018007ec8c     kernel32:KERNEL32.dll
 0003:00000000       __scrt_native_dllmain_reason 0000000180080000     LIBCMT:utility.obj
 0003:00000004       _Init_global_epoch         0000000180080004     LIBCMT:thread_safe_statics.obj
 0003:00000008       __security_cookie_complement 0000000180080008     LIBCMT:gs_cookie.obj
 0003:00000010       __security_cookie          0000000180080010     LIBCMT:gs_cookie.obj
 0003:00000018       __isa_available            0000000180080018     LIBCMT:cpu_disp.obj
 0003:0000001c       __isa_enabled              000000018008001c     LIBCMT:cpu_disp.obj
 0003:00000020       __memcpy_nt_iters          0000000180080020     LIBCMT:cpu_disp.obj
 0003:00000040       __abort_behavior           0000000180080040     libucrt:abort.obj
 0003:00000050       _iob                       0000000180080050     libucrt:_file.obj
 0003:00000170       __acrt_initial_locale_data 0000000180080170     libucrt:nlsdata.obj
 0003:000002c8       __acrt_initial_locale_pointers 00000001800802c8     libucrt:nlsdata.obj
 0003:000002d8       __acrt_wide_c_locale_string 00000001800802d8     libucrt:nlsdata.obj
 0003:000002e0       __badioinfo                00000001800802e0     libucrt:ioinit.obj
 0003:00000640       __acrt_initial_multibyte_data 0000000180080640     libucrt:mbctype.obj
 0003:00000868       _pwctype                   0000000180080868     libucrt:ctype.obj
 0003:00000870       __globallocalestatus       0000000180080870     libucrt:glstatus.obj
 0003:00000880       __acrt_lconv_c             0000000180080880     libucrt:localeconv.obj
 0003:00000918       __acrt_lconv_static_decimal 0000000180080918     libucrt:localeconv.obj
 0003:0000091c       __acrt_lconv_static_W_decimal 000000018008091c     libucrt:localeconv.obj
 0003:00000920       _lookuptrailbytes          0000000180080920     libucrt:read.obj
 0003:00000a40       _fltused                   0000000180080a40     LIBCMT:fltused.obj
 0003:00000a90       ??_R0?AVbad_alloc@std@@@8  0000000180080a90     libcpmt:xthrow.obj
 0003:00000ab8       ??_R0?AVexception@std@@@8  0000000180080ab8     libcpmt:xthrow.obj
 0003:00000ae0       ??_R0?AVlogic_error@std@@@8 0000000180080ae0     libcpmt:xthrow.obj
 0003:00000b08       ??_R0?AVlength_error@std@@@8 0000000180080b08     libcpmt:xthrow.obj
 0003:00000b30       ??_R0?AVtype_info@@@8      0000000180080b30     LIBCMT:std_type_info_static.obj
 0003:00000b50       ??_R0?AVbad_array_new_length@std@@@8 0000000180080b50     LIBCMT:throw_bad_alloc.obj
 0003:00000b80       ??_R0?AVbad_exception@std@@@8 0000000180080b80     libvcruntime:frame.obj
 0003:00000ba8       __imp_uv_queue_work        0000000180080ba8     node:node.exe
 0003:00000bb0       __imp_uv_cond_broadcast    0000000180080bb0     node:node.exe
 0003:00000bb8       __imp_?Global@Context@v8@@QEAA?AV?$Local@VObject@v8@@@2@XZ 0000000180080bb8     node:node.exe
 0003:00000bc0       __imp_?Value@External@v8@@QEBAPEAXXZ 0000000180080bc0     node:node.exe
 0003:00000bc8       __imp_?New@External@v8@@SA?AV?$Local@VExternal@v8@@@2@PEAVIsolate@2@PEAX@Z 0000000180080bc8     node:node.exe
 0003:00000bd0       __imp_?New@Signature@v8@@SA?AV?$Local@VSignature@v8@@@2@PEAVIsolate@2@V?$Local@VFunctionTemplate@v8@@@2@@Z 0000000180080bd0     node:node.exe
 0003:00000bd8       __imp_?ThrowException@Isolate@v8@@QEAA?AV?$Local@VValue@v8@@@2@V32@@Z 0000000180080bd8     node:node.exe
 0003:00000be0       __imp_?GetCurrentContext@Isolate@v8@@QEAA?AV?$Local@VContext@v8@@@2@XZ 0000000180080be0     node:node.exe
 0003:00000be8       __imp_?GetCurrent@Isolate@v8@@SAPEAV12@XZ 0000000180080be8     node:node.exe
 0003:00000bf0       __imp_?CreateHandle@HandleScope@v8@@KAPEAPEAVObject@internal@2@PEAVIsolate@42@PEAV342@@Z 0000000180080bf0     node:node.exe
 0003:00000bf8       __imp_?CreateHandle@HandleScope@v8@@CAPEAPEAVObject@internal@2@PEAVNeverReadOnlySpaceObject@42@PEAV342@@Z 0000000180080bf8     node:node.exe
 0003:00000c00       __imp_??1HandleScope@v8@@QEAA@XZ 0000000180080c00     node:node.exe
 0003:00000c08       __imp_??0HandleScope@v8@@QEAA@PEAVIsolate@1@@Z 0000000180080c08     node:node.exe
 0003:00000c10       __imp_?Set@Template@v8@@QEAAXV?$Local@VName@v8@@@2@V?$Local@VData@v8@@@2@W4PropertyAttribute@2@@Z 0000000180080c10     node:node.exe
 0003:00000c18       __imp_?Error@Exception@v8@@SA?AV?$Local@VValue@v8@@@2@V?$Local@VString@v8@@@2@@Z 0000000180080c18     node:node.exe
 0003:00000c20       __imp_?SetClassName@FunctionTemplate@v8@@QEAAXV?$Local@VString@v8@@@2@@Z 0000000180080c20     node:node.exe
 0003:00000c28       __imp_?PrototypeTemplate@FunctionTemplate@v8@@QEAA?AV?$Local@VObjectTemplate@v8@@@2@XZ 0000000180080c28     node:node.exe
 0003:00000c30       __imp_?InstanceTemplate@FunctionTemplate@v8@@QEAA?AV?$Local@VObjectTemplate@v8@@@2@XZ 0000000180080c30     node:node.exe
 0003:00000c38       __imp_?GetFunction@FunctionTemplate@v8@@QEAA?AV?$Local@VFunction@v8@@@2@XZ 0000000180080c38     node:node.exe
 0003:00000c40       __imp_?New@FunctionTemplate@v8@@SA?AV?$Local@VFunctionTemplate@v8@@@2@PEAVIsolate@2@P6AXAEBV?$FunctionCallbackInfo@VValue@v8@@@2@@ZV?$Local@VValue@v8@@@2@V?$Local@VSignature@v8@@@2@HW4ConstructorBehavior@2@W4SideEffectType@2@@Z 0000000180080c40     node:node.exe
 0003:00000c48       __imp_?ToLocalEmpty@V8@v8@@CAXXZ 0000000180080c48     node:node.exe
 0003:00000c50       __imp_?ClearWeak@V8@v8@@CAPEAXPEAPEAVObject@internal@2@@Z 0000000180080c50     node:node.exe
 0003:00000c58       __imp_?MakeWeak@V8@v8@@CAXPEAPEAVObject@internal@2@PEAXP6AXAEBV?$WeakCallbackInfo@X@2@@ZW4WeakCallbackType@2@@Z 0000000180080c58     node:node.exe
 0003:00000c60       __imp_?DisposeGlobal@V8@v8@@CAXPEAPEAVObject@internal@2@@Z 0000000180080c60     node:node.exe
 0003:00000c68       __imp_?GlobalizeReference@V8@v8@@CAPEAPEAVObject@internal@2@PEAVIsolate@42@PEAPEAV342@@Z 0000000180080c68     node:node.exe
 0003:00000c70       __imp_?BooleanValue@Value@v8@@QEBA_NXZ 0000000180080c70     node:node.exe
 0003:00000c78       __imp_?IsObject@Value@v8@@QEBA_NXZ 0000000180080c78     node:node.exe
 0003:00000c80       __imp_?Escape@EscapableHandleScope@v8@@AEAAPEAPEAVObject@internal@2@PEAPEAV342@@Z 0000000180080c80     node:node.exe
 0003:00000c88       __imp_??0EscapableHandleScope@v8@@QEAA@PEAVIsolate@1@@Z 0000000180080c88     node:node.exe
 0003:00000c90       __imp_?NewFromUtf8@String@v8@@SA?AV?$MaybeLocal@VString@v8@@@2@PEAVIsolate@2@PEBDW4NewStringType@2@H@Z 0000000180080c90     node:node.exe
 0003:00000c98       __imp_?WriteUtf8@String@v8@@QEBAHPEADHPEAHH@Z 0000000180080c98     node:node.exe
 0003:00000ca0       __imp_?Utf8Length@String@v8@@QEBAHXZ 0000000180080ca0     node:node.exe
 0003:00000ca8       __imp_?SlowGetAlignedPointerFromInternalField@Object@v8@@AEAAPEAXH@Z 0000000180080ca8     node:node.exe
 0003:00000cb0       __imp_?SlowGetInternalField@Object@v8@@AEAA?AV?$Local@VValue@v8@@@2@H@Z 0000000180080cb0     node:node.exe
 0003:00000cb8       __imp_?New@Object@v8@@SA?AV?$Local@VObject@v8@@@2@PEAVIsolate@2@@Z 0000000180080cb8     node:node.exe
 0003:00000cc0       __imp_?SetAlignedPointerInInternalField@Object@v8@@QEAAXHPEAX@Z 0000000180080cc0     node:node.exe
 0003:00000cc8       __imp_?SetInternalField@Object@v8@@QEAAXHV?$Local@VValue@v8@@@2@@Z 0000000180080cc8     node:node.exe
 0003:00000cd0       __imp_?InternalFieldCount@Object@v8@@QEAAHXZ 0000000180080cd0     node:node.exe
 0003:00000cd8       __imp_?Has@Object@v8@@QEAA_NV?$Local@VValue@v8@@@2@@Z 0000000180080cd8     node:node.exe
 0003:00000ce0       __imp_?Get@Object@v8@@QEAA?AV?$Local@VValue@v8@@@2@V32@@Z 0000000180080ce0     node:node.exe
 0003:00000ce8       __imp_?Set@Object@v8@@QEAA_NV?$Local@VValue@v8@@@2@0@Z 0000000180080ce8     node:node.exe
 0003:00000cf0       __imp_?NewInstance@Function@v8@@QEBA?AV?$MaybeLocal@VObject@v8@@@2@V?$Local@VContext@v8@@@2@HQEAV?$Local@VValue@v8@@@2@@Z 0000000180080cf0     node:node.exe
 0003:00000cf8       __imp_?SetInternalFieldCount@ObjectTemplate@v8@@QEAAXH@Z 0000000180080cf8     node:node.exe
 0003:00000d00       __imp_?NewInstance@ObjectTemplate@v8@@QEAA?AV?$MaybeLocal@VObject@v8@@@2@V?$Local@VContext@v8@@@2@@Z 0000000180080d00     node:node.exe
 0003:00000d08       __imp_?New@ObjectTemplate@v8@@SA?AV?$Local@VObjectTemplate@v8@@@2@PEAVIsolate@2@V?$Local@VFunctionTemplate@v8@@@2@@Z 0000000180080d08     node:node.exe
 0003:00000d10       __imp_?EmitAsyncDestroy@node@@YAXPEAVIsolate@v8@@Uasync_context@1@@Z 0000000180080d10     node:node.exe
 0003:00000d18       __imp_?HasInstance@Buffer@node@@YA_NV?$Local@VValue@v8@@@v8@@@Z 0000000180080d18     node:node.exe
 0003:00000d20       __imp_?HasInstance@Buffer@node@@YA_NV?$Local@VObject@v8@@@v8@@@Z 0000000180080d20     node:node.exe
 0003:00000d28       __imp_?Data@Buffer@node@@YAPEADV?$Local@VObject@v8@@@v8@@@Z 0000000180080d28     node:node.exe
 0003:00000d30       __imp_?Length@Buffer@node@@YA_KV?$Local@VObject@v8@@@v8@@@Z 0000000180080d30     node:node.exe
 0003:00000d38       __imp_?MakeCallback@node@@YA?AV?$MaybeLocal@VValue@v8@@@v8@@PEAVIsolate@3@V?$Local@VObject@v8@@@3@V?$Local@VFunction@v8@@@3@HPEAV?$Local@VValue@v8@@@3@Uasync_context@1@@Z 0000000180080d38     node:node.exe
 0003:00000d40       __imp_?EmitAsyncInit@node@@YA?AUasync_context@1@PEAVIsolate@v8@@V?$Local@VObject@v8@@@4@V?$Local@VString@v8@@@4@N@Z 0000000180080d40     node:node.exe
 0003:00000d48       __imp_uv_default_loop      0000000180080d48     node:node.exe
 0003:00000d50       __imp_?ToObject@Value@v8@@QEBA?AV?$Local@VObject@v8@@@2@XZ 0000000180080d50     node:node.exe
 0003:00000d58       __imp_?ToString@Value@v8@@QEBA?AV?$Local@VString@v8@@@2@XZ 0000000180080d58     node:node.exe
 0003:00000d60       __imp_??1EscapableHandleScope@v8@@QEAA@XZ 0000000180080d60     node:node.exe
 0003:00000d68       __imp_?Length@Array@v8@@QEBAIXZ 0000000180080d68     node:node.exe
 0003:00000d70       __imp_?StrictEquals@Value@v8@@QEBA_NV?$Local@VValue@v8@@@2@@Z 0000000180080d70     node:node.exe
 0003:00000d78       __imp_?Uint32Value@Value@v8@@QEBAIXZ 0000000180080d78     node:node.exe
 0003:00000d80       __imp_?IsNumber@Value@v8@@QEBA_NXZ 0000000180080d80     node:node.exe
 0003:00000d88       __imp_?IsArray@Value@v8@@QEBA_NXZ 0000000180080d88     node:node.exe
 0003:00000d90       __imp_?IsFunction@Value@v8@@QEBA_NXZ 0000000180080d90     node:node.exe
 0003:00000d98       __imp_?HasCaught@TryCatch@v8@@QEBA_NXZ 0000000180080d98     node:node.exe
 0003:00000da0       __imp_??1TryCatch@v8@@QEAA@XZ 0000000180080da0     node:node.exe
 0003:00000da8       __imp_??0TryCatch@v8@@QEAA@PEAVIsolate@1@@Z 0000000180080da8     node:node.exe
 0003:00000db0       __imp_?Length@String@v8@@QEBAHXZ 0000000180080db0     node:node.exe
 0003:00000db8       __imp_?New@Number@v8@@SA?AV?$Local@VNumber@v8@@@2@PEAVIsolate@2@N@Z 0000000180080db8     node:node.exe
 0003:00000dc0       __imp_?Get@Object@v8@@QEAA?AV?$Local@VValue@v8@@@2@I@Z 0000000180080dc0     node:node.exe
 0003:00000dc8       __imp_?Copy@Buffer@node@@YA?AV?$MaybeLocal@VObject@v8@@@v8@@PEAVIsolate@4@PEBD_K@Z 0000000180080dc8     node:node.exe
 0003:00000dd0       __imp_?Value@Integer@v8@@QEBA_JXZ 0000000180080dd0     node:node.exe
 0003:00000dd8       __imp_?Int32Value@Value@v8@@QEBAHXZ 0000000180080dd8     node:node.exe
 0003:00000de0       __imp_?New@Integer@v8@@SA?AV?$Local@VInteger@v8@@@2@PEAVIsolate@2@H@Z 0000000180080de0     node:node.exe
 0003:00000de8       __imp_?New@Array@v8@@SA?AV?$Local@VArray@v8@@@2@PEAVIsolate@2@H@Z 0000000180080de8     node:node.exe
 0003:00000df0       __imp_?ToInteger@Value@v8@@QEBA?AV?$MaybeLocal@VInteger@v8@@@2@V?$Local@VContext@v8@@@2@@Z 0000000180080df0     node:node.exe
 0003:00000df8       __imp_node_module_register 0000000180080df8     node:node.exe
 0003:00000e00       __imp_uv_cond_signal       0000000180080e00     node:node.exe
 0003:00000e08       __imp_uv_cond_destroy      0000000180080e08     node:node.exe
 0003:00000e10       __imp_uv_mutex_unlock      0000000180080e10     node:node.exe
 0003:00000e18       __imp_uv_cond_init         0000000180080e18     node:node.exe
 0003:00000e20       __imp_uv_once              0000000180080e20     node:node.exe
 0003:00000e28       __imp_uv_mutex_lock        0000000180080e28     node:node.exe
 0003:00000e30       __imp_uv_cond_wait         0000000180080e30     node:node.exe
 0003:00000e38       __imp_uv_mutex_destroy     0000000180080e38     node:node.exe
 0003:00000e40       __imp_uv_mutex_init        0000000180080e40     node:node.exe
 0003:00000e48       \177node_NULL_THUNK_DATA_DLA 0000000180080e48     node:node.exe
 0003:00000e50       __hmod__node_exe           0000000180080e50     node:node.exe
 0003:00000e58       __scrt_current_native_startup_state 0000000180080e58     LIBCMT:utility.obj
 0003:00000e60       __scrt_native_startup_lock 0000000180080e60     LIBCMT:utility.obj
 0003:00001460       __favor                    0000000180081460     LIBCMT:cpu_disp.obj
 0003:00001464       __scrt_debugger_hook_flag  0000000180081464     LIBCMT:utility_desktop.obj
 0003:00001470       ?__type_info_root_node@@3U__type_info_node@@A 0000000180081470     LIBCMT:tncleanup.obj
 0003:00001480       ?_OptionsStorage@?1??__local_stdio_scanf_options@@9@4_KA 0000000180081480     LIBCMT:default_local_stdio_options.obj
 0003:00001488       _tls_index                 0000000180081488     LIBCMT:tlssup.obj
 0003:00001490       ?__WinRTOutOfMemoryExceptionCallback@@3P6APEAXXZEA 0000000180081490     libvcruntime:ehhelpers.obj
 0003:00001530       __pPurecall                0000000180081530     libvcruntime:purevirt_data.obj
 0003:000015a8       ?pArgList@UnDecorator@@0PEAVReplicator@@EA 00000001800815a8     libvcruntime:undname.obj
 0003:000015b0       ?pZNameList@UnDecorator@@0PEAVReplicator@@EA 00000001800815b0     libvcruntime:undname.obj
 0003:000015b8       ?pTemplateArgList@UnDecorator@@0PEAVReplicator@@EA 00000001800815b8     libvcruntime:undname.obj
 0003:000015c0       ?gName@UnDecorator@@0PEBDEB 00000001800815c0     libvcruntime:undname.obj
 0003:000015c8       ?name@UnDecorator@@0PEBDEB 00000001800815c8     libvcruntime:undname.obj
 0003:000015d0       ?disableFlags@UnDecorator@@0KA 00000001800815d0     libvcruntime:undname.obj
 0003:000015d4       ?fExplicitTemplateParams@UnDecorator@@0_NA 00000001800815d4     libvcruntime:undname.obj
 0003:000015d5       ?fGetTemplateArgumentList@UnDecorator@@0_NA 00000001800815d5     libvcruntime:undname.obj
 0003:000015d8       ?m_pGetParameter@UnDecorator@@0P6APEADJ@ZEA 00000001800815d8     libvcruntime:undname.obj
 0003:000015e0       ?m_CHPENameOffset@UnDecorator@@0KA 00000001800815e0     libvcruntime:undname.obj
 0003:000015e4       ?m_recursionLevel@UnDecorator@@0KA 00000001800815e4     libvcruntime:undname.obj
 0003:00001618       _nstream                   0000000180081618     libucrt:_file.obj
 0003:00001620       __piob                     0000000180081620     libucrt:_file.obj
 0003:00001628       _cflush                    0000000180081628     libucrt:_file.obj
 0003:00001648       ?c_exit_complete@?1???R<lambda_6e4b09c48022b2350581041d5f6b0c4c>@@QEBA@XZ@4_NA 0000000180081648     libucrt:exit.obj
 0003:00001758       _environ_table             0000000180081758     libucrt:environment_initialization.obj
 0003:00001760       _wenviron_table            0000000180081760     libucrt:environment_initialization.obj
 0003:00001768       __dcrt_initial_wide_environment 0000000180081768     libucrt:environment_initialization.obj
 0003:00001770       __dcrt_initial_narrow_environment 0000000180081770     libucrt:environment_initialization.obj
 0003:00001778       __acrt_atexit_table        0000000180081778     libucrt:onexit.obj
 0003:00001790       __acrt_at_quick_exit_table 0000000180081790     libucrt:onexit.obj
 0003:000017d0       __acrt_locale_changed_data 00000001800817d0     libucrt:wsetlocale.obj
 0003:000017d8       __acrt_current_locale_data 00000001800817d8     libucrt:nlsdata.obj
 0003:000017f0       __acrt_stdout_buffer       00000001800817f0     libucrt:_sftbuf.obj
 0003:000017f8       __acrt_stderr_buffer       00000001800817f8     libucrt:_sftbuf.obj
 0003:00001800       __pioinfo                  0000000180081800     libucrt:ioinit.obj
 0003:00001c00       _nhandle                   0000000180081c00     libucrt:ioinit.obj
 0003:00002008       _mbctype                   0000000180082008     libucrt:mbctype.obj
 0003:00002010       _mbcasemap                 0000000180082010     libucrt:mbctype.obj
 0003:00002018       __acrt_current_multibyte_data 0000000180082018     libucrt:mbctype.obj
 0003:00002028       _pgmptr                    0000000180082028     libucrt:argv_data.obj
 0003:00002030       __argc                     0000000180082030     libucrt:argv_data.obj
 0003:00002038       __argv                     0000000180082038     libucrt:argv_data.obj
 0003:00002040       __wargv                    0000000180082040     libucrt:argv_data.obj
 0003:00002048       _acmdln                    0000000180082048     libucrt:argv_data.obj
 0003:00002050       _wcmdln                    0000000180082050     libucrt:argv_data.obj
 0003:00002058       __acrt_heap                0000000180082058     libucrt:heap_handle.obj
 0003:0000206c       __acrt_lconv_static_null   000000018008206c     libucrt:localeconv.obj
 0003:00002070       __acrt_lconv_static_W_null 0000000180082070     libucrt:localeconv.obj
 0003:00002074       _commode                   0000000180082074     libucrt:ncommode.obj
 0003:00002080       _umaskval                  0000000180082080     libucrt:umask.obj
 0003:00002084       __fma3_is_available        0000000180082084     libucrt:fma3_available.obj
 0003:00002088       __use_fma3_lib             0000000180082088     libucrt:fma3_available.obj
 0003:0000208c       _fmode                     000000018008208c     libucrt:txtmode.obj
 0003:00002090       ?DloadKernel32@@3PEAUHINSTANCE__@@EA 0000000180082090     DelayImp:delayhlp.obj
 0003:00002098       ?DloadAcquireSRWLockExclusive@@3P6AXPEA_K@ZEA 0000000180082098     DelayImp:delayhlp.obj
 0003:000020a0       ?DloadReleaseSRWLockExclusive@@3P6AXPEA_K@ZEA 00000001800820a0     DelayImp:delayhlp.obj
 0003:000020a8       ?DloadSrwLock@@3_KA        00000001800820a8     DelayImp:delayhlp.obj
 0003:000020b0       ?DloadSectionLockCount@@3KA 00000001800820b0     DelayImp:delayhlp.obj
 0003:000020b4       ?DloadSectionOldProtection@@3KA 00000001800820b4     DelayImp:delayhlp.obj
 0003:000020b8       ?DloadSectionCommitPermanent@@3KA 00000001800820b8     DelayImp:delayhlp.obj
 0003:000020c0       ?_OptionsStorage@?1??__local_stdio_printf_options@@9@4_KA 00000001800820c0     leveldb:status.obj
 0003:00002130       __dyn_tls_init_callback    0000000180082130     <common>
 0003:00002138       __scrt_ucrt_dll_is_in_use  0000000180082138     <common>

 entry point at        0001:00039464

 Static symbols

 0000:fff76000       .debug$S                   0000000180000000     kernel32:KERNEL32.dll
 0000:fff76000       .debug$S                   0000000180000000     node:node.exe
 0000:fff76000       .debug$S                   0000000180000000     node:node.exe
 0000:fff76000       .debug$S                   0000000180000000     node:node.exe
 0000:fff76000       .debug$S                   0000000180000000     node:node.exe
 0000:fff76000       .debug$S                   0000000180000000     node:node.exe
 0000:fff76000       .debug$S                   0000000180000000     node:node.exe
 0000:fff76000       .debug$S                   0000000180000000     node:node.exe
 0000:fff76000       .debug$S                   0000000180000000     node:node.exe
 0000:fff76000       .debug$S                   0000000180000000     node:node.exe
 0000:fff76000       .debug$S                   0000000180000000     node:node.exe
 0000:fff76000       .debug$S                   0000000180000000     node:node.exe
 0000:fff76000       .debug$S                   0000000180000000     node:node.exe
 0000:fff76000       .debug$S                   0000000180000000     node:node.exe
 0000:fff76000       .debug$S                   0000000180000000     node:node.exe
 0000:fff76000       .debug$S                   0000000180000000     node:node.exe
 0000:fff76000       .debug$S                   0000000180000000     node:node.exe
 0000:fff76000       .debug$S                   0000000180000000     node:node.exe
 0000:fff76000       .debug$S                   0000000180000000     node:node.exe
 0000:fff76000       .debug$S                   0000000180000000     node:node.exe
 0000:fff76000       .debug$S                   0000000180000000     node:node.exe
 0000:fff76000       .debug$S                   0000000180000000     node:node.exe
 0000:fff76000       .debug$S                   0000000180000000     node:node.exe
 0000:fff76000       .debug$S                   0000000180000000     node:node.exe
 0000:fff76000       .debug$S                   0000000180000000     node:node.exe
 0000:fff76000       .debug$S                   0000000180000000     node:node.exe
 0000:fff76000       .debug$S                   0000000180000000     node:node.exe
 0000:fff76000       .debug$S                   0000000180000000     node:node.exe
 0000:fff76000       .debug$S                   0000000180000000     node:node.exe
 0000:fff76000       .debug$S                   0000000180000000     node:node.exe
 0000:fff76000       .debug$S                   0000000180000000     node:node.exe
 0000:fff76000       .debug$S                   0000000180000000     node:node.exe
 0000:fff76000       .debug$S                   0000000180000000     node:node.exe
 0000:fff76000       .debug$S                   0000000180000000     node:node.exe
 0000:fff76000       .debug$S                   0000000180000000     node:node.exe
 0000:fff76000       .debug$S                   0000000180000000     node:node.exe
 0000:fff76000       .debug$S                   0000000180000000     node:node.exe
 0000:fff76000       .debug$S                   0000000180000000     node:node.exe
 0000:fff76000       .debug$S                   0000000180000000     node:node.exe
 0000:fff76000       .debug$S                   0000000180000000     node:node.exe
 0000:fff76000       .debug$S                   0000000180000000     node:node.exe
 0000:fff76000       .debug$S                   0000000180000000     node:node.exe
 0000:fff76000       .debug$S                   0000000180000000     node:node.exe
 0000:fff76000       .debug$S                   0000000180000000     node:node.exe
 0000:fff76000       .debug$S                   0000000180000000     node:node.exe
 0000:fff76000       .debug$S                   0000000180000000     node:node.exe
 0000:fff76000       .debug$S                   0000000180000000     node:node.exe
 0000:fff76000       .debug$S                   0000000180000000     node:node.exe
 0000:fff76000       .debug$S                   0000000180000000     node:node.exe
 0000:fff76000       .debug$S                   0000000180000000     node:node.exe
 0000:fff76000       .debug$S                   0000000180000000     node:node.exe
 0000:fff76000       .debug$S                   0000000180000000     node:node.exe
 0000:fff76000       .debug$S                   0000000180000000     node:node.exe
 0000:fff76000       .debug$S                   0000000180000000     node:node.exe
 0000:fff76000       .debug$S                   0000000180000000     node:node.exe
 0000:fff76000       .debug$S                   0000000180000000     node:node.exe
 0000:fff76000       .debug$S                   0000000180000000     node:node.exe
 0000:fff76000       .debug$S                   0000000180000000     node:node.exe
 0000:fff76000       .debug$S                   0000000180000000     node:node.exe
 0000:fff76000       .debug$S                   0000000180000000     node:node.exe
 0000:fff76000       .debug$S                   0000000180000000     node:node.exe
 0000:fff76000       .debug$S                   0000000180000000     node:node.exe
 0000:fff76000       .debug$S                   0000000180000000     node:node.exe
 0000:fff76000       .debug$S                   0000000180000000     node:node.exe
 0000:fff76000       .debug$S                   0000000180000000     node:node.exe
 0000:fff76000       .debug$S                   0000000180000000     node:node.exe
 0000:fff76000       .debug$S                   0000000180000000     node:node.exe
 0000:fff76000       .debug$S                   0000000180000000     node:node.exe
 0000:fff76000       .debug$S                   0000000180000000     node:node.exe
 0000:fff76000       .debug$S                   0000000180000000     node:node.exe
 0000:fff76000       .debug$S                   0000000180000000     node:node.exe
 0000:fff76000       .debug$S                   0000000180000000     node:node.exe
 0000:fff76000       .debug$S                   0000000180000000     node:node.exe
 0000:fff76000       .debug$S                   0000000180000000     node:node.exe
 0000:fff76000       .debug$S                   0000000180000000     node:node.exe
 0000:fff76000       .debug$S                   0000000180000000     node:node.exe
 0000:fff76000       .debug$S                   0000000180000000     node:node.exe
 0000:fff76000       .debug$S                   0000000180000000     node:node.exe
 0000:fff76000       .debug$S                   0000000180000000     node:node.exe
 0000:fff76000       .debug$S                   0000000180000000     node:node.exe
 0000:fff76000       .debug$S                   0000000180000000     node:node.exe
 0000:fff76000       .debug$S                   0000000180000000     node:node.exe
 0000:fff76000       .debug$S                   0000000180000000     node:node.exe
 0000:fff76000       .debug$S                   0000000180000000     node:node.exe
 0000:fff76000       .debug$S                   0000000180000000     node:node.exe
 0000:fff76000       .debug$S                   0000000180000000     node:node.exe
 0000:fff76000       .debug$S                   0000000180000000     kernel32:KERNEL32.dll
 0000:fff76000       .debug$S                   0000000180000000     kernel32:KERNEL32.dll
 0000:fff76000       .debug$S                   0000000180000000     kernel32:KERNEL32.dll
 0000:fff76000       .debug$S                   0000000180000000     node:node.exe
 0000:fff76000       .debug$S                   0000000180000000     node:node.exe
 0000:fff76000       .debug$S                   0000000180000000     node:node.exe
 0000:fff76000       .debug$S                   0000000180000000     node:node.exe
 0000:fff76000       .debug$S                   0000000180000000     node:node.exe
 0000:fff76000       .debug$S                   0000000180000000     node:node.exe
 0000:fff76000       .debug$S                   0000000180000000     node:node.exe
 0000:fff76000       .debug$S                   0000000180000000     node:node.exe
 0000:fff76000       .debug$S                   0000000180000000     node:node.exe
 0000:fff76000       .debug$S                   0000000180000000     node:node.exe
 0000:fff76000       .debug$S                   0000000180000000     node:node.exe
 0000:fff76000       .debug$S                   0000000180000000     node:node.exe
 0000:fff76000       .debug$S                   0000000180000000     node:node.exe
 0000:fff76000       .debug$S                   0000000180000000     kernel32:KERNEL32.dll
 0000:fff76000       .debug$S                   0000000180000000     kernel32:KERNEL32.dll
 0000:fff76000       .debug$S                   0000000180000000     kernel32:KERNEL32.dll
 0000:fff76000       .debug$S                   0000000180000000     kernel32:KERNEL32.dll
 0000:fff76000       .debug$S                   0000000180000000     kernel32:KERNEL32.dll
 0000:fff76000       .debug$S                   0000000180000000     kernel32:KERNEL32.dll
 0000:fff76000       .debug$S                   0000000180000000     kernel32:KERNEL32.dll
 0000:fff76000       .debug$S                   0000000180000000     kernel32:KERNEL32.dll
 0000:fff76000       .debug$S                   0000000180000000     kernel32:KERNEL32.dll
 0000:fff76000       .debug$S                   0000000180000000     kernel32:KERNEL32.dll
 0000:fff76000       .debug$S                   0000000180000000     kernel32:KERNEL32.dll
 0000:fff76000       .debug$S                   0000000180000000     kernel32:KERNEL32.dll
 0000:fff76000       .debug$S                   0000000180000000     kernel32:KERNEL32.dll
 0000:fff76000       .debug$S                   0000000180000000     kernel32:KERNEL32.dll
 0000:fff76000       .debug$S                   0000000180000000     kernel32:KERNEL32.dll
 0000:fff76000       .debug$S                   0000000180000000     kernel32:KERNEL32.dll
 0000:fff76000       .debug$S                   0000000180000000     kernel32:KERNEL32.dll
 0000:fff76000       .debug$S                   0000000180000000     kernel32:KERNEL32.dll
 0000:fff76000       .debug$S                   0000000180000000     kernel32:KERNEL32.dll
 0000:fff76000       .debug$S                   0000000180000000     kernel32:KERNEL32.dll
 0000:fff76000       .debug$S                   0000000180000000     kernel32:KERNEL32.dll
 0000:fff76000       .debug$S                   0000000180000000     kernel32:KERNEL32.dll
 0000:fff76000       .debug$S                   0000000180000000     kernel32:KERNEL32.dll
 0000:fff76000       .debug$S                   0000000180000000     kernel32:KERNEL32.dll
 0000:fff76000       .debug$S                   0000000180000000     kernel32:KERNEL32.dll
 0000:fff76000       .debug$S                   0000000180000000     kernel32:KERNEL32.dll
 0000:fff76000       .debug$S                   0000000180000000     kernel32:KERNEL32.dll
 0000:fff76000       .debug$S                   0000000180000000     kernel32:KERNEL32.dll
 0000:fff76000       .debug$S                   0000000180000000     kernel32:KERNEL32.dll
 0000:fff76000       .debug$S                   0000000180000000     kernel32:KERNEL32.dll
 0000:fff76000       .debug$S                   0000000180000000     kernel32:KERNEL32.dll
 0000:fff76000       .debug$S                   0000000180000000     kernel32:KERNEL32.dll
 0000:fff76000       .debug$S                   0000000180000000     kernel32:KERNEL32.dll
 0000:fff76000       .debug$S                   0000000180000000     kernel32:KERNEL32.dll
 0000:fff76000       .debug$S                   0000000180000000     kernel32:KERNEL32.dll
 0000:fff76000       .debug$S                   0000000180000000     kernel32:KERNEL32.dll
 0000:fff76000       .debug$S                   0000000180000000     kernel32:KERNEL32.dll
 0000:fff76000       .debug$S                   0000000180000000     kernel32:KERNEL32.dll
 0000:fff76000       .debug$S                   0000000180000000     kernel32:KERNEL32.dll
 0000:fff76000       .debug$S                   0000000180000000     kernel32:KERNEL32.dll
 0000:fff76000       .debug$S                   0000000180000000     kernel32:KERNEL32.dll
 0000:fff76000       .debug$S                   0000000180000000     kernel32:KERNEL32.dll
 0000:fff76000       .debug$S                   0000000180000000     kernel32:KERNEL32.dll
 0000:fff76000       .debug$S                   0000000180000000     kernel32:KERNEL32.dll
 0000:fff76000       .debug$S                   0000000180000000     kernel32:KERNEL32.dll
 0000:fff76000       .debug$S                   0000000180000000     kernel32:KERNEL32.dll
 0000:fff76000       .debug$S                   0000000180000000     kernel32:KERNEL32.dll
 0000:fff76000       .debug$S                   0000000180000000     kernel32:KERNEL32.dll
 0000:fff76000       .debug$S                   0000000180000000     kernel32:KERNEL32.dll
 0000:fff76000       .debug$S                   0000000180000000     kernel32:KERNEL32.dll
 0000:fff76000       .debug$S                   0000000180000000     kernel32:KERNEL32.dll
 0000:fff76000       .debug$S                   0000000180000000     kernel32:KERNEL32.dll
 0000:fff76000       .debug$S                   0000000180000000     kernel32:KERNEL32.dll
 0000:fff76000       .debug$S                   0000000180000000     kernel32:KERNEL32.dll
 0000:fff76000       .debug$S                   0000000180000000     kernel32:KERNEL32.dll
 0000:fff76000       .debug$S                   0000000180000000     kernel32:KERNEL32.dll
 0000:fff76000       .debug$S                   0000000180000000     kernel32:KERNEL32.dll
 0000:fff76000       .debug$S                   0000000180000000     kernel32:KERNEL32.dll
 0000:fff76000       .debug$S                   0000000180000000     kernel32:KERNEL32.dll
 0000:fff76000       .debug$S                   0000000180000000     kernel32:KERNEL32.dll
 0000:fff76000       .debug$S                   0000000180000000     kernel32:KERNEL32.dll
 0000:fff76000       .debug$S                   0000000180000000     kernel32:KERNEL32.dll
 0000:fff76000       .debug$S                   0000000180000000     kernel32:KERNEL32.dll
 0000:fff76000       .debug$S                   0000000180000000     kernel32:KERNEL32.dll
 0000:fff76000       .debug$S                   0000000180000000     kernel32:KERNEL32.dll
 0000:fff76000       .debug$S                   0000000180000000     kernel32:KERNEL32.dll
 0000:fff76000       .debug$S                   0000000180000000     kernel32:KERNEL32.dll
 0000:fff76000       .debug$S                   0000000180000000     kernel32:KERNEL32.dll
 0000:fff76000       .debug$S                   0000000180000000     kernel32:KERNEL32.dll
 0000:fff76000       .debug$S                   0000000180000000     kernel32:KERNEL32.dll
 0000:fff76000       .debug$S                   0000000180000000     kernel32:KERNEL32.dll
 0000:fff76000       .debug$S                   0000000180000000     kernel32:KERNEL32.dll
 0000:fff76000       .debug$S                   0000000180000000     kernel32:KERNEL32.dll
 0000:fff76000       .debug$S                   0000000180000000     kernel32:KERNEL32.dll
 0000:fff76000       .debug$S                   0000000180000000     kernel32:KERNEL32.dll
 0000:fff76000       .debug$S                   0000000180000000     kernel32:KERNEL32.dll
 0000:fff76000       .debug$S                   0000000180000000     kernel32:KERNEL32.dll
 0000:fff76000       .debug$S                   0000000180000000     kernel32:KERNEL32.dll
 0000:fff76000       .debug$S                   0000000180000000     node:node.exe
 0000:fff76000       .debug$S                   0000000180000000     kernel32:KERNEL32.dll
 0000:fff76000       .debug$S                   0000000180000000     kernel32:KERNEL32.dll
 0000:fff76000       .debug$S                   0000000180000000     kernel32:KERNEL32.dll
 0000:fff76000       .debug$S                   0000000180000000     kernel32:KERNEL32.dll
 0000:fff76000       .debug$S                   0000000180000000     kernel32:KERNEL32.dll
 0000:fff76000       .debug$S                   0000000180000000     kernel32:KERNEL32.dll
 0000:fff76000       .debug$S                   0000000180000000     kernel32:KERNEL32.dll
 0000:fff76000       .debug$S                   0000000180000000     kernel32:KERNEL32.dll
 0000:fff76000       .debug$S                   0000000180000000     kernel32:KERNEL32.dll
 0000:fff76000       .debug$S                   0000000180000000     kernel32:KERNEL32.dll
 0000:fff76000       .debug$S                   0000000180000000     kernel32:KERNEL32.dll
 0000:fff76000       .debug$S                   0000000180000000     kernel32:KERNEL32.dll
 0000:fff76000       .debug$S                   0000000180000000     kernel32:KERNEL32.dll
 0000:fff76000       .debug$S                   0000000180000000     kernel32:KERNEL32.dll
 0000:fff76000       .debug$S                   0000000180000000     kernel32:KERNEL32.dll
 0000:fff76000       .debug$S                   0000000180000000     kernel32:KERNEL32.dll
 0000:fff76000       .debug$S                   0000000180000000     kernel32:KERNEL32.dll
 0000:fff76000       .debug$S                   0000000180000000     kernel32:KERNEL32.dll
 0000:fff76000       .debug$S                   0000000180000000     kernel32:KERNEL32.dll
 0000:fff76000       .debug$S                   0000000180000000     kernel32:KERNEL32.dll
 0000:fff76000       .debug$S                   0000000180000000     kernel32:KERNEL32.dll
 0000:fff76000       .debug$S                   0000000180000000     kernel32:KERNEL32.dll
 0000:fff76000       .debug$S                   0000000180000000     kernel32:KERNEL32.dll
 0000:fff76000       .debug$S                   0000000180000000     kernel32:KERNEL32.dll
 0000:fff76000       .debug$S                   0000000180000000     kernel32:KERNEL32.dll
 0000:fff76000       .debug$S                   0000000180000000     kernel32:KERNEL32.dll
 0000:fff76000       .debug$S                   0000000180000000     kernel32:KERNEL32.dll
 0000:fff76000       .debug$S                   0000000180000000     kernel32:KERNEL32.dll
 0000:fff76000       .debug$S                   0000000180000000     leveldown.exp
 0001:00000000       ??__Ebatch_constructor@leveldown@@YAXXZ 0000000180001000 f   batch.obj
 0001:00000020       ??__Edatabase_constructor@leveldown@@YAXXZ 0000000180001020 f   database.obj
 0001:00000040       ??__Eiterator_constructor@leveldown@@YAXXZ 0000000180001040 f   iterator.obj
 0001:00000060       ??__Edefault_env_mutex@leveldb@@YAXXZ 0000000180001060 f   leveldb:env_win.obj
 0001:00000090       ?FunctionCallbackWrapper@imp@Nan@@YAXAEBV?$FunctionCallbackInfo@VValue@v8@@@v8@@@Z 0000000180001090 f   batch.obj
 0001:00002ea0       ?Seek@EmptyIterator@?A0x9acabe59@leveldb@@UEAAXAEBVSlice@3@@Z 0000000180003ea0 f   leveldb:iterator.obj
 0001:00002ea0       ?SeekToLast@EmptyIterator@?A0x9acabe59@leveldb@@UEAAXXZ 0000000180003ea0 f   leveldb:iterator.obj
 0001:00002ea0       ?SeekToFirst@EmptyIterator@?A0x9acabe59@leveldb@@UEAAXXZ 0000000180003ea0 f   leveldb:iterator.obj
 0001:00007ed0       ?StringOrBufferLength@@YA_KV?$Local@VValue@v8@@@v8@@@Z 0000000180008ed0 f   iterator.obj
 0001:0000c5b0       _register_leveldown        000000018000d5b0 f   leveldown.obj
 0001:0000c960       ?load_exe_hook@@YAP6A_JXZIPEAUDelayLoadInfo@@@Z 000000018000d960 f   win_delay_load_hook.obj
 0001:0000d030       ?Put@MemTableInserter@?A0xc69a136d@leveldb@@UEAAXAEBVSlice@3@0@Z 000000018000e030 f   leveldb:write_batch.obj
 0001:0000d060       ?Delete@MemTableInserter@?A0xc69a136d@leveldb@@UEAAXAEBVSlice@3@@Z 000000018000e060 f   leveldb:write_batch.obj
 0001:0000d140       ??1MemTableInserter@?A0xc69a136d@leveldb@@UEAA@XZ 000000018000e140 f   leveldb:write_batch.obj
 0001:0000d160       ??_GMemTableInserter@?A0xc69a136d@leveldb@@UEAAPEAXI@Z 000000018000e160 f   leveldb:write_batch.obj
 0001:0000da54       $LN191                     000000018000ea54     leveldb:status.obj
 0001:0000da70       ?Name@BloomFilterPolicy@?A0xa213ca84@leveldb@@UEBAPEBDXZ 000000018000ea70 f   leveldb:bloom.obj
 0001:0000da80       ?CreateFilter@BloomFilterPolicy@?A0xa213ca84@leveldb@@UEBAXPEBVSlice@3@HPEAV?$basic_string@DU?$char_traits@D@std@@V?$allocator@D@2@@std@@@Z 000000018000ea80 f   leveldb:bloom.obj
 0001:0000dbe0       ?KeyMayMatch@BloomFilterPolicy@?A0xa213ca84@leveldb@@UEBA_NAEBVSlice@3@0@Z 000000018000ebe0 f   leveldb:bloom.obj
 0001:0000dc90       ??_GBloomFilterPolicy@?A0xa213ca84@leveldb@@UEAAPEAXI@Z 000000018000ec90 f   leveldb:bloom.obj
 0001:0000feec       $LN972                     0000000180010eec     leveldb:db_impl.obj
 0001:00011520       ?Corruption@LogReporter@?1??RecoverLogFile@DBImpl@leveldb@@AEAA?AVStatus@4@_K_NPEA_NPEAVVersionEdit@4@PEA_K@Z@UEAAX0AEBV54@@Z 0000000180012520 f   leveldb:db_impl.obj
 0001:00014280       ?CleanupIteratorState@?A0xc2dedd75@leveldb@@YAXPEAX0@Z 0000000180015280 f   leveldb:db_impl.obj
 0001:00016df0       ??_GLogReporter@?1??RecoverLogFile@DBImpl@leveldb@@AEAA?AVStatus@3@_K_NPEA_NPEAVVersionEdit@3@PEA_K@Z@UEAAPEAXI@Z 0000000180017df0 f   leveldb:db_impl.obj
 0001:00016e30       ??1LogReporter@?1??RecoverLogFile@DBImpl@leveldb@@AEAA?AVStatus@3@_K_NPEA_NPEAVVersionEdit@3@PEA_K@Z@UEAA@XZ 0000000180017e30 f   leveldb:db_impl.obj
 0001:00016e30       ??1LogReporter@?1??Recover@VersionSet@leveldb@@QEAA?AVStatus@3@PEA_N@Z@UEAA@XZ 0000000180017e30 f   leveldb:version_set.obj
 0001:00016e30       ??1LogReporter@?1??ConvertLogToTable@Repairer@?A0x28ffdff6@leveldb@@AEAA?AVStatus@4@_K@Z@UEAA@XZ 0000000180017e30 f   leveldb:repair.obj
 0001:00019a90       ??1HandleTable@?A0xc4b8da1b@leveldb@@QEAA@XZ 000000018001aa90 f   leveldb:cache.obj
 0001:00019aa0       ?FindPointer@HandleTable@?A0xc4b8da1b@leveldb@@AEAAPEAPEAULRUHandle@23@AEBVSlice@3@I@Z 000000018001aaa0 f   leveldb:cache.obj
 0001:00019b40       ?Resize@HandleTable@?A0xc4b8da1b@leveldb@@AEAAXXZ 000000018001ab40 f   leveldb:cache.obj
 0001:00019c40       ??0LRUCache@?A0xc4b8da1b@leveldb@@QEAA@XZ 000000018001ac40 f   leveldb:cache.obj
 0001:00019cb0       ??1LRUCache@?A0xc4b8da1b@leveldb@@QEAA@XZ 000000018001acb0 f   leveldb:cache.obj
 0001:00019da0       ?Unref@LRUCache@?A0xc4b8da1b@leveldb@@AEAAXPEAULRUHandle@23@@Z 000000018001ada0 f   leveldb:cache.obj
 0001:00019ea0       ?Insert@LRUCache@?A0xc4b8da1b@leveldb@@QEAAPEAUHandle@Cache@3@AEBVSlice@3@IPEAX_KP6AX01@Z@Z 000000018001aea0 f   leveldb:cache.obj
 0001:0001a110       ?FinishErase@LRUCache@?A0xc4b8da1b@leveldb@@AEAA_NPEAULRUHandle@23@@Z 000000018001b110 f   leveldb:cache.obj
 0001:0001a190       ?Insert@ShardedLRUCache@?A0xc4b8da1b@leveldb@@UEAAPEAUHandle@Cache@3@AEBVSlice@3@PEAX_KP6AX01@Z@Z 000000018001b190 f   leveldb:cache.obj
 0001:0001a200       ?Lookup@ShardedLRUCache@?A0xc4b8da1b@leveldb@@UEAAPEAUHandle@Cache@3@AEBVSlice@3@@Z 000000018001b200 f   leveldb:cache.obj
 0001:0001a2f0       ?Release@ShardedLRUCache@?A0xc4b8da1b@leveldb@@UEAAXPEAUHandle@Cache@3@@Z 000000018001b2f0 f   leveldb:cache.obj
 0001:0001a360       ?Erase@ShardedLRUCache@?A0xc4b8da1b@leveldb@@UEAAXAEBVSlice@3@@Z 000000018001b360 f   leveldb:cache.obj
 0001:0001a410       ?Value@ShardedLRUCache@?A0xc4b8da1b@leveldb@@UEAAPEAXPEAUHandle@Cache@3@@Z 000000018001b410 f   leveldb:cache.obj
 0001:0001a420       ?NewId@ShardedLRUCache@?A0xc4b8da1b@leveldb@@UEAA_KXZ 000000018001b420 f   leveldb:cache.obj
 0001:0001a480       ?Prune@ShardedLRUCache@?A0xc4b8da1b@leveldb@@UEAAXXZ 000000018001b480 f   leveldb:cache.obj
 0001:0001a5f0       ?TotalCharge@ShardedLRUCache@?A0xc4b8da1b@leveldb@@UEBA_KXZ 000000018001b5f0 f   leveldb:cache.obj
 0001:0001a670       ??_GShardedLRUCache@?A0xc4b8da1b@leveldb@@UEAAPEAXI@Z 000000018001b670 f   leveldb:cache.obj
 0001:0001a960       ??1Repairer@?A0x28ffdff6@leveldb@@QEAA@XZ 000000018001b960 f   leveldb:repair.obj
 0001:0001ac60       ?FindFiles@Repairer@?A0x28ffdff6@leveldb@@AEAA?AVStatus@3@XZ 000000018001bc60 f   leveldb:repair.obj
 0001:0001afb0       ?ConvertLogFilesToTables@Repairer@?A0x28ffdff6@leveldb@@AEAAXXZ 000000018001bfb0 f   leveldb:repair.obj
 0001:0001b180       ?ConvertLogToTable@Repairer@?A0x28ffdff6@leveldb@@AEAA?AVStatus@3@_K@Z 000000018001c180 f   leveldb:repair.obj
 0001:0001ba40       ?Corruption@LogReporter@?1??ConvertLogToTable@Repairer@?A0x28ffdff6@leveldb@@AEAA?AVStatus@5@_K@Z@UEAAX0AEBV65@@Z 000000018001ca40 f   leveldb:repair.obj
 0001:0001bb10       ?ScanTable@Repairer@?A0x28ffdff6@leveldb@@AEAAX_K@Z 000000018001cb10 f   leveldb:repair.obj
 0001:0001c2a0       ?RepairTable@Repairer@?A0x28ffdff6@leveldb@@AEAAXAEBV?$basic_string@DU?$char_traits@D@std@@V?$allocator@D@2@@std@@UTableInfo@123@@Z 000000018001d2a0 f   leveldb:repair.obj
 0001:0001c790       ?WriteDescriptor@Repairer@?A0x28ffdff6@leveldb@@AEAA?AVStatus@3@XZ 000000018001d790 f   leveldb:repair.obj
 0001:0001cf70       ?ArchiveFile@Repairer@?A0x28ffdff6@leveldb@@AEAAXAEBV?$basic_string@DU?$char_traits@D@std@@V?$allocator@D@2@@std@@@Z 000000018001df70 f   leveldb:repair.obj
 0001:0001d2b0       ??_GLogReporter@?1??ConvertLogToTable@Repairer@?A0x28ffdff6@leveldb@@AEAA?AVStatus@4@_K@Z@UEAAPEAXI@Z 000000018001e2b0 f   leveldb:repair.obj
 0001:0001d2f0       ??1TableInfo@Repairer@?A0x28ffdff6@leveldb@@QEAA@XZ 000000018001e2f0 f   leveldb:repair.obj
 0001:0001d310       ??0TableInfo@Repairer@?A0x28ffdff6@leveldb@@QEAA@AEBU0123@@Z 000000018001e310 f   leveldb:repair.obj
 0001:0001d640       ??1?$vector@UTableInfo@Repairer@?A0x28ffdff6@leveldb@@V?$allocator@UTableInfo@Repairer@?A0x28ffdff6@leveldb@@@std@@@std@@QEAA@XZ 000000018001e640 f   leveldb:repair.obj
 0001:0001d710       ??$_Emplace_reallocate@AEBUTableInfo@Repairer@?A0x28ffdff6@leveldb@@@?$vector@UTableInfo@Repairer@?A0x28ffdff6@leveldb@@V?$allocator@UTableInfo@Repairer@?A0x28ffdff6@leveldb@@@std@@@std@@QEAAPEAUTableInfo@Repairer@?A0x28ffdff6@leveldb@@QEAU2345@AEBU2345@@Z 000000018001e710 f   leveldb:repair.obj
 0001:0001daf0       ?_Xlength@?$vector@UTableInfo@Repairer@?A0x28ffdff6@leveldb@@V?$allocator@UTableInfo@Repairer@?A0x28ffdff6@leveldb@@@std@@@std@@CAXXZ 000000018001eaf0 f   leveldb:repair.obj
 0001:0001db10       ??$_Uninitialized_move@PEAUTableInfo@Repairer@?A0x28ffdff6@leveldb@@PEAU1234@V?$allocator@UTableInfo@Repairer@?A0x28ffdff6@leveldb@@@std@@@std@@YAPEAUTableInfo@Repairer@?A0x28ffdff6@leveldb@@QEAU1234@0PEAU1234@AEAV?$allocator@UTableInfo@Repairer@?A0x28ffdff6@leveldb@@@0@@Z 000000018001eb10 f   leveldb:repair.obj
 0001:0001dc90       ??1?$_Uninitialized_backout_al@PEAUTableInfo@Repairer@?A0x28ffdff6@leveldb@@V?$allocator@UTableInfo@Repairer@?A0x28ffdff6@leveldb@@@std@@@std@@QEAA@XZ 000000018001ec90 f   leveldb:repair.obj
 0001:0001e010       ?GetLengthPrefixedSlice@leveldb@@YA?AVSlice@1@PEBD@Z 000000018001f010 f   leveldb:memtable.obj
 0001:0001fff0       ?MakeFileName@leveldb@@YA?AV?$basic_string@DU?$char_traits@D@std@@V?$allocator@D@2@@std@@AEBV23@_KPEBD@Z 0000000180020ff0 f   leveldb:filename.obj
 0001:00020d40       ?DoWriteStringToFile@leveldb@@YA?AVStatus@1@PEAVEnv@1@AEBVSlice@1@AEBV?$basic_string@DU?$char_traits@D@std@@V?$allocator@D@2@@std@@_N@Z 0000000180021d40 f   leveldb:env.obj
 0001:000213d0       ?Valid@MergingIterator@?A0x2d7520b1@leveldb@@UEBA_NXZ 00000001800223d0 f   leveldb:merger.obj
 0001:000213e0       ?SeekToFirst@MergingIterator@?A0x2d7520b1@leveldb@@UEAAXXZ 00000001800223e0 f   leveldb:merger.obj
 0001:00021490       ?SeekToLast@MergingIterator@?A0x2d7520b1@leveldb@@UEAAXXZ 0000000180022490 f   leveldb:merger.obj
 0001:00021540       ?Seek@MergingIterator@?A0x2d7520b1@leveldb@@UEAAXAEBVSlice@3@@Z 0000000180022540 f   leveldb:merger.obj
 0001:00021600       ?Next@MergingIterator@?A0x2d7520b1@leveldb@@UEAAXXZ 0000000180022600 f   leveldb:merger.obj
 0001:000217a0       ?Prev@MergingIterator@?A0x2d7520b1@leveldb@@UEAAXXZ 00000001800227a0 f   leveldb:merger.obj
 0001:000219a0       ?key@MergingIterator@?A0x2d7520b1@leveldb@@UEBA?AVSlice@3@XZ 00000001800229a0 f   leveldb:merger.obj
 0001:00021a10       ?value@MergingIterator@?A0x2d7520b1@leveldb@@UEBA?AVSlice@3@XZ 0000000180022a10 f   leveldb:merger.obj
 0001:00021a80       ?status@MergingIterator@?A0x2d7520b1@leveldb@@UEBA?AVStatus@3@XZ 0000000180022a80 f   leveldb:merger.obj
 0001:00021b90       ??_GMergingIterator@?A0x2d7520b1@leveldb@@UEAAPEAXI@Z 0000000180022b90 f   leveldb:merger.obj
 0001:00021c30       ?FindSmallest@MergingIterator@?A0x2d7520b1@leveldb@@AEAAXXZ 0000000180022c30 f   leveldb:merger.obj
 0001:00021d30       ?FindLargest@MergingIterator@?A0x2d7520b1@leveldb@@AEAAXXZ 0000000180022d30 f   leveldb:merger.obj
 0001:00022250       ?TotalFileSize@leveldb@@YA_JAEBV?$vector@PEAUFileMetaData@leveldb@@V?$allocator@PEAUFileMetaData@leveldb@@@std@@@std@@@Z 0000000180023250 f   leveldb:version_set.obj
 0001:00022550       ?BeforeFile@leveldb@@YA_NPEBVComparator@1@PEBVSlice@1@PEBUFileMetaData@1@@Z 0000000180023550 f   leveldb:version_set.obj
 0001:00022af0       ?GetFileIterator@leveldb@@YAPEAVIterator@1@PEAXAEBUReadOptions@1@AEBVSlice@1@@Z 0000000180023af0 f   leveldb:version_set.obj
 0001:00022ba0       ?SaveValue@leveldb@@YAXPEAXAEBVSlice@1@1@Z 0000000180023ba0 f   leveldb:version_set.obj
 0001:00022c50       ?NewestFirst@leveldb@@YA_NPEAUFileMetaData@1@0@Z 0000000180023c50 f   leveldb:version_set.obj
 0001:00026690       ?Corruption@LogReporter@?1??Recover@VersionSet@leveldb@@QEAA?AVStatus@4@PEA_N@Z@UEAAX_KAEBV54@@Z 0000000180027690 f   leveldb:version_set.obj
 0001:000266b0       ??_GLogReporter@?1??Recover@VersionSet@leveldb@@QEAA?AVStatus@3@PEA_N@Z@UEAAPEAXI@Z 00000001800276b0 f   leveldb:version_set.obj
 0001:0002aa90       ?DeleteEntry@leveldb@@YAXAEBVSlice@1@PEAX@Z 000000018002ba90 f   leveldb:table_cache.obj
 0001:0002ab70       ?UnrefEntry@leveldb@@YAXPEAX0@Z 000000018002bb70 f   leveldb:table_cache.obj
 0001:0002ab70       ?ReleaseBlock@leveldb@@YAXPEAX0@Z 000000018002bb70 f   leveldb:table.obj
 0001:0002c464       $LN942                     000000018002d464     leveldb:version_edit.obj
 0001:0002cabc       $LN346                     000000018002dabc     leveldb:log_reader.obj
 0001:0002d2a0       ?Valid@EmptyIterator@?A0x9acabe59@leveldb@@UEBA_NXZ 000000018002e2a0 f   leveldb:iterator.obj
 0001:0002d2b0       ?Next@EmptyIterator@?A0x9acabe59@leveldb@@UEAAXXZ 000000018002e2b0 f   leveldb:iterator.obj
 0001:0002d2d0       ?Prev@EmptyIterator@?A0x9acabe59@leveldb@@UEAAXXZ 000000018002e2d0 f   leveldb:iterator.obj
 0001:0002d2f0       ?key@EmptyIterator@?A0x9acabe59@leveldb@@UEBA?AVSlice@3@XZ 000000018002e2f0 f   leveldb:iterator.obj
 0001:0002d330       ?value@EmptyIterator@?A0x9acabe59@leveldb@@UEBA?AVSlice@3@XZ 000000018002e330 f   leveldb:iterator.obj
 0001:0002d370       ?status@EmptyIterator@?A0x9acabe59@leveldb@@UEBA?AVStatus@3@XZ 000000018002e370 f   leveldb:iterator.obj
 0001:0002d3b0       ??_GEmptyIterator@?A0x9acabe59@leveldb@@UEAAPEAXI@Z 000000018002e3b0 f   leveldb:iterator.obj
 0001:0002d520       ?Valid@DBIter@?A0xbc53bea3@leveldb@@UEBA_NXZ 000000018002e520 f   leveldb:db_iter.obj
 0001:0002d530       ?key@DBIter@?A0xbc53bea3@leveldb@@UEBA?AVSlice@3@XZ 000000018002e530 f   leveldb:db_iter.obj
 0001:0002d5f0       ?value@DBIter@?A0xbc53bea3@leveldb@@UEBA?AVSlice@3@XZ 000000018002e5f0 f   leveldb:db_iter.obj
 0001:0002d680       ?status@DBIter@?A0xbc53bea3@leveldb@@UEBA?AVStatus@3@XZ 000000018002e680 f   leveldb:db_iter.obj
 0001:0002d6e0       ?ClearSavedValue@DBIter@?A0xbc53bea3@leveldb@@AEAAXXZ 000000018002e6e0 f   leveldb:db_iter.obj
 0001:0002d7f0       ??_GDBIter@?A0xbc53bea3@leveldb@@UEAAPEAXI@Z 000000018002e7f0 f   leveldb:db_iter.obj
 0001:0002d920       ?ParseKey@DBIter@?A0xbc53bea3@leveldb@@AEAA_NPEAUParsedInternalKey@3@@Z 000000018002e920 f   leveldb:db_iter.obj
 0001:0002db70       ?Next@DBIter@?A0xbc53bea3@leveldb@@UEAAXXZ 000000018002eb70 f   leveldb:db_iter.obj
 0001:0002dc80       ?FindNextUserEntry@DBIter@?A0xbc53bea3@leveldb@@AEAAX_NPEAV?$basic_string@DU?$char_traits@D@std@@V?$allocator@D@2@@std@@@Z 000000018002ec80 f   leveldb:db_iter.obj
 0001:0002de00       ?Prev@DBIter@?A0xbc53bea3@leveldb@@UEAAXXZ 000000018002ee00 f   leveldb:db_iter.obj
 0001:0002dfc0       ?FindPrevUserEntry@DBIter@?A0xbc53bea3@leveldb@@AEAAXXZ 000000018002efc0 f   leveldb:db_iter.obj
 0001:0002e260       ?Seek@DBIter@?A0xbc53bea3@leveldb@@UEAAXAEBVSlice@3@@Z 000000018002f260 f   leveldb:db_iter.obj
 0001:0002e370       ?SeekToFirst@DBIter@?A0xbc53bea3@leveldb@@UEAAXXZ 000000018002f370 f   leveldb:db_iter.obj
 0001:0002e3c0       ?SeekToLast@DBIter@?A0xbc53bea3@leveldb@@UEAAXXZ 000000018002f3c0 f   leveldb:db_iter.obj
 0001:0002fe40       ?Name@BytewiseComparatorImpl@?A0x7e2d94b9@leveldb@@UEBAPEBDXZ 0000000180030e40 f   leveldb:comparator.obj
 0001:0002fe50       ?Compare@BytewiseComparatorImpl@?A0x7e2d94b9@leveldb@@UEBAHAEBVSlice@3@0@Z 0000000180030e50 f   leveldb:comparator.obj
 0001:0002feb0       ?FindShortestSeparator@BytewiseComparatorImpl@?A0x7e2d94b9@leveldb@@UEBAXPEAV?$basic_string@DU?$char_traits@D@std@@V?$allocator@D@2@@std@@AEBVSlice@3@@Z 0000000180030eb0 f   leveldb:comparator.obj
 0001:00030010       ?FindShortSuccessor@BytewiseComparatorImpl@?A0x7e2d94b9@leveldb@@UEBAXPEAV?$basic_string@DU?$char_traits@D@std@@V?$allocator@D@2@@std@@@Z 0000000180031010 f   leveldb:comparator.obj
 0001:00030070       ??_GBytewiseComparatorImpl@?A0x7e2d94b9@leveldb@@UEAAPEAXI@Z 0000000180031070 f   leveldb:comparator.obj
 0001:000300b0       ?InitModule@leveldb@@YAXXZ 00000001800310b0 f   leveldb:comparator.obj
 0001:00030150       ?IOError@leveldb@@YA?AVStatus@1@AEBV?$basic_string@DU?$char_traits@D@std@@V?$allocator@D@2@@std@@K@Z 0000000180031150 f   leveldb:env_win.obj
 0001:00030ac0       ?ToWcharFromCodePage@?A0x8d2858f1@leveldb@@YAPEA_WPEBDI@Z 0000000180031ac0 f   leveldb:env_win.obj
 0001:00030b50       ?ToUtf8@?A0x8d2858f1@leveldb@@YAPEADPEB_W@Z 0000000180031b50 f   leveldb:env_win.obj
 0001:00030be0       ??_GWinFileLock@?A0x8d2858f1@leveldb@@UEAAPEAXI@Z 0000000180031be0 f   leveldb:env_win.obj
 0001:00030ca0       ?NewSequentialFile@WinEnv@?A0x8d2858f1@leveldb@@UEAA?AVStatus@3@AEBV?$basic_string@DU?$char_traits@D@std@@V?$allocator@D@2@@std@@PEAPEAVSequentialFile@3@@Z 0000000180031ca0 f   leveldb:env_win.obj
 0001:00030e20       ?NewRandomAccessFile@WinEnv@?A0x8d2858f1@leveldb@@UEAA?AVStatus@3@AEBV?$basic_string@DU?$char_traits@D@std@@V?$allocator@D@2@@std@@PEAPEAVRandomAccessFile@3@@Z 0000000180031e20 f   leveldb:env_win.obj
 0001:00030fa0       ?NewWritableFile@WinEnv@?A0x8d2858f1@leveldb@@UEAA?AVStatus@3@AEBV?$basic_string@DU?$char_traits@D@std@@V?$allocator@D@2@@std@@PEAPEAVWritableFile@3@@Z 0000000180031fa0 f   leveldb:env_win.obj
 0001:00031190       ?FileExists@WinEnv@?A0x8d2858f1@leveldb@@UEAA_NAEBV?$basic_string@DU?$char_traits@D@std@@V?$allocator@D@2@@std@@@Z 0000000180032190 f   leveldb:env_win.obj
 0001:00031240       ?GetChildren@WinEnv@?A0x8d2858f1@leveldb@@UEAA?AVStatus@3@AEBV?$basic_string@DU?$char_traits@D@std@@V?$allocator@D@2@@std@@PEAV?$vector@V?$basic_string@DU?$char_traits@D@std@@V?$allocator@D@2@@std@@V?$allocator@V?$basic_string@DU?$char_traits@D@std@@V?$allocator@D@2@@std@@@2@@6@@Z 0000000180032240 f   leveldb:env_win.obj
 0001:00031640       ?DeleteFile@WinEnv@?A0x8d2858f1@leveldb@@UEAA?AVStatus@3@AEBV?$basic_string@DU?$char_traits@D@std@@V?$allocator@D@2@@std@@@Z 0000000180032640 f   leveldb:env_win.obj
 0001:00031860       ?CreateDirRecursive@WinEnv@?A0x8d2858f1@leveldb@@QEAA_NPEA_W@Z 0000000180032860 f   leveldb:env_win.obj
 0001:000319b0       ?CreateDir@WinEnv@?A0x8d2858f1@leveldb@@UEAA?AVStatus@3@AEBV?$basic_string@DU?$char_traits@D@std@@V?$allocator@D@2@@std@@@Z 00000001800329b0 f   leveldb:env_win.obj
 0001:00031ae0       ?DeleteDir@WinEnv@?A0x8d2858f1@leveldb@@UEAA?AVStatus@3@AEBV?$basic_string@DU?$char_traits@D@std@@V?$allocator@D@2@@std@@@Z 0000000180032ae0 f   leveldb:env_win.obj
 0001:00031c10       ?GetFileSize@WinEnv@?A0x8d2858f1@leveldb@@UEAA?AVStatus@3@AEBV?$basic_string@DU?$char_traits@D@std@@V?$allocator@D@2@@std@@PEA_K@Z 0000000180032c10 f   leveldb:env_win.obj
 0001:00031f20       ?RenameFile@WinEnv@?A0x8d2858f1@leveldb@@UEAA?AVStatus@3@AEBV?$basic_string@DU?$char_traits@D@std@@V?$allocator@D@2@@std@@0@Z 0000000180032f20 f   leveldb:env_win.obj
 0001:00032200       ?LockFile@WinEnv@?A0x8d2858f1@leveldb@@UEAA?AVStatus@3@AEBV?$basic_string@DU?$char_traits@D@std@@V?$allocator@D@2@@std@@PEAPEAVFileLock@3@@Z 0000000180033200 f   leveldb:env_win.obj
 0001:00032450       ?UnlockFile@WinEnv@?A0x8d2858f1@leveldb@@UEAA?AVStatus@3@PEAVFileLock@3@@Z 0000000180033450 f   leveldb:env_win.obj
 0001:000325b0       ?GetTestDirectory@WinEnv@?A0x8d2858f1@leveldb@@UEAA?AVStatus@3@PEAV?$basic_string@DU?$char_traits@D@std@@V?$allocator@D@2@@std@@@Z 00000001800335b0 f   leveldb:env_win.obj
 0001:000328d0       ?NewLogger@WinEnv@?A0x8d2858f1@leveldb@@UEAA?AVStatus@3@AEBV?$basic_string@DU?$char_traits@D@std@@V?$allocator@D@2@@std@@PEAPEAVLogger@3@@Z 00000001800338d0 f   leveldb:env_win.obj
 0001:000329f0       ?NowMicros@WinEnv@?A0x8d2858f1@leveldb@@UEAA_KXZ 00000001800339f0 f   leveldb:env_win.obj
 0001:00032a20       ?SleepForMicroseconds@WinEnv@?A0x8d2858f1@leveldb@@UEAAXH@Z 0000000180033a20 f   leveldb:env_win.obj
 0001:00032a40       ?BGThreadWrapper@WinEnv@?A0x8d2858f1@leveldb@@CAIPEAX@Z 0000000180033a40 f   leveldb:env_win.obj
 0001:00032a50       ??_GWinEnv@?A0x8d2858f1@leveldb@@UEAAPEAXI@Z 0000000180033a50 f   leveldb:env_win.obj
 0001:00032ba0       ?Schedule@WinEnv@?A0x8d2858f1@leveldb@@UEAAXP6AXPEAX@Z0@Z 0000000180033ba0 f   leveldb:env_win.obj
 0001:00032d60       ?BGThread@WinEnv@?A0x8d2858f1@leveldb@@AEAAXXZ 0000000180033d60 f   leveldb:env_win.obj
 0001:00032e60       ?StartThreadWrapper@?A0x8d2858f1@leveldb@@YAIPEAX@Z 0000000180033e60 f   leveldb:env_win.obj
 0001:00032ea0       ?StartThread@WinEnv@?A0x8d2858f1@leveldb@@UEAAXP6AXPEAX@Z0@Z 0000000180033ea0 f   leveldb:env_win.obj
 0001:00032f00       ??1?$deque@UBGItem@WinEnv@?A0x8d2858f1@leveldb@@V?$allocator@UBGItem@WinEnv@?A0x8d2858f1@leveldb@@@std@@@std@@QEAA@XZ 0000000180033f00 f   leveldb:env_win.obj
 0001:00032fe0       ??1?$_Deque_alloc@U?$_Deque_base_types@UBGItem@WinEnv@?A0x8d2858f1@leveldb@@V?$allocator@UBGItem@WinEnv@?A0x8d2858f1@leveldb@@@std@@@std@@@std@@QEAA@XZ 0000000180033fe0 f   leveldb:env_win.obj
 0001:00033010       ?_Growmap@?$deque@UBGItem@WinEnv@?A0x8d2858f1@leveldb@@V?$allocator@UBGItem@WinEnv@?A0x8d2858f1@leveldb@@@std@@@std@@IEAAX_K@Z 0000000180034010 f   leveldb:env_win.obj
 0001:000331f0       ?_Xlen@?$deque@UBGItem@WinEnv@?A0x8d2858f1@leveldb@@V?$allocator@UBGItem@WinEnv@?A0x8d2858f1@leveldb@@@std@@@std@@IEBAXXZ 00000001800341f0 f   leveldb:env_win.obj
 0001:00033df0       ?DeleteBlock@leveldb@@YAXPEAX0@Z 0000000180034df0 f   leveldb:table.obj
 0001:00033e20       ?DeleteCachedBlock@leveldb@@YAXAEBVSlice@1@PEAX@Z 0000000180034e20 f   leveldb:table.obj
 0001:00034470       ?Valid@TwoLevelIterator@?A0xcebae365@leveldb@@UEBA_NXZ 0000000180035470 f   leveldb:two_level_iterator.obj
 0001:00034480       ?key@TwoLevelIterator@?A0xcebae365@leveldb@@UEBA?AVSlice@3@XZ 0000000180035480 f   leveldb:two_level_iterator.obj
 0001:000344f0       ?value@TwoLevelIterator@?A0xcebae365@leveldb@@UEBA?AVSlice@3@XZ 00000001800354f0 f   leveldb:two_level_iterator.obj
 0001:00034560       ?status@TwoLevelIterator@?A0xcebae365@leveldb@@UEBA?AVStatus@3@XZ 0000000180035560 f   leveldb:two_level_iterator.obj
 0001:00034680       ??_GTwoLevelIterator@?A0xcebae365@leveldb@@UEAAPEAXI@Z 0000000180035680 f   leveldb:two_level_iterator.obj
 0001:00034770       ?Seek@TwoLevelIterator@?A0xcebae365@leveldb@@UEAAXAEBVSlice@3@@Z 0000000180035770 f   leveldb:two_level_iterator.obj
 0001:00034810       ?SeekToFirst@TwoLevelIterator@?A0xcebae365@leveldb@@UEAAXXZ 0000000180035810 f   leveldb:two_level_iterator.obj
 0001:00034890       ?SeekToLast@TwoLevelIterator@?A0xcebae365@leveldb@@UEAAXXZ 0000000180035890 f   leveldb:two_level_iterator.obj
 0001:00034910       ?Next@TwoLevelIterator@?A0xcebae365@leveldb@@UEAAXXZ 0000000180035910 f   leveldb:two_level_iterator.obj
 0001:000349a0       ?Prev@TwoLevelIterator@?A0xcebae365@leveldb@@UEAAXXZ 00000001800359a0 f   leveldb:two_level_iterator.obj
 0001:00034a30       ?SkipEmptyDataBlocksForward@TwoLevelIterator@?A0xcebae365@leveldb@@AEAAXXZ 0000000180035a30 f   leveldb:two_level_iterator.obj
 0001:00034b10       ?SkipEmptyDataBlocksBackward@TwoLevelIterator@?A0xcebae365@leveldb@@AEAAXXZ 0000000180035b10 f   leveldb:two_level_iterator.obj
 0001:00034bf0       ?SetDataIterator@TwoLevelIterator@?A0xcebae365@leveldb@@AEAAXPEAVIterator@3@@Z 0000000180035bf0 f   leveldb:two_level_iterator.obj
 0001:00034ce0       ?InitDataBlock@TwoLevelIterator@?A0xcebae365@leveldb@@AEAAXXZ 0000000180035ce0 f   leveldb:two_level_iterator.obj
 0001:00036690       ?DecodeEntry@leveldb@@YAPEBDPEBD0PEAI11@Z 0000000180037690 f   leveldb:block.obj
 0001:00037270       ?IncrementalCopy@?A0xae5cdd95@snappy@@YAPEADPEBDPEADQEAD2@Z 0000000180038270 f   snappy:snappy.obj
 0001:000373c0       ?EmitLiteral@snappy@@YAPEADPEADPEBDH_N@Z 00000001800383c0 f   snappy:snappy.obj
 0001:000374c0       ?EmitCopyAtMost64@snappy@@YAPEADPEAD_K1_N@Z 00000001800384c0 f   snappy:snappy.obj
 0001:00038cd0       $$000000                   0000000180039cd0     LIBCMT:amdsecgs.obj
 0001:00039134       ?dllmain_crt_dispatch@@YAHQEAUHINSTANCE__@@KQEAX@Z 000000018003a134 f   LIBCMT:dll_dllmain.obj
 0001:00039184       ?dllmain_crt_process_attach@@YAHQEAUHINSTANCE__@@QEAX@Z 000000018003a184 f   LIBCMT:dll_dllmain.obj
 0001:000392a0       ?dllmain_crt_process_detach@@YAH_N@Z 000000018003a2a0 f   LIBCMT:dll_dllmain.obj
 0001:00039330       ?dllmain_dispatch@@YAHQEAUHINSTANCE__@@KQEAX@Z 000000018003a330 f   LIBCMT:dll_dllmain.obj
 0001:000395ec       ?__scrt_initialize_thread_safe_statics@@YAHXZ 000000018003a5ec f   LIBCMT:thread_safe_statics.obj
 0001:0003974c       ?__scrt_uninitialize_thread_safe_statics@@YAXXZ 000000018003a74c f   LIBCMT:thread_safe_statics.obj
 0001:00039b18       capture_current_context    000000018003ab18 f   LIBCMT:gs_report.obj
 0001:00039b88       capture_previous_context   000000018003ab88 f   LIBCMT:gs_report.obj
 0001:0003ade0       $$000000                   000000018003bde0     libvcruntime:memset.obj
 0001:0003aedc       MsetTab                    000000018003bedc     libvcruntime:memset.obj
 0001:0003b2d0       ??$BuildCatchObjectHelperInternal@V__FrameHandler3@@@@YAHPEAUEHExceptionRecord@@PEAXPEBU_s_HandlerType@@PEBU_s_CatchableType@@@Z 000000018003c2d0 f   libvcruntime:frame.obj
 0001:0003b4d0       ??$BuildCatchObjectInternal@V__FrameHandler3@@@@YAXPEAUEHExceptionRecord@@PEAXPEBU_s_HandlerType@@PEBU_s_CatchableType@@@Z 000000018003c4d0 f   libvcruntime:frame.obj
 0001:0003b590       ??$CatchIt@V__FrameHandler3@@@@YAXPEAUEHExceptionRecord@@PEA_KPEAU_CONTEXT@@PEAU_xDISPATCHER_CONTEXT@@PEBU_s_FuncInfo@@PEBU_s_HandlerType@@PEBU_s_CatchableType@@PEBU_s_TryBlockMapEntry@@H1EE@Z 000000018003c590 f   libvcruntime:frame.obj
 0001:0003b660       ??$FindHandler@V__FrameHandler3@@@@YAXPEAUEHExceptionRecord@@PEA_KPEAU_CONTEXT@@PEAU_xDISPATCHER_CONTEXT@@PEBU_s_FuncInfo@@EH1@Z 000000018003c660 f   libvcruntime:frame.obj
 0001:0003bac4       ??$FindHandlerForForeignException@V__FrameHandler3@@@@YAXPEAUEHExceptionRecord@@PEA_KPEAU_CONTEXT@@PEAU_xDISPATCHER_CONTEXT@@PEBU_s_FuncInfo@@HH1@Z 000000018003cac4 f   libvcruntime:frame.obj
 0001:0003c2cc       ?ExFilterRethrow@@YAHPEAU_EXCEPTION_POINTERS@@PEAUEHExceptionRecord@@PEAH@Z 000000018003d2cc f   libvcruntime:frame.obj
 0001:0003c580       ?IsInExceptionSpec@@YAEPEAUEHExceptionRecord@@PEBU_s_ESTypeList@@@Z 000000018003d580 f   libvcruntime:frame.obj
 0001:0003c658       ?Is_bad_exception_allowed@@YAEPEBU_s_ESTypeList@@@Z 000000018003d658 f   libvcruntime:frame.obj
 0001:0003c798       ?try_get_function@@YAPEAXW4function_id@?A0xbfd18cd1@@QEBDQEBW4module_id@2@2@Z 000000018003d798 f   libvcruntime:winapi_downlevel.obj
 0001:0003cb70       $$000000                   000000018003db70     libvcruntime:notify.obj
 0001:0003cbf0       $$000000                   000000018003dbf0     libvcruntime:handlers.obj
 0001:0003cca0       $$000000                   000000018003dca0     libvcruntime:memcpy.obj
 0001:0003cd57       MoveSmall                  000000018003dd57     libvcruntime:memcpy.obj
 0001:0003d108       ??$common_assert_to_message_box@_W@@YAXQEB_W0IQEAX@Z 000000018003e108 f   libucrt:assert.obj
 0001:0003d1cc       ??$common_assert_to_message_box_build_string@_W@@YAXQEA_W_KQEB_W2IQEAX@Z 000000018003e1cc f   libucrt:assert.obj
 0001:0003d6d0       ??$common_assert_to_stderr@_W@@YAXQEB_W0I@Z 000000018003e6d0 f   libucrt:assert.obj
 0001:0003d840       ?get_assert_format@@YAPEB_W_W@Z 000000018003e840 f   libucrt:assert.obj
 0001:0003ddf4       ??$?RV<lambda_0d412022a4b28cc8a401ea49574e8ae6>@@AEAV<lambda_a775ed57af18ba8e4d5dc780aa9068fe>@@V<lambda_975a71a6baa488a08f4e15f6b0339b9e>@@@?$__crt_seh_guarded_call@H@@QEAAH$$QEAV<lambda_0d412022a4b28cc8a401ea49574e8ae6>@@AEAV<lambda_a775ed57af18ba8e4d5dc780aa9068fe>@@$$QEAV<lambda_975a71a6baa488a08f4e15f6b0339b9e>@@@Z 000000018003edf4 f   libucrt:output.obj
 0001:0003de34       ??$?RV<lambda_a62c933ada0517137acf5807a1eeac1f>@@AEAV<lambda_a31071773b9a94e445cbd5d04ef99106>@@V<lambda_56065050dbf3ada7e59a83db45153de3>@@@?$__crt_seh_guarded_call@H@@QEAAH$$QEAV<lambda_a62c933ada0517137acf5807a1eeac1f>@@AEAV<lambda_a31071773b9a94e445cbd5d04ef99106>@@$$QEAV<lambda_56065050dbf3ada7e59a83db45153de3>@@@Z 000000018003ee34 f   libucrt:output.obj
 0001:0003de74       ??$common_vsprintf@Vformat_validation_base@__crt_stdio_output@@D@@YAH_KQEAD0QEBDQEAU__crt_locale_pointers@@1@Z 000000018003ee74 f   libucrt:output.obj
 0001:0003e040       ??$common_vsprintf@Vstandard_base@__crt_stdio_output@@D@@YAH_KQEAD0QEBDQEAU__crt_locale_pointers@@1@Z 000000018003f040 f   libucrt:output.obj
 0001:0003e20c       ??$common_vsprintf@Vstandard_base@__crt_stdio_output@@_W@@YAH_KQEA_W0QEB_WQEAU__crt_locale_pointers@@QEAD@Z 000000018003f20c f   libucrt:output.obj
 0001:0003e9f4       ??R<lambda_a31071773b9a94e445cbd5d04ef99106>@@QEBAHXZ 000000018003f9f4 f   libucrt:output.obj
 0001:0003eb24       ??R<lambda_a775ed57af18ba8e4d5dc780aa9068fe>@@QEBAHXZ 000000018003fb24 f   libucrt:output.obj
 0001:00042474       ??$thread_start@P6AIPEAX@Z@@YAKQEAX@Z 0000000180043474 f   libucrt:thread.obj
 0001:000424dc       ?common_end_thread@@YAXI@Z 00000001800434dc f   libucrt:thread.obj
 0001:00042540       ?create_thread_parameter@@YAPEAU__acrt_thread_parameter@@QEAX0@Z 0000000180043540 f   libucrt:thread.obj
 0001:00042680       ??$common_fsopen@D@@YAPEAU_iobuf@@QEBD0H@Z 0000000180043680 f   libucrt:fopen.obj
 0001:000429b0       ??$?RV<lambda_842d9ff0dc9ef11c61343bbaebe7f885>@@AEAV<lambda_c5860995281e5c4ce005b3de8f5874ee>@@V<lambda_d90129c13df834fdcbf8d2b88dafcf2d>@@@?$__crt_seh_guarded_call@X@@QEAAX$$QEAV<lambda_842d9ff0dc9ef11c61343bbaebe7f885>@@AEAV<lambda_c5860995281e5c4ce005b3de8f5874ee>@@$$QEAV<lambda_d90129c13df834fdcbf8d2b88dafcf2d>@@@Z 00000001800439b0 f   libucrt:fflush.obj
 0001:00042a4c       ??$?RV<lambda_886d6c58226a84441f68b9f2b8217b83>@@AEAV<lambda_ab61a845afdef5b7c387490eaf3616ee>@@V<lambda_f7f22ab5edc0698d5f6905b0d3f44752>@@@?$__crt_seh_guarded_call@X@@QEAAX$$QEAV<lambda_886d6c58226a84441f68b9f2b8217b83>@@AEAV<lambda_ab61a845afdef5b7c387490eaf3616ee>@@$$QEAV<lambda_f7f22ab5edc0698d5f6905b0d3f44752>@@@Z 0000000180043a4c f   libucrt:fflush.obj
 0001:00042b2c       ??$?RV<lambda_c376a267cfb53b6959b3b692ec76b120>@@AEAV<lambda_9a32fed5bf61b6b509b2d3f6003082a1>@@V<lambda_572fbb9fa0ab338edf41edfd4b5fcc8d>@@@?$__crt_seh_guarded_call@H@@QEAAH$$QEAV<lambda_c376a267cfb53b6959b3b692ec76b120>@@AEAV<lambda_9a32fed5bf61b6b509b2d3f6003082a1>@@$$QEAV<lambda_572fbb9fa0ab338edf41edfd4b5fcc8d>@@@Z 0000000180043b2c f   libucrt:fflush.obj
 0001:00042b6c       ?common_flush_all@@YAH_N@Z 0000000180043b6c f   libucrt:fflush.obj
 0001:00042d04       ??$?RV<lambda_bdbcead8b570fa3d5ec6d9679862a6e5>@@AEAV<lambda_96f4279ff90247a4c5c5d9824f56f8c1>@@V<lambda_4606be27f17b5e5579e09050fab91818>@@@?$__crt_seh_guarded_call@_K@@QEAA_K$$QEAV<lambda_bdbcead8b570fa3d5ec6d9679862a6e5>@@AEAV<lambda_96f4279ff90247a4c5c5d9824f56f8c1>@@$$QEAV<lambda_4606be27f17b5e5579e09050fab91818>@@@Z 0000000180043d04 f   libucrt:fwrite.obj
 0001:00042d44       ??R<lambda_96f4279ff90247a4c5c5d9824f56f8c1>@@QEBA_KXZ 0000000180043d44 f   libucrt:fwrite.obj
 0001:000431dc       ??$?RV<lambda_d80eeec6fff315bfe5c115232f3240e3>@@AEAV<lambda_6e4b09c48022b2350581041d5f6b0c4c>@@V<lambda_2358e3775559c9db80273638284d5e45>@@@?$__crt_seh_guarded_call@X@@QEAAX$$QEAV<lambda_d80eeec6fff315bfe5c115232f3240e3>@@AEAV<lambda_6e4b09c48022b2350581041d5f6b0c4c>@@$$QEAV<lambda_2358e3775559c9db80273638284d5e45>@@@Z 00000001800441dc f   libucrt:exit.obj
 0001:00043214       ??R<lambda_6e4b09c48022b2350581041d5f6b0c4c>@@QEBA@XZ 0000000180044214 f   libucrt:exit.obj
 0001:000432d8       ?atexit_exception_filter@@YAHK@Z 00000001800442d8 f   libucrt:exit.obj
 0001:000432e4       ?common_exit@@YAXHW4_crt_exit_cleanup_mode@@W4_crt_exit_return_mode@@@Z 00000001800442e4 f   libucrt:exit.obj
 0001:000433a0       ?exit_or_terminate_process@@YAXI@Z 00000001800443a0 f   libucrt:exit.obj
 0001:000433ec       ?try_cor_exit_process@@YAXI@Z 00000001800443ec f   libucrt:exit.obj
 0001:00043474       ??$parse_command_line@D@@YAXPEADPEAPEAD0PEA_K2@Z 0000000180044474 f   libucrt:argv_parsing.obj
 0001:00043820       ??$common_initialize_environment_nolock@D@@YAHXZ 0000000180044820 f   libucrt:environment_initialization.obj
 0001:0004388c       ??$create_environment@D@@YAQEAPEADQEAD@Z 000000018004488c f   libucrt:environment_initialization.obj
 0001:00043994       ??$free_environment@D@@YAXQEAPEAD@Z 0000000180044994 f   libucrt:environment_initialization.obj
 0001:00043994       ??$free_environment@_W@@YAXQEAPEA_W@Z 0000000180044994 f   libucrt:environment_initialization.obj
 0001:000439d8       ??$uninitialize_environment_internal@D@@YAXAEAPEAPEAD@Z 00000001800449d8 f   libucrt:environment_initialization.obj
 0001:000439f4       ??$uninitialize_environment_internal@_W@@YAXAEAPEAPEA_W@Z 00000001800449f4 f   libucrt:environment_initialization.obj
 0001:00043a50       ??$?RV<lambda_638799b9deba96c50f710eeac98168cd>@@AEAV<lambda_22ebabd17bc4fa466a2aca6d8deb888d>@@V<lambda_a6f7d7db0129f75315ebf26d50c089f1>@@@?$__crt_seh_guarded_call@H@@QEAAH$$QEAV<lambda_638799b9deba96c50f710eeac98168cd>@@AEAV<lambda_22ebabd17bc4fa466a2aca6d8deb888d>@@$$QEAV<lambda_a6f7d7db0129f75315ebf26d50c089f1>@@@Z 0000000180044a50 f   libucrt:onexit.obj
 0001:00043a8c       ??$?RV<lambda_7777bce6b2f8c936911f934f8298dc43>@@AEAV<lambda_f03950bc5685219e0bcd2087efbe011e>@@V<lambda_3883c3dff614d5e0c5f61bb1ac94921c>@@@?$__crt_seh_guarded_call@H@@QEAAH$$QEAV<lambda_7777bce6b2f8c936911f934f8298dc43>@@AEAV<lambda_f03950bc5685219e0bcd2087efbe011e>@@$$QEAV<lambda_3883c3dff614d5e0c5f61bb1ac94921c>@@@Z 0000000180044a8c f   libucrt:onexit.obj
 0001:00043ac8       ??R<lambda_22ebabd17bc4fa466a2aca6d8deb888d>@@QEBAHXZ 0000000180044ac8 f   libucrt:onexit.obj
 0001:00043c78       ??R<lambda_f03950bc5685219e0bcd2087efbe011e>@@QEBAHXZ 0000000180044c78 f   libucrt:onexit.obj
 0001:00043e4c       initialize_global_variables 0000000180044e4c f   libucrt:initialization.obj
 0001:00043e60       initialize_c               0000000180044e60 f   libucrt:initialization.obj
 0001:00043e84       initialize_global_state_isolation 0000000180044e84 f   libucrt:initialization.obj
 0001:00043e84       initialize_environment     0000000180044e84 f   libucrt:initialization.obj
 0001:00043e84       report_memory_leaks        0000000180044e84 f   libucrt:initialization.obj
 0001:00043e84       uninitialize_c             0000000180044e84 f   libucrt:initialization.obj
 0001:00043e84       uninitialize_global_state_isolation 0000000180044e84 f   libucrt:initialization.obj
 0001:00043e88       uninitialize_environment   0000000180044e88 f   libucrt:initialization.obj
 0001:00043e98       initialize_pointers        0000000180044e98 f   libucrt:initialization.obj
 0001:00043ed8       uninitialize_vcruntime     0000000180044ed8 f   libucrt:initialization.obj
 0001:00043ee0       uninitialize_allocated_memory 0000000180044ee0 f   libucrt:initialization.obj
 0001:00043f20       uninitialize_allocated_io_buffers 0000000180044f20 f   libucrt:initialization.obj
 0001:00044b50       $$000000                   0000000180045b50     libucrt:strncmp.obj
 0001:00044be8       ??$common_xtox@K_W@@YAHKQEA_W_KI_N@Z 0000000180045be8 f   libucrt:xtoa.obj
 0001:00044cbc       ??$common_xtox_s@K_W@@YAHKQEA_W_KI_N@Z 0000000180045cbc f   libucrt:xtoa.obj
 0001:00045248       ??$?RV<lambda_84ec643ea9557e2f7dc01bb0e9624395>@@AEAV<lambda_ca71763b3c0644891230e4f79ea54fa6>@@V<lambda_439a761618c59b0600e24586724d733b>@@@?$__crt_seh_guarded_call@H@@QEAAH$$QEAV<lambda_84ec643ea9557e2f7dc01bb0e9624395>@@AEAV<lambda_ca71763b3c0644891230e4f79ea54fa6>@@$$QEAV<lambda_439a761618c59b0600e24586724d733b>@@@Z 0000000180046248 f   libucrt:setvbuf.obj
 0001:00045288       ??R<lambda_ca71763b3c0644891230e4f79ea54fa6>@@QEBAHXZ 0000000180046288 f   libucrt:setvbuf.obj
 0001:00045404       ??$?RV<lambda_450d765d439847d4c735a33c368b5fc0>@@AEAV<lambda_44731a7d0e6d81c3e6aa82d741081786>@@V<lambda_601a2a7da3b7a96e9554ac7215c4b07c>@@@?$__crt_seh_guarded_call@P6AXH@Z@@QEAAP6AXH@Z$$QEAV<lambda_450d765d439847d4c735a33c368b5fc0>@@AEAV<lambda_44731a7d0e6d81c3e6aa82d741081786>@@$$QEAV<lambda_601a2a7da3b7a96e9554ac7215c4b07c>@@@Z 0000000180046404 f   libucrt:signal.obj
 0001:00045708       ??$?RV<lambda_0ae27a3a962d80f24befdcbee591983d>@@AEAV<lambda_8d0ee55de4b1038c4002e0adecdf1839>@@V<lambda_dc504788e8f1664fe9b84e20bfb512f2>@@@?$__crt_seh_guarded_call@X@@QEAAX$$QEAV<lambda_0ae27a3a962d80f24befdcbee591983d>@@AEAV<lambda_8d0ee55de4b1038c4002e0adecdf1839>@@$$QEAV<lambda_dc504788e8f1664fe9b84e20bfb512f2>@@@Z 0000000180046708 f   libucrt:per_thread_data.obj
 0001:00045748       ??$?RV<lambda_2d41944a1d46af3157314b8a01080d33>@@AEAV<lambda_8f455de75cd7d7f24b4096f044d8b9e6>@@V<lambda_aa500f224e6afead328df44964fe2772>@@@?$__crt_seh_guarded_call@X@@QEAAX$$QEAV<lambda_2d41944a1d46af3157314b8a01080d33>@@AEAV<lambda_8f455de75cd7d7f24b4096f044d8b9e6>@@$$QEAV<lambda_aa500f224e6afead328df44964fe2772>@@@Z 0000000180046748 f   libucrt:per_thread_data.obj
 0001:00045788       ??$?RV<lambda_aa87e3671a710a21b5dc78c0bdf72e11>@@AEAV<lambda_92619d2358a28f41a33ba319515a20b9>@@V<lambda_6992ecaafeb10aed2b74cb1fae11a551>@@@?$__crt_seh_guarded_call@X@@QEAAX$$QEAV<lambda_aa87e3671a710a21b5dc78c0bdf72e11>@@AEAV<lambda_92619d2358a28f41a33ba319515a20b9>@@$$QEAV<lambda_6992ecaafeb10aed2b74cb1fae11a551>@@@Z 0000000180046788 f   libucrt:per_thread_data.obj
 0001:000457d0       ??$?RV<lambda_f2e299630e499de9f9a165e60fcd3db5>@@AEAV<lambda_2ae9d31cdba2644fcbeaf08da7c24588>@@V<lambda_40d01ff24d0e7b3814fdbdcee8eab3c7>@@@?$__crt_seh_guarded_call@X@@QEAAX$$QEAV<lambda_f2e299630e499de9f9a165e60fcd3db5>@@AEAV<lambda_2ae9d31cdba2644fcbeaf08da7c24588>@@$$QEAV<lambda_40d01ff24d0e7b3814fdbdcee8eab3c7>@@@Z 00000001800467d0 f   libucrt:per_thread_data.obj
 0001:00045830       ?construct_ptd_array@@YAXQEAU__acrt_ptd@@@Z 0000000180046830 f   libucrt:per_thread_data.obj
 0001:00045900       ?destroy_fls@@YAXPEAX@Z    0000000180046900 f   libucrt:per_thread_data.obj
 0001:00045920       ?destroy_ptd_array@@YAXQEAU__acrt_ptd@@@Z 0000000180046920 f   libucrt:per_thread_data.obj
 0001:00045a18       ?replace_current_thread_locale_nolock@@YAXQEAU__acrt_ptd@@QEAU__crt_locale_data@@@Z 0000000180046a18 f   libucrt:per_thread_data.obj
 0001:00045e0c       ?internal_isupper_l@@YA_NHQEAU__crt_locale_pointers@@@Z 0000000180046e0c f   libucrt:tolower_toupper.obj
 0001:00046040       ??$?RV<lambda_410d79af7f07d98d83a3f525b3859a53>@@AEAV<lambda_3e16ef9562a7dcce91392c22ab16ea36>@@V<lambda_38119f0e861e05405d8a144b9b982f0a>@@@?$__crt_seh_guarded_call@X@@QEAAX$$QEAV<lambda_410d79af7f07d98d83a3f525b3859a53>@@AEAV<lambda_3e16ef9562a7dcce91392c22ab16ea36>@@$$QEAV<lambda_38119f0e861e05405d8a144b9b982f0a>@@@Z 0000000180047040 f   libucrt:wsetlocale.obj
 0001:00046838       ?fp_format_a@@YAHQEBNPEAD_KQEAD2H_NIQEAU__crt_locale_pointers@@@Z 0000000180047838 f   libucrt:cvt.obj
 0001:00046ba8       ?fp_format_e@@YAHQEBNQEAD_K12H_NIQEAU__crt_locale_pointers@@@Z 0000000180047ba8 f   libucrt:cvt.obj
 0001:00046c84       ?fp_format_e_internal@@YAHQEAD_KH_NIQEAU_strflt@@2QEAU__crt_locale_pointers@@@Z 0000000180047c84 f   libucrt:cvt.obj
 0001:00046e58       ?fp_format_f_internal@@YAHQEAD_KHQEAU_strflt@@_NQEAU__crt_locale_pointers@@@Z 0000000180047e58 f   libucrt:cvt.obj
 0001:00046f9c       ?fp_format_g@@YAHQEBNQEAD_K12H_NIQEAU__crt_locale_pointers@@@Z 0000000180047f9c f   libucrt:cvt.obj
 0001:000470d0       ?fp_format_nan_or_infinity@@YAHW4__acrt_fp_class@@_NPEAD_K1@Z 00000001800480d0 f   libucrt:cvt.obj
 0001:00047774       ?initialize_inherited_file_handles_nolock@@YAXXZ 0000000180048774 f   libucrt:ioinit.obj
 0001:00047864       ?initialize_stdio_handles_nolock@@YAXXZ 0000000180048864 f   libucrt:ioinit.obj
 0001:00047a64       ?try_get_function@@YAPEAXW4function_id@?A0x391cf84c@@QEBDQEBW4module_id@2@2@Z 0000000180048a64 f   libucrt:winapi_thunks.obj
 0001:0004863c       ?find_or_allocate_unused_stream_nolock@@YA?AV__crt_stdio_stream@@XZ 000000018004963c f   libucrt:stream.obj
 0001:00048a88       ??$?RV<lambda_751a882b2c74d4b022dec766aa51a29a>@@AEAV<lambda_628dfdc04ba53c8bfc02c9951375f3f5>@@V<lambda_f6c7be5f7998530c34de24c7437d6b54>@@@?$__crt_seh_guarded_call@H@@QEAAH$$QEAV<lambda_751a882b2c74d4b022dec766aa51a29a>@@AEAV<lambda_628dfdc04ba53c8bfc02c9951375f3f5>@@$$QEAV<lambda_f6c7be5f7998530c34de24c7437d6b54>@@@Z 0000000180049a88 f   libucrt:close.obj
 0001:00048dfc       ??$?RV<lambda_a37b2b86f63e897a80ea819b0eb08c01>@@AEAV<lambda_38ce7e780aa69e748d6df282ebc68efe>@@V<lambda_99fb1378e971ab6e7edea83e3a7a83a2>@@@?$__crt_seh_guarded_call@H@@QEAAH$$QEAV<lambda_a37b2b86f63e897a80ea819b0eb08c01>@@AEAV<lambda_38ce7e780aa69e748d6df282ebc68efe>@@$$QEAV<lambda_99fb1378e971ab6e7edea83e3a7a83a2>@@@Z 0000000180049dfc f   libucrt:commit.obj
 0001:00048f1c       ?write_double_translated_ansi_nolock@@YA?AUwrite_result@?A0x17268360@@HQEBDI@Z 0000000180049f1c f   libucrt:write.obj
 0001:000493f8       ?write_text_ansi_nolock@@YA?AUwrite_result@?A0x17268360@@HQEBDI@Z 000000018004a3f8 f   libucrt:write.obj
 0001:000494fc       ?write_text_utf16le_nolock@@YA?AUwrite_result@?A0x17268360@@HQEBDI@Z 000000018004a4fc f   libucrt:write.obj
 0001:00049618       ?write_text_utf8_nolock@@YA?AUwrite_result@?A0x17268360@@HQEBDI@Z 000000018004a618 f   libucrt:write.obj
 0001:00049b50       ??$write_buffer_nolock@D@@YA_NDV__crt_stdio_stream@@@Z 000000018004ab50 f   libucrt:_flsbuf.obj
 0001:00049c34       ??$write_buffer_nolock@_W@@YA_N_WV__crt_stdio_stream@@@Z 000000018004ac34 f   libucrt:_flsbuf.obj
 0001:00049d1c       ?stream_is_at_end_of_file_nolock@@YA_NV__crt_stdio_stream@@@Z 000000018004ad1c f   libucrt:_flsbuf.obj
 0001:00049f6c       ?<lambda_invoker_cdecl>@<lambda_c2303d2482d7c3675ea2e24c4cfb6115>@@CAHPEBX0@Z 000000018004af6c f   libucrt:argv_wildcards.obj
 0001:0004a284       ??$common_expand_argv_wildcards@D@@YAHQEAPEADQEAPEAPEAD@Z 000000018004b284 f   libucrt:argv_wildcards.obj
 0001:0004a490       ??$copy_and_add_argument_to_buffer@D@@YAHQEBD0_KAEAV?$argument_list@D@?A0x5f5c8891@@@Z 000000018004b490 f   libucrt:argv_wildcards.obj
 0001:0004a618       ??$expand_argument_wildcards@D@@YAHQEAD0AEAV?$argument_list@D@?A0x5f5c8891@@@Z 000000018004b618 f   libucrt:argv_wildcards.obj
 0001:0004a930       ??$?RV<lambda_efdfa57d1f175319df784efa44bb7b81>@@AEAV<lambda_5f0a4c1567f8adc6734073e5d1e1b35c>@@V<lambda_2e8a7d3640ea6ccb4c2413664c2db6fd>@@@?$__crt_seh_guarded_call@X@@QEAAX$$QEAV<lambda_efdfa57d1f175319df784efa44bb7b81>@@AEAV<lambda_5f0a4c1567f8adc6734073e5d1e1b35c>@@$$QEAV<lambda_2e8a7d3640ea6ccb4c2413664c2db6fd>@@@Z 000000018004b930 f   libucrt:mbctype.obj
 0001:0004aaec       ?getSystemCP@@YAHH@Z       000000018004baec f   libucrt:mbctype.obj
 0001:0004ab6c       ?setSBCS@@YAXPEAU__crt_multibyte_data@@@Z 000000018004bb6c f   libucrt:mbctype.obj
 0001:0004abfc       ?setSBUpLow@@YAXPEAU__crt_multibyte_data@@@Z 000000018004bbfc f   libucrt:mbctype.obj
 0001:0004ade0       ?setmbcp_internal@@YAHH_NQEAU__acrt_ptd@@QEAPEAU__crt_multibyte_data@@@Z 000000018004bde0 f   libucrt:mbctype.obj
 0001:0004afa4       ?update_thread_multibyte_data_internal@@YAPEAU__crt_multibyte_data@@QEAU__acrt_ptd@@QEAPEAU1@@Z 000000018004bfa4 f   libucrt:mbctype.obj
 0001:0004b394       ?x_ismbbtype_l@@YAHPEAU__crt_locale_pointers@@IHH@Z 000000018004c394 f   libucrt:ismbbyte.obj
 0001:0004be24       ?__acrt_LCMapStringA_stat@@YAHPEAU__crt_locale_pointers@@PEB_WKPEBDHPEADHHH@Z 000000018004ce24 f   libucrt:lcmapstringa.obj
 0001:0004c34c       ?free_crt_array_internal@@YAXQEAPEBX_K@Z 000000018004d34c f   libucrt:inittime.obj
 0001:0004dff0       memcpy_s                   000000018004eff0 f   libucrt:cfout.obj
 0001:0004e5fc       ?GetTableIndexFromLocaleName@@YAHPEB_W@Z 000000018004f5fc f   libucrt:lcidtoname_downlevel.obj
 0001:0004e8a0       ??$common_sopen_dispatch@D@@YAHQEBDHHHQEAHH@Z 000000018004f8a0 f   libucrt:open.obj
 0001:0004e964       ?configure_text_mode@@YAHHUfile_options@?A0xa9d50aae@@HAEAW4__crt_lowio_text_mode@@@Z 000000018004f964 f   libucrt:open.obj
 0001:0004ebf8       ?decode_options@@YA?AUfile_options@?A0xa9d50aae@@HHH@Z 000000018004fbf8 f   libucrt:open.obj
 0001:0004ee04       ?truncate_ctrl_z_if_present@@YAHH@Z 000000018004fe04 f   libucrt:open.obj
 0001:0004f3fc       ??$common_lseek@_J@@YA_JH_JH@Z 00000001800503fc f   libucrt:lseek.obj
 0001:0004f4ec       ??$common_lseek_nolock@_J@@YA_JH_JH@Z 00000001800504ec f   libucrt:lseek.obj
 0001:0004f5d4       ??$translate_text_mode_nolock@D@@YAHHQEAD_K@Z 00000001800505d4 f   libucrt:read.obj
 0001:0004f7a0       ??$translate_text_mode_nolock@_W@@YAHHQEA_W_K@Z 00000001800507a0 f   libucrt:read.obj
 0001:0004fa0c       ?translate_ansi_or_utf8_nolock@@YAHHQEAD_KQEA_W1@Z 0000000180050a0c f   libucrt:read.obj
 0001:00050430       fallbackMethod             0000000180051430 f   libucrt:strpbrk.obj
 0001:000507f4       $LN78                      00000001800517f4     libucrt:strpbrk.obj
 0001:00050830       $LN77                      0000000180051830     libucrt:strpbrk.obj
 0001:00050870       $LN76                      0000000180051870     libucrt:strpbrk.obj
 0001:0005094c       ?initialize_multibyte@@YAHXZ 000000018005194c f   libucrt:multibyte_initializer.obj
 0001:00050da0       $$000000                   0000000180051da0     libucrt:log10.obj
 0001:00051a7c       _call_matherr              0000000180052a7c f   libucrt:libm_error.obj
 0001:00051ae4       _exception_enabled         0000000180052ae4 f   libucrt:libm_error.obj
 0001:00051d80       _log_special_common        0000000180052d80 f   libucrt:log_special.obj
 0001:00051e20       $$000000                   0000000180052e20     libucrt:fpsr.obj
 0001:00052ae0       $$000000                   0000000180053ae0     LIBCMT:chkstk.obj
 0001:00052b50       $$000000                   0000000180053b50     libvcruntime:memcmp.obj
 0001:00052cb0       $$000000                   0000000180053cb0     LIBCMT:guard_dispatch.obj
 0001:00052cd0       ?dtor$0@?0??New@?$Factory@VFunctionTemplate@v8@@@imp@Nan@@SA?AV?$Local@VFunctionTemplate@v8@@@v8@@P6AXAEBV?$FunctionCallbackInfo@VValue@v8@@@3@@ZV?$Local@VValue@v8@@@5@V?$Local@VSignature@v8@@@5@@Z@4HA 0000000180053cd0 f   batch.obj
 0001:00052cde       ?dtor$1@?0??New@?$Factory@VFunctionTemplate@v8@@@imp@Nan@@SA?AV?$Local@VFunctionTemplate@v8@@@v8@@P6AXAEBV?$FunctionCallbackInfo@VValue@v8@@@3@@ZV?$Local@VValue@v8@@@5@V?$Local@VSignature@v8@@@5@@Z@4HA 0000000180053cde f   batch.obj
 0001:00052cec       ?dtor$2@?0??New@?$Factory@VFunctionTemplate@v8@@@imp@Nan@@SA?AV?$Local@VFunctionTemplate@v8@@@v8@@P6AXAEBV?$FunctionCallbackInfo@VValue@v8@@@3@@ZV?$Local@VValue@v8@@@5@V?$Local@VSignature@v8@@@5@@Z@4HA 0000000180053cec f   batch.obj
 0001:00052cfa       ?dtor$3@?0??New@?$Factory@VFunctionTemplate@v8@@@imp@Nan@@SA?AV?$Local@VFunctionTemplate@v8@@@v8@@P6AXAEBV?$FunctionCallbackInfo@VValue@v8@@@3@@ZV?$Local@VValue@v8@@@5@V?$Local@VSignature@v8@@@5@@Z@4HA 0000000180053cfa f   batch.obj
 0001:00052d10       ?dtor$0@?0???1EscapableHandleScope@Nan@@QEAA@XZ@4HA 0000000180053d10 f   batch.obj
 0001:00052d1e       ?dtor$1@?0???1EscapableHandleScope@Nan@@QEAA@XZ@4HA 0000000180053d1e f   batch.obj
 0001:00052d30       ?dtor$1@?0???0Utf8String@Nan@@QEAA@V?$Local@VValue@v8@@@v8@@@Z@4HA 0000000180053d30 f   database.obj
 0001:00052d30       ?dtor$1@?0??SaveToPersistent@AsyncWorker@Nan@@QEAAXPEBDAEBV?$Local@VValue@v8@@@v8@@@Z@4HA 0000000180053d30 f   batch.obj
 0001:00052d30       ?dtor$1@?0??UInt32OptionValue@leveldown@@YAIV?$Local@VObject@v8@@@v8@@PEBDI@Z@4HA 0000000180053d30 f   database.obj
 0001:00052d30       ?dtor$1@?0??HandleOKCallback@CompactRangeWorker@leveldown@@UEAAXXZ@4HA 0000000180053d30 f   database_async.obj
 0001:00052d30       ?dtor$1@?0??HandleOKCallback@AsyncWorker@Nan@@MEAAXXZ@4HA 0000000180053d30 f   batch_async.obj
 0001:00052d30       ?dtor$1@?0??BooleanOptionValue@leveldown@@YA_NV?$Local@VObject@v8@@@v8@@PEBD_N@Z@4HA 0000000180053d30 f   batch.obj
 0001:00052d30       ?dtor$1@?0??SetPrototypeMethod@Nan@@YAXV?$Local@VFunctionTemplate@v8@@@v8@@PEBDP6AXAEBV?$FunctionCallbackInfo@VValue@v8@@@1@@Z@Z@4HA 0000000180053d30 f   batch.obj
 0001:00052d30       ?dtor$1@?0??HandleErrorCallback@AsyncWorker@Nan@@MEAAXXZ@4HA 0000000180053d30 f   batch_async.obj
 0001:00052d30       ?dtor$1@?0??ThrowError@Nan@@YAXPEBD@Z@4HA 0000000180053d30 f   batch.obj
 0001:00052d3e       ?dtor$0@?0??HandleOKCallback@AsyncWorker@Nan@@MEAAXXZ@4HA 0000000180053d3e f   batch_async.obj
 0001:00052d3e       ?dtor$0@?0??ThrowError@Nan@@YAXPEBD@Z@4HA 0000000180053d3e f   batch.obj
 0001:00052d3e       ?dtor$0@?0??SetPrototypeMethod@Nan@@YAXV?$Local@VFunctionTemplate@v8@@@v8@@PEBDP6AXAEBV?$FunctionCallbackInfo@VValue@v8@@@1@@Z@Z@4HA 0000000180053d3e f   batch.obj
 0001:00052d3e       ?dtor$0@?0??HandleOKCallback@CompactRangeWorker@leveldown@@UEAAXXZ@4HA 0000000180053d3e f   database_async.obj
 0001:00052d3e       ?dtor$0@?0??SaveToPersistent@AsyncWorker@Nan@@QEAAXPEBDAEBV?$Local@VValue@v8@@@v8@@@Z@4HA 0000000180053d3e f   batch.obj
 0001:00052d3e       ?dtor$0@?0??BooleanOptionValue@leveldown@@YA_NV?$Local@VObject@v8@@@v8@@PEBD_N@Z@4HA 0000000180053d3e f   batch.obj
 0001:00052d3e       ?dtor$0@?0???0Utf8String@Nan@@QEAA@V?$Local@VValue@v8@@@v8@@@Z@4HA 0000000180053d3e f   database.obj
 0001:00052d3e       ?dtor$0@?0??UInt32OptionValue@leveldown@@YAIV?$Local@VObject@v8@@@v8@@PEBDI@Z@4HA 0000000180053d3e f   database.obj
 0001:00052d3e       ?dtor$0@?0??HandleErrorCallback@AsyncWorker@Nan@@MEAAXXZ@4HA 0000000180053d3e f   batch_async.obj
 0001:00052d4a       ?dtor$2@?0??UInt32OptionValue@leveldown@@YAIV?$Local@VObject@v8@@@v8@@PEBDI@Z@4HA 0000000180053d4a f   database.obj
 0001:00052d4a       ?dtor$2@?0???0Utf8String@Nan@@QEAA@V?$Local@VValue@v8@@@v8@@@Z@4HA 0000000180053d4a f   database.obj
 0001:00052d4a       ?dtor$2@?0??BooleanOptionValue@leveldown@@YA_NV?$Local@VObject@v8@@@v8@@PEBD_N@Z@4HA 0000000180053d4a f   batch.obj
 0001:00052d4a       ?dtor$2@?0??HandleErrorCallback@AsyncWorker@Nan@@MEAAXXZ@4HA 0000000180053d4a f   batch_async.obj
 0001:00052d4a       ?dtor$2@?0??HandleOKCallback@AsyncWorker@Nan@@MEAAXXZ@4HA 0000000180053d4a f   batch_async.obj
 0001:00052d4a       ?dtor$2@?0??SaveToPersistent@AsyncWorker@Nan@@QEAAXPEBDAEBV?$Local@VValue@v8@@@v8@@@Z@4HA 0000000180053d4a f   batch.obj
 0001:00052d4a       ?dtor$2@?0??SetPrototypeMethod@Nan@@YAXV?$Local@VFunctionTemplate@v8@@@v8@@PEBDP6AXAEBV?$FunctionCallbackInfo@VValue@v8@@@1@@Z@Z@4HA 0000000180053d4a f   batch.obj
 0001:00052d4a       ?dtor$2@?0??ThrowError@Nan@@YAXPEBD@Z@4HA 0000000180053d4a f   batch.obj
 0001:00052d4a       ?dtor$2@?0??HandleOKCallback@CompactRangeWorker@leveldown@@UEAAXXZ@4HA 0000000180053d4a f   database_async.obj
 0001:00052d60       ?dtor$0@?0???1HandleScope@Nan@@QEAA@XZ@4HA 0000000180053d60 f   batch.obj
 0001:00052d70       ?dtor$0@?0???1?$Persistent@VObject@v8@@V?$NonCopyablePersistentTraits@VObject@v8@@@2@@Nan@@QEAA@XZ@4HA 0000000180053d70 f   batch.obj
 0001:00052d70       ?dtor$0@?0???1?$Persistent@VFunction@v8@@V?$NonCopyablePersistentTraits@VFunction@v8@@@2@@Nan@@QEAA@XZ@4HA 0000000180053d70 f   batch.obj
 0001:00052d80       ?dtor$0@?0???1ObjectWrap@Nan@@UEAA@XZ@4HA 0000000180053d80 f   batch.obj
 0001:00052d90       ?dtor$1@?0???1ObjectWrap@Nan@@UEAA@XZ@4HA 0000000180053d90 f   batch.obj
 0001:00052da0       ?dtor$0@?0???__Fbatch_constructor@leveldown@@YAXXZ@4HA 0000000180053da0 f   batch.obj
 0001:00052da0       ?dtor$0@?0???__Ebatch_constructor@leveldown@@YAXXZ@4HA 0000000180053da0 f   batch.obj
 0001:00052db0       ?dtor$0@?0???_GBatch@leveldown@@UEAAPEAXI@Z@4HA 0000000180053db0 f   batch.obj
 0001:00052db0       ?dtor$0@?0???1Iterator@leveldown@@UEAA@XZ@4HA 0000000180053db0 f   iterator.obj
 0001:00052dc0       ?dtor$0@?0???1InternalKey@leveldb@@QEAA@XZ@4HA 0000000180053dc0 f   leveldb:db_impl.obj
 0001:00052dc0       ?dtor$0@?0???1WriteBatch@leveldb@@QEAA@XZ@4HA 0000000180053dc0 f   leveldb:write_batch.obj
 0001:00052dc0       ?dtor$0@?0???0WriteBatch@leveldb@@QEAA@XZ@4HA 0000000180053dc0 f   leveldb:write_batch.obj
 0001:00052dc0       ?dtor$0@?0???_GWriteBatch@leveldb@@QEAAPEAXI@Z@4HA 0000000180053dc0 f   batch.obj
 0001:00052dd0       ?dtor$1@?0??Write@Batch@leveldown@@QEAA?AVStatus@leveldb@@XZ@4HA 0000000180053dd0 f   batch.obj
 0001:00052df6       ?dtor$0@?0??Write@Batch@leveldown@@QEAA?AVStatus@leveldb@@XZ@4HA 0000000180053df6 f   batch.obj
 0001:00052e20       ?dtor$0@?0??New@Batch@leveldown@@CAXAEBV?$FunctionCallbackInfo@VValue@v8@@@Nan@@@Z@4HA 0000000180053e20 f   batch.obj
 0001:00052e3d       ?dtor$5@?0??New@Batch@leveldown@@CAXAEBV?$FunctionCallbackInfo@VValue@v8@@@Nan@@@Z@4HA 0000000180053e3d f   batch.obj
 0001:00052e49       ?dtor$4@?0??New@Batch@leveldown@@CAXAEBV?$FunctionCallbackInfo@VValue@v8@@@Nan@@@Z@4HA 0000000180053e49 f   batch.obj
 0001:00052e59       ?dtor$1@?0??New@Batch@leveldown@@CAXAEBV?$FunctionCallbackInfo@VValue@v8@@@Nan@@@Z@4HA 0000000180053e59 f   batch.obj
 0001:00052e65       ?dtor$2@?0??New@Batch@leveldown@@CAXAEBV?$FunctionCallbackInfo@VValue@v8@@@Nan@@@Z@4HA 0000000180053e65 f   batch.obj
 0001:00052e82       ?dtor$3@?0??New@Batch@leveldown@@CAXAEBV?$FunctionCallbackInfo@VValue@v8@@@Nan@@@Z@4HA 0000000180053e82 f   batch.obj
 0001:00052e9f       ?dtor$6@?0??New@Batch@leveldown@@CAXAEBV?$FunctionCallbackInfo@VValue@v8@@@Nan@@@Z@4HA 0000000180053e9f f   batch.obj
 0001:00052eb0       ?dtor$1@?0??NewInstance@Batch@leveldown@@SA?AV?$Local@VValue@v8@@@v8@@V?$Local@VObject@v8@@@4@0@Z@4HA 0000000180053eb0 f   batch.obj
 0001:00052ebe       ?dtor$0@?0??NewInstance@Batch@leveldown@@SA?AV?$Local@VValue@v8@@@v8@@V?$Local@VObject@v8@@@4@0@Z@4HA 0000000180053ebe f   batch.obj
 0001:00052eca       ?dtor$2@?0??NewInstance@Batch@leveldown@@SA?AV?$Local@VValue@v8@@@v8@@V?$Local@VObject@v8@@@4@0@Z@4HA 0000000180053eca f   batch.obj
 0001:00052ed8       ?dtor$3@?0??NewInstance@Batch@leveldown@@SA?AV?$Local@VValue@v8@@@v8@@V?$Local@VObject@v8@@@4@0@Z@4HA 0000000180053ed8 f   batch.obj
 0001:00052ee6       ?dtor$4@?0??NewInstance@Batch@leveldown@@SA?AV?$Local@VValue@v8@@@v8@@V?$Local@VObject@v8@@@4@0@Z@4HA 0000000180053ee6 f   batch.obj
 0001:00052ef4       ?dtor$5@?0??NewInstance@Batch@leveldown@@SA?AV?$Local@VValue@v8@@@v8@@V?$Local@VObject@v8@@@4@0@Z@4HA 0000000180053ef4 f   batch.obj
 0001:00052f02       ?dtor$6@?0??NewInstance@Batch@leveldown@@SA?AV?$Local@VValue@v8@@@v8@@V?$Local@VObject@v8@@@4@0@Z@4HA 0000000180053f02 f   batch.obj
 0001:00052f10       ?dtor$7@?0??NewInstance@Batch@leveldown@@SA?AV?$Local@VValue@v8@@@v8@@V?$Local@VObject@v8@@@4@0@Z@4HA 0000000180053f10 f   batch.obj
 0001:00052f20       ?dtor$0@?0??Write@Batch@leveldown@@CAXAEBV?$FunctionCallbackInfo@VValue@v8@@@Nan@@@Z@4HA 0000000180053f20 f   batch.obj
 0001:00052f3d       ?dtor$4@?0??Write@Batch@leveldown@@CAXAEBV?$FunctionCallbackInfo@VValue@v8@@@Nan@@@Z@4HA 0000000180053f3d f   batch.obj
 0001:00052f49       ?dtor$3@?0??Write@Batch@leveldown@@CAXAEBV?$FunctionCallbackInfo@VValue@v8@@@Nan@@@Z@4HA 0000000180053f49 f   batch.obj
 0001:00052f55       ?dtor$1@?0??Write@Batch@leveldown@@CAXAEBV?$FunctionCallbackInfo@VValue@v8@@@Nan@@@Z@4HA 0000000180053f55 f   batch.obj
 0001:00052f72       ?dtor$5@?0??Write@Batch@leveldown@@CAXAEBV?$FunctionCallbackInfo@VValue@v8@@@Nan@@@Z@4HA 0000000180053f72 f   batch.obj
 0001:00052f7e       ?dtor$7@?0??Write@Batch@leveldown@@CAXAEBV?$FunctionCallbackInfo@VValue@v8@@@Nan@@@Z@4HA 0000000180053f7e f   batch.obj
 0001:00052f8c       ?dtor$6@?0??Write@Batch@leveldown@@CAXAEBV?$FunctionCallbackInfo@VValue@v8@@@Nan@@@Z@4HA 0000000180053f8c f   batch.obj
 0001:00052f98       ?dtor$8@?0??Write@Batch@leveldown@@CAXAEBV?$FunctionCallbackInfo@VValue@v8@@@Nan@@@Z@4HA 0000000180053f98 f   batch.obj
 0001:00052fa6       ?dtor$2@?0??Write@Batch@leveldown@@CAXAEBV?$FunctionCallbackInfo@VValue@v8@@@Nan@@@Z@4HA 0000000180053fa6 f   batch.obj
 0001:00052fc0       ?dtor$1@?0??Call@Callback@Nan@@QEBA?AV?$MaybeLocal@VValue@v8@@@v8@@HQEAV?$Local@VValue@v8@@@4@PEAVAsyncResource@2@@Z@4HA 0000000180053fc0 f   batch_async.obj
 0001:00052fce       ?dtor$0@?0??Call@Callback@Nan@@QEBA?AV?$MaybeLocal@VValue@v8@@@v8@@HQEAV?$Local@VValue@v8@@@4@PEAVAsyncResource@2@@Z@4HA 0000000180053fce f   batch_async.obj
 0001:00052fda       ?dtor$2@?0??Call@Callback@Nan@@QEBA?AV?$MaybeLocal@VValue@v8@@@v8@@HQEAV?$Local@VValue@v8@@@4@PEAVAsyncResource@2@@Z@4HA 0000000180053fda f   batch_async.obj
 0001:00052fe8       ?dtor$3@?0??Call@Callback@Nan@@QEBA?AV?$MaybeLocal@VValue@v8@@@v8@@HQEAV?$Local@VValue@v8@@@4@PEAVAsyncResource@2@@Z@4HA 0000000180053fe8 f   batch_async.obj
 0001:00052ff6       ?dtor$4@?0??Call@Callback@Nan@@QEBA?AV?$MaybeLocal@VValue@v8@@@v8@@HQEAV?$Local@VValue@v8@@@4@PEAVAsyncResource@2@@Z@4HA 0000000180053ff6 f   batch_async.obj
 0001:00053004       ?dtor$5@?0??Call@Callback@Nan@@QEBA?AV?$MaybeLocal@VValue@v8@@@v8@@HQEAV?$Local@VValue@v8@@@4@PEAVAsyncResource@2@@Z@4HA 0000000180054004 f   batch_async.obj
 0001:00053020       ?dtor$0@?0???1AsyncWorker@Nan@@UEAA@XZ@4HA 0000000180054020 f   batch_async.obj
 0001:00053033       ?dtor$2@?0???1AsyncWorker@Nan@@UEAA@XZ@4HA 0000000180054033 f   batch_async.obj
 0001:00053041       ?dtor$1@?0???1AsyncWorker@Nan@@UEAA@XZ@4HA 0000000180054041 f   batch_async.obj
 0001:0005304d       ?dtor$3@?0???1AsyncWorker@Nan@@UEAA@XZ@4HA 000000018005404d f   batch_async.obj
 0001:00053059       ?dtor$4@?0???1AsyncWorker@Nan@@UEAA@XZ@4HA 0000000180054059 f   batch_async.obj
 0001:00053065       ?dtor$5@?0???1AsyncWorker@Nan@@UEAA@XZ@4HA 0000000180054065 f   batch_async.obj
 0001:00053073       ?dtor$6@?0???1AsyncWorker@Nan@@UEAA@XZ@4HA 0000000180054073 f   batch_async.obj
 0001:00053080       ?dtor$1@?0??WorkComplete@CloseWorker@leveldown@@UEAAXXZ@4HA 0000000180054080 f   database_async.obj
 0001:00053080       ?dtor$1@?0??WorkComplete@AsyncWorker@Nan@@UEAAXXZ@4HA 0000000180054080 f   batch_async.obj
 0001:0005308e       ?dtor$0@?0??WorkComplete@CloseWorker@leveldown@@UEAAXXZ@4HA 000000018005408e f   database_async.obj
 0001:0005308e       ?dtor$0@?0??WorkComplete@AsyncWorker@Nan@@UEAAXXZ@4HA 000000018005408e f   batch_async.obj
 0001:0005309a       ?dtor$2@?0??WorkComplete@CloseWorker@leveldown@@UEAAXXZ@4HA 000000018005409a f   database_async.obj
 0001:0005309a       ?dtor$2@?0??WorkComplete@AsyncWorker@Nan@@UEAAXXZ@4HA 000000018005409a f   batch_async.obj
 0001:000530a6       ?dtor$3@?0??WorkComplete@AsyncWorker@Nan@@UEAAXXZ@4HA 00000001800540a6 f   batch_async.obj
 0001:000530a6       ?dtor$3@?0??WorkComplete@CloseWorker@leveldown@@UEAAXXZ@4HA 00000001800540a6 f   database_async.obj
 0001:000530b2       ?dtor$4@?0??WorkComplete@AsyncWorker@Nan@@UEAAXXZ@4HA 00000001800540b2 f   batch_async.obj
 0001:000530b2       ?dtor$4@?0??WorkComplete@CloseWorker@leveldown@@UEAAXXZ@4HA 00000001800540b2 f   database_async.obj
 0001:000530c0       ?dtor$5@?0???0AsyncWorker@leveldown@@QEAA@PEAVDatabase@1@PEAVCallback@Nan@@PEBD@Z@4HA 00000001800540c0 f   batch_async.obj
 0001:000530cc       ?dtor$2@?0???0AsyncWorker@leveldown@@QEAA@PEAVDatabase@1@PEAVCallback@Nan@@PEBD@Z@4HA 00000001800540cc f   batch_async.obj
 0001:000530df       ?dtor$6@?0???0AsyncWorker@leveldown@@QEAA@PEAVDatabase@1@PEAVCallback@Nan@@PEBD@Z@4HA 00000001800540df f   batch_async.obj
 0001:000530ed       ?dtor$3@?0???0AsyncWorker@leveldown@@QEAA@PEAVDatabase@1@PEAVCallback@Nan@@PEBD@Z@4HA 00000001800540ed f   batch_async.obj
 0001:000530f9       ?dtor$4@?0???0AsyncWorker@leveldown@@QEAA@PEAVDatabase@1@PEAVCallback@Nan@@PEBD@Z@4HA 00000001800540f9 f   batch_async.obj
 0001:00053119       ?dtor$7@?0???0AsyncWorker@leveldown@@QEAA@PEAVDatabase@1@PEAVCallback@Nan@@PEBD@Z@4HA 0000000180054119 f   batch_async.obj
 0001:00053127       ?dtor$0@?0???0AsyncWorker@leveldown@@QEAA@PEAVDatabase@1@PEAVCallback@Nan@@PEBD@Z@4HA 0000000180054127 f   batch_async.obj
 0001:00053133       ?dtor$1@?0???0AsyncWorker@leveldown@@QEAA@PEAVDatabase@1@PEAVCallback@Nan@@PEBD@Z@4HA 0000000180054133 f   batch_async.obj
 0001:00053150       ?dtor$0@?0??SetStatus@AsyncWorker@leveldown@@IEAAXVStatus@leveldb@@@Z@4HA 0000000180054150 f   batch_async.obj
 0001:0005315c       ?dtor$1@?0??SetStatus@AsyncWorker@leveldown@@IEAAXVStatus@leveldb@@@Z@4HA 000000018005415c f   batch_async.obj
 0001:00053170       ?dtor$0@?0???_GAsyncWorker@leveldown@@UEAAPEAXI@Z@4HA 0000000180054170 f   batch_async.obj
 0001:00053170       ?dtor$0@?0???1AsyncWorker@leveldown@@UEAA@XZ@4HA 0000000180054170 f   batch_async.obj
 0001:0005317c       ?dtor$1@?0???_GAsyncWorker@leveldown@@UEAAPEAXI@Z@4HA 000000018005417c f   batch_async.obj
 0001:0005317c       ?dtor$1@?0???1AsyncWorker@leveldown@@UEAA@XZ@4HA 000000018005417c f   batch_async.obj
 0001:00053190       ?dtor$0@?0???1IOWorker@leveldown@@UEAA@XZ@4HA 0000000180054190 f   database_async.obj
 0001:00053190       ?dtor$0@?0???_GApproximateSizeWorker@leveldown@@UEAAPEAXI@Z@4HA 0000000180054190 f   database_async.obj
 0001:00053190       ?dtor$0@?0???_GRepairWorker@leveldown@@UEAAPEAXI@Z@4HA 0000000180054190 f   leveldown_async.obj
 0001:00053190       ?dtor$0@?0???_GDestroyWorker@leveldown@@UEAAPEAXI@Z@4HA 0000000180054190 f   leveldown_async.obj
 0001:00053190       ?dtor$0@?0???_GEndWorker@leveldown@@UEAAPEAXI@Z@4HA 0000000180054190 f   iterator_async.obj
 0001:00053190       ?dtor$0@?0???_GOpenWorker@leveldown@@UEAAPEAXI@Z@4HA 0000000180054190 f   database_async.obj
 0001:00053190       ?dtor$0@?0???_GIOWorker@leveldown@@UEAAPEAXI@Z@4HA 0000000180054190 f   database_async.obj
 0001:00053190       ?dtor$0@?0???_GBatchWorker@leveldown@@UEAAPEAXI@Z@4HA 0000000180054190 f   database_async.obj
 0001:00053190       ?dtor$0@?0???_GCompactRangeWorker@leveldown@@UEAAPEAXI@Z@4HA 0000000180054190 f   database_async.obj
 0001:00053190       ?dtor$0@?0???_GBatchWriteWorker@leveldown@@UEAAPEAXI@Z@4HA 0000000180054190 f   batch_async.obj
 0001:00053190       ?dtor$0@?0???_GCloseWorker@leveldown@@UEAAPEAXI@Z@4HA 0000000180054190 f   database_async.obj
 0001:0005319c       ?dtor$1@?0???_GOpenWorker@leveldown@@UEAAPEAXI@Z@4HA 000000018005419c f   database_async.obj
 0001:0005319c       ?dtor$1@?0???_GIOWorker@leveldown@@UEAAPEAXI@Z@4HA 000000018005419c f   database_async.obj
 0001:0005319c       ?dtor$1@?0???_GDestroyWorker@leveldown@@UEAAPEAXI@Z@4HA 000000018005419c f   leveldown_async.obj
 0001:0005319c       ?dtor$1@?0???_GBatchWriteWorker@leveldown@@UEAAPEAXI@Z@4HA 000000018005419c f   batch_async.obj
 0001:0005319c       ?dtor$1@?0???_GCompactRangeWorker@leveldown@@UEAAPEAXI@Z@4HA 000000018005419c f   database_async.obj
 0001:0005319c       ?dtor$1@?0???_GCloseWorker@leveldown@@UEAAPEAXI@Z@4HA 000000018005419c f   database_async.obj
 0001:0005319c       ?dtor$1@?0???_GBatchWorker@leveldown@@UEAAPEAXI@Z@4HA 000000018005419c f   database_async.obj
 0001:0005319c       ?dtor$1@?0???_GEndWorker@leveldown@@UEAAPEAXI@Z@4HA 000000018005419c f   iterator_async.obj
 0001:0005319c       ?dtor$1@?0???1IOWorker@leveldown@@UEAA@XZ@4HA 000000018005419c f   database_async.obj
 0001:0005319c       ?dtor$1@?0???_GApproximateSizeWorker@leveldown@@UEAAPEAXI@Z@4HA 000000018005419c f   database_async.obj
 0001:0005319c       ?dtor$1@?0???_GRepairWorker@leveldown@@UEAAPEAXI@Z@4HA 000000018005419c f   leveldown_async.obj
 0001:000531a8       ?dtor$2@?0???_GBatchWriteWorker@leveldown@@UEAAPEAXI@Z@4HA 00000001800541a8 f   batch_async.obj
 0001:000531a8       ?dtor$2@?0???_GEndWorker@leveldown@@UEAAPEAXI@Z@4HA 00000001800541a8 f   iterator_async.obj
 0001:000531a8       ?dtor$2@?0???_GDestroyWorker@leveldown@@UEAAPEAXI@Z@4HA 00000001800541a8 f   leveldown_async.obj
 0001:000531a8       ?dtor$2@?0???_GRepairWorker@leveldown@@UEAAPEAXI@Z@4HA 00000001800541a8 f   leveldown_async.obj
 0001:000531a8       ?dtor$2@?0???_GOpenWorker@leveldown@@UEAAPEAXI@Z@4HA 00000001800541a8 f   database_async.obj
 0001:000531a8       ?dtor$2@?0???1IOWorker@leveldown@@UEAA@XZ@4HA 00000001800541a8 f   database_async.obj
 0001:000531a8       ?dtor$2@?0???_GApproximateSizeWorker@leveldown@@UEAAPEAXI@Z@4HA 00000001800541a8 f   database_async.obj
 0001:000531a8       ?dtor$2@?0???_GBatchWorker@leveldown@@UEAAPEAXI@Z@4HA 00000001800541a8 f   database_async.obj
 0001:000531a8       ?dtor$2@?0???_GCloseWorker@leveldown@@UEAAPEAXI@Z@4HA 00000001800541a8 f   database_async.obj
 0001:000531a8       ?dtor$2@?0???_GCompactRangeWorker@leveldown@@UEAAPEAXI@Z@4HA 00000001800541a8 f   database_async.obj
 0001:000531a8       ?dtor$2@?0???_GIOWorker@leveldown@@UEAAPEAXI@Z@4HA 00000001800541a8 f   database_async.obj
 0001:000531c0       ?dtor$0@?0??Execute@OpenWorker@leveldown@@UEAAXXZ@4HA 00000001800541c0 f   database_async.obj
 0001:000531c0       ?dtor$0@?0??Execute@BatchWorker@leveldown@@UEAAXXZ@4HA 00000001800541c0 f   database_async.obj
 0001:000531c0       ?dtor$0@?0??Execute@NextWorker@leveldown@@UEAAXXZ@4HA 00000001800541c0 f   iterator_async.obj
 0001:000531c0       ?dtor$0@?0??Execute@BatchWriteWorker@leveldown@@UEAAXXZ@4HA 00000001800541c0 f   batch_async.obj
 0001:000531d0       ?dtor$0@?0???__Fdatabase_constructor@leveldown@@YAXXZ@4HA 00000001800541d0 f   database.obj
 0001:000531d0       ?dtor$0@?0???__Edatabase_constructor@leveldown@@YAXXZ@4HA 00000001800541d0 f   database.obj
 0001:000531e0       ?dtor$0@?0???_GDatabase@leveldown@@UEAAPEAXI@Z@4HA 00000001800541e0 f   database.obj
 0001:000531ec       ?dtor$1@?0???_GDatabase@leveldown@@UEAAPEAXI@Z@4HA 00000001800541ec f   database.obj
 0001:000531fc       ?dtor$2@?0???_GDatabase@leveldown@@UEAAPEAXI@Z@4HA 00000001800541fc f   database.obj
 0001:00053208       ?dtor$3@?0???_GDatabase@leveldown@@UEAAPEAXI@Z@4HA 0000000180054208 f   database.obj
 0001:00053220       ?dtor$0@?0???1?$map@IPEAVIterator@leveldown@@U?$less@I@std@@V?$allocator@U?$pair@$$CBIPEAVIterator@leveldown@@@std@@@4@@std@@QEAA@XZ@4HA 0000000180054220 f   database.obj
 0001:0005322c       ?dtor$1@?0???1?$map@IPEAVIterator@leveldown@@U?$less@I@std@@V?$allocator@U?$pair@$$CBIPEAVIterator@leveldown@@@std@@@4@@std@@QEAA@XZ@4HA 000000018005422c f   database.obj
 0001:00053240       ?dtor$0@?0??OpenDatabase@Database@leveldown@@QEAA?AVStatus@leveldb@@PEAUOptions@4@@Z@4HA 0000000180054240 f   database.obj
 0001:0005324c       ?dtor$1@?0??OpenDatabase@Database@leveldown@@QEAA?AVStatus@leveldb@@PEAUOptions@4@@Z@4HA 000000018005424c f   database.obj
 0001:00053280       ?dtor$0@?0??PutToDatabase@Database@leveldown@@QEAA?AVStatus@leveldb@@PEAUWriteOptions@4@VSlice@4@1@Z@4HA 0000000180054280 f   database.obj
 0001:00053280       ?dtor$0@?0??GetFromDatabase@Database@leveldown@@QEAA?AVStatus@leveldb@@PEAUReadOptions@4@VSlice@4@AEAV?$basic_string@DU?$char_traits@D@std@@V?$allocator@D@2@@std@@@Z@4HA 0000000180054280 f   database.obj
 0001:00053280       ?dtor$0@?0??Put@DBImpl@leveldb@@UEAA?AVStatus@2@AEBUWriteOptions@2@AEBVSlice@2@1@Z@4HA 0000000180054280 f   leveldb:db_impl.obj
 0001:000532b0       ?dtor$0@?0??status@EmptyIterator@?A0x9acabe59@leveldb@@UEBA?AVStatus@3@XZ@4HA 00000001800542b0 f   leveldb:iterator.obj
 0001:000532b0       ?dtor$0@?0??status@Iter@Block@leveldb@@UEBA?AVStatus@3@XZ@4HA 00000001800542b0 f   leveldb:block.obj
 0001:000532b0       ?dtor$0@?0??status@DBIter@?A0xbc53bea3@leveldb@@UEBA?AVStatus@3@XZ@4HA 00000001800542b0 f   leveldb:db_iter.obj
 0001:000532b0       ?dtor$0@?0??status@IteratorWrapper@leveldb@@QEBA?AVStatus@2@XZ@4HA 00000001800542b0 f   leveldb:merger.obj
 0001:000532b0       ?dtor$0@?0??IteratorStatus@Iterator@leveldown@@QEAA?AVStatus@leveldb@@XZ@4HA 00000001800542b0 f   iterator.obj
 0001:000532b0       ?dtor$0@?0??WriteBatchToDatabase@Database@leveldown@@QEAA?AVStatus@leveldb@@PEAUWriteOptions@4@PEAVWriteBatch@4@@Z@4HA 00000001800542b0 f   database.obj
 0001:000532b0       ?dtor$0@?0??DeleteFromDatabase@Database@leveldown@@QEAA?AVStatus@leveldb@@PEAUWriteOptions@4@VSlice@4@@Z@4HA 00000001800542b0 f   database.obj
 0001:000532e0       ?dtor$1@?0??LevelDOWN@leveldown@@YAXAEBV?$FunctionCallbackInfo@VValue@v8@@@Nan@@@Z@4HA 00000001800542e0 f   database.obj
 0001:000532ee       ?dtor$0@?0??LevelDOWN@leveldown@@YAXAEBV?$FunctionCallbackInfo@VValue@v8@@@Nan@@@Z@4HA 00000001800542ee f   database.obj
 0001:000532fa       ?dtor$2@?0??LevelDOWN@leveldown@@YAXAEBV?$FunctionCallbackInfo@VValue@v8@@@Nan@@@Z@4HA 00000001800542fa f   database.obj
 0001:00053308       ?dtor$3@?0??LevelDOWN@leveldown@@YAXAEBV?$FunctionCallbackInfo@VValue@v8@@@Nan@@@Z@4HA 0000000180054308 f   database.obj
 0001:00053316       ?dtor$4@?0??LevelDOWN@leveldown@@YAXAEBV?$FunctionCallbackInfo@VValue@v8@@@Nan@@@Z@4HA 0000000180054316 f   database.obj
 0001:00053324       ?dtor$5@?0??LevelDOWN@leveldown@@YAXAEBV?$FunctionCallbackInfo@VValue@v8@@@Nan@@@Z@4HA 0000000180054324 f   database.obj
 0001:00053340       ?dtor$0@?0??New@Database@leveldown@@CAXAEBV?$FunctionCallbackInfo@VValue@v8@@@Nan@@@Z@4HA 0000000180054340 f   database.obj
 0001:0005335d       ?dtor$5@?0??New@Database@leveldown@@CAXAEBV?$FunctionCallbackInfo@VValue@v8@@@Nan@@@Z@4HA 000000018005435d f   database.obj
 0001:00053369       ?dtor$4@?0??New@Database@leveldown@@CAXAEBV?$FunctionCallbackInfo@VValue@v8@@@Nan@@@Z@4HA 0000000180054369 f   database.obj
 0001:00053379       ?dtor$1@?0??New@Database@leveldown@@CAXAEBV?$FunctionCallbackInfo@VValue@v8@@@Nan@@@Z@4HA 0000000180054379 f   database.obj
 0001:00053385       ?dtor$2@?0??New@Database@leveldown@@CAXAEBV?$FunctionCallbackInfo@VValue@v8@@@Nan@@@Z@4HA 0000000180054385 f   database.obj
 0001:000533a2       ?dtor$7@?0??New@Database@leveldown@@CAXAEBV?$FunctionCallbackInfo@VValue@v8@@@Nan@@@Z@4HA 00000001800543a2 f   database.obj
 0001:000533ae       ?dtor$6@?0??New@Database@leveldown@@CAXAEBV?$FunctionCallbackInfo@VValue@v8@@@Nan@@@Z@4HA 00000001800543ae f   database.obj
 0001:000533ba       ?dtor$3@?0??New@Database@leveldown@@CAXAEBV?$FunctionCallbackInfo@VValue@v8@@@Nan@@@Z@4HA 00000001800543ba f   database.obj
 0001:000533d0       ?dtor$2@?0??Open@Database@leveldown@@CAXAEBV?$FunctionCallbackInfo@VValue@v8@@@Nan@@@Z@4HA 00000001800543d0 f   database.obj
 0001:000533ed       ?dtor$3@?0??Open@Database@leveldown@@CAXAEBV?$FunctionCallbackInfo@VValue@v8@@@Nan@@@Z@4HA 00000001800543ed f   database.obj
 0001:000533f9       ?dtor$0@?0??Open@Database@leveldown@@CAXAEBV?$FunctionCallbackInfo@VValue@v8@@@Nan@@@Z@4HA 00000001800543f9 f   database.obj
 0001:00053416       ?dtor$1@?0??Open@Database@leveldown@@CAXAEBV?$FunctionCallbackInfo@VValue@v8@@@Nan@@@Z@4HA 0000000180054416 f   database.obj
 0001:00053433       ?dtor$5@?0??Open@Database@leveldown@@CAXAEBV?$FunctionCallbackInfo@VValue@v8@@@Nan@@@Z@4HA 0000000180054433 f   database.obj
 0001:0005343f       ?dtor$4@?0??Open@Database@leveldown@@CAXAEBV?$FunctionCallbackInfo@VValue@v8@@@Nan@@@Z@4HA 000000018005443f f   database.obj
 0001:0005344b       ?dtor$6@?0??Open@Database@leveldown@@CAXAEBV?$FunctionCallbackInfo@VValue@v8@@@Nan@@@Z@4HA 000000018005444b f   database.obj
 0001:00053457       ?dtor$7@?0??Open@Database@leveldown@@CAXAEBV?$FunctionCallbackInfo@VValue@v8@@@Nan@@@Z@4HA 0000000180054457 f   database.obj
 0001:00053474       ?dtor$9@?0??Open@Database@leveldown@@CAXAEBV?$FunctionCallbackInfo@VValue@v8@@@Nan@@@Z@4HA 0000000180054474 f   database.obj
 0001:00053482       ?dtor$8@?0??Open@Database@leveldown@@CAXAEBV?$FunctionCallbackInfo@VValue@v8@@@Nan@@@Z@4HA 0000000180054482 f   database.obj
 0001:0005348e       ?dtor$10@?0??Open@Database@leveldown@@CAXAEBV?$FunctionCallbackInfo@VValue@v8@@@Nan@@@Z@4HA 000000018005448e f   database.obj
 0001:000534a0       ?dtor$0@?0??Close@Database@leveldown@@CAXAEBV?$FunctionCallbackInfo@VValue@v8@@@Nan@@@Z@4HA 00000001800544a0 f   database.obj
 0001:000534bd       ?dtor$1@?0??Close@Database@leveldown@@CAXAEBV?$FunctionCallbackInfo@VValue@v8@@@Nan@@@Z@4HA 00000001800544bd f   database.obj
 0001:000534da       ?dtor$4@?0??Close@Database@leveldown@@CAXAEBV?$FunctionCallbackInfo@VValue@v8@@@Nan@@@Z@4HA 00000001800544da f   database.obj
 0001:000534e6       ?dtor$3@?0??Close@Database@leveldown@@CAXAEBV?$FunctionCallbackInfo@VValue@v8@@@Nan@@@Z@4HA 00000001800544e6 f   database.obj
 0001:000534f2       ?dtor$5@?0??Close@Database@leveldown@@CAXAEBV?$FunctionCallbackInfo@VValue@v8@@@Nan@@@Z@4HA 00000001800544f2 f   database.obj
 0001:000534fe       ?dtor$7@?0??Close@Database@leveldown@@CAXAEBV?$FunctionCallbackInfo@VValue@v8@@@Nan@@@Z@4HA 00000001800544fe f   database.obj
 0001:0005350c       ?dtor$6@?0??Close@Database@leveldown@@CAXAEBV?$FunctionCallbackInfo@VValue@v8@@@Nan@@@Z@4HA 000000018005450c f   database.obj
 0001:00053518       ?dtor$8@?0??Close@Database@leveldown@@CAXAEBV?$FunctionCallbackInfo@VValue@v8@@@Nan@@@Z@4HA 0000000180054518 f   database.obj
 0001:00053526       ?dtor$2@?0??Close@Database@leveldown@@CAXAEBV?$FunctionCallbackInfo@VValue@v8@@@Nan@@@Z@4HA 0000000180054526 f   database.obj
 0001:00053540       ?dtor$0@?0??Put@Database@leveldown@@CAXAEBV?$FunctionCallbackInfo@VValue@v8@@@Nan@@@Z@4HA 0000000180054540 f   database.obj
 0001:00053560       ?dtor$1@?0??Put@Database@leveldown@@CAXAEBV?$FunctionCallbackInfo@VValue@v8@@@Nan@@@Z@4HA 0000000180054560 f   database.obj
 0001:00053580       ?dtor$3@?0??Put@Database@leveldown@@CAXAEBV?$FunctionCallbackInfo@VValue@v8@@@Nan@@@Z@4HA 0000000180054580 f   database.obj
 0001:0005358c       ?dtor$2@?0??Put@Database@leveldown@@CAXAEBV?$FunctionCallbackInfo@VValue@v8@@@Nan@@@Z@4HA 000000018005458c f   database.obj
 0001:00053598       ?dtor$4@?0??Put@Database@leveldown@@CAXAEBV?$FunctionCallbackInfo@VValue@v8@@@Nan@@@Z@4HA 0000000180054598 f   database.obj
 0001:000535a4       ?dtor$6@?0??Put@Database@leveldown@@CAXAEBV?$FunctionCallbackInfo@VValue@v8@@@Nan@@@Z@4HA 00000001800545a4 f   database.obj
 0001:000535b2       ?dtor$5@?0??Put@Database@leveldown@@CAXAEBV?$FunctionCallbackInfo@VValue@v8@@@Nan@@@Z@4HA 00000001800545b2 f   database.obj
 0001:000535be       ?dtor$8@?0??Put@Database@leveldown@@CAXAEBV?$FunctionCallbackInfo@VValue@v8@@@Nan@@@Z@4HA 00000001800545be f   database.obj
 0001:000535cc       ?dtor$7@?0??Put@Database@leveldown@@CAXAEBV?$FunctionCallbackInfo@VValue@v8@@@Nan@@@Z@4HA 00000001800545cc f   database.obj
 0001:000535d8       ?dtor$9@?0??Put@Database@leveldown@@CAXAEBV?$FunctionCallbackInfo@VValue@v8@@@Nan@@@Z@4HA 00000001800545d8 f   database.obj
 0001:000535e6       ?dtor$10@?0??Put@Database@leveldown@@CAXAEBV?$FunctionCallbackInfo@VValue@v8@@@Nan@@@Z@4HA 00000001800545e6 f   database.obj
 0001:000535f4       ?dtor$12@?0??Put@Database@leveldown@@CAXAEBV?$FunctionCallbackInfo@VValue@v8@@@Nan@@@Z@4HA 00000001800545f4 f   database.obj
 0001:00053602       ?dtor$11@?0??Put@Database@leveldown@@CAXAEBV?$FunctionCallbackInfo@VValue@v8@@@Nan@@@Z@4HA 0000000180054602 f   database.obj
 0001:0005360e       ?dtor$13@?0??Put@Database@leveldown@@CAXAEBV?$FunctionCallbackInfo@VValue@v8@@@Nan@@@Z@4HA 000000018005460e f   database.obj
 0001:00053620       ?dtor$0@?0??Get@Database@leveldown@@CAXAEBV?$FunctionCallbackInfo@VValue@v8@@@Nan@@@Z@4HA 0000000180054620 f   database.obj
 0001:00053640       ?dtor$1@?0??Get@Database@leveldown@@CAXAEBV?$FunctionCallbackInfo@VValue@v8@@@Nan@@@Z@4HA 0000000180054640 f   database.obj
 0001:00053660       ?dtor$3@?0??Get@Database@leveldown@@CAXAEBV?$FunctionCallbackInfo@VValue@v8@@@Nan@@@Z@4HA 0000000180054660 f   database.obj
 0001:0005366c       ?dtor$2@?0??Get@Database@leveldown@@CAXAEBV?$FunctionCallbackInfo@VValue@v8@@@Nan@@@Z@4HA 000000018005466c f   database.obj
 0001:00053678       ?dtor$5@?0??Get@Database@leveldown@@CAXAEBV?$FunctionCallbackInfo@VValue@v8@@@Nan@@@Z@4HA 0000000180054678 f   database.obj
 0001:00053686       ?dtor$4@?0??Get@Database@leveldown@@CAXAEBV?$FunctionCallbackInfo@VValue@v8@@@Nan@@@Z@4HA 0000000180054686 f   database.obj
 0001:00053692       ?dtor$6@?0??Get@Database@leveldown@@CAXAEBV?$FunctionCallbackInfo@VValue@v8@@@Nan@@@Z@4HA 0000000180054692 f   database.obj
 0001:000536a0       ?dtor$0@?0??Delete@Database@leveldown@@CAXAEBV?$FunctionCallbackInfo@VValue@v8@@@Nan@@@Z@4HA 00000001800546a0 f   database.obj
 0001:000536c0       ?dtor$1@?0??Delete@Database@leveldown@@CAXAEBV?$FunctionCallbackInfo@VValue@v8@@@Nan@@@Z@4HA 00000001800546c0 f   database.obj
 0001:000536e0       ?dtor$3@?0??Delete@Database@leveldown@@CAXAEBV?$FunctionCallbackInfo@VValue@v8@@@Nan@@@Z@4HA 00000001800546e0 f   database.obj
 0001:000536ec       ?dtor$2@?0??Delete@Database@leveldown@@CAXAEBV?$FunctionCallbackInfo@VValue@v8@@@Nan@@@Z@4HA 00000001800546ec f   database.obj
 0001:000536f8       ?dtor$5@?0??Delete@Database@leveldown@@CAXAEBV?$FunctionCallbackInfo@VValue@v8@@@Nan@@@Z@4HA 00000001800546f8 f   database.obj
 0001:00053706       ?dtor$4@?0??Delete@Database@leveldown@@CAXAEBV?$FunctionCallbackInfo@VValue@v8@@@Nan@@@Z@4HA 0000000180054706 f   database.obj
 0001:00053712       ?dtor$6@?0??Delete@Database@leveldown@@CAXAEBV?$FunctionCallbackInfo@VValue@v8@@@Nan@@@Z@4HA 0000000180054712 f   database.obj
 0001:00053720       ?dtor$0@?0??Batch@Database@leveldown@@CAXAEBV?$FunctionCallbackInfo@VValue@v8@@@Nan@@@Z@4HA 0000000180054720 f   database.obj
 0001:0005373d       ?dtor$1@?0??Batch@Database@leveldown@@CAXAEBV?$FunctionCallbackInfo@VValue@v8@@@Nan@@@Z@4HA 000000018005473d f   database.obj
 0001:0005375d       ?dtor$2@?0??Batch@Database@leveldown@@CAXAEBV?$FunctionCallbackInfo@VValue@v8@@@Nan@@@Z@4HA 000000018005475d f   database.obj
 0001:0005377d       ?dtor$5@?0??Batch@Database@leveldown@@CAXAEBV?$FunctionCallbackInfo@VValue@v8@@@Nan@@@Z@4HA 000000018005477d f   database.obj
 0001:00053789       ?dtor$4@?0??Batch@Database@leveldown@@CAXAEBV?$FunctionCallbackInfo@VValue@v8@@@Nan@@@Z@4HA 0000000180054789 f   database.obj
 0001:00053795       ?dtor$6@?0??Batch@Database@leveldown@@CAXAEBV?$FunctionCallbackInfo@VValue@v8@@@Nan@@@Z@4HA 0000000180054795 f   database.obj
 0001:000537a1       ?dtor$7@?0??Batch@Database@leveldown@@CAXAEBV?$FunctionCallbackInfo@VValue@v8@@@Nan@@@Z@4HA 00000001800547a1 f   database.obj
 0001:000537c1       ?dtor$9@?0??Batch@Database@leveldown@@CAXAEBV?$FunctionCallbackInfo@VValue@v8@@@Nan@@@Z@4HA 00000001800547c1 f   database.obj
 0001:000537cf       ?dtor$8@?0??Batch@Database@leveldown@@CAXAEBV?$FunctionCallbackInfo@VValue@v8@@@Nan@@@Z@4HA 00000001800547cf f   database.obj
 0001:000537db       ?dtor$10@?0??Batch@Database@leveldown@@CAXAEBV?$FunctionCallbackInfo@VValue@v8@@@Nan@@@Z@4HA 00000001800547db f   database.obj
 0001:000537e9       ?dtor$3@?0??Batch@Database@leveldown@@CAXAEBV?$FunctionCallbackInfo@VValue@v8@@@Nan@@@Z@4HA 00000001800547e9 f   database.obj
 0001:00053800       ?dtor$0@?0??ApproximateSize@Database@leveldown@@CAXAEBV?$FunctionCallbackInfo@VValue@v8@@@Nan@@@Z@4HA 0000000180054800 f   database.obj
 0001:00053820       ?dtor$1@?0??ApproximateSize@Database@leveldown@@CAXAEBV?$FunctionCallbackInfo@VValue@v8@@@Nan@@@Z@4HA 0000000180054820 f   database.obj
 0001:00053840       ?dtor$3@?0??ApproximateSize@Database@leveldown@@CAXAEBV?$FunctionCallbackInfo@VValue@v8@@@Nan@@@Z@4HA 0000000180054840 f   database.obj
 0001:0005384c       ?dtor$2@?0??ApproximateSize@Database@leveldown@@CAXAEBV?$FunctionCallbackInfo@VValue@v8@@@Nan@@@Z@4HA 000000018005484c f   database.obj
 0001:00053858       ?dtor$5@?0??ApproximateSize@Database@leveldown@@CAXAEBV?$FunctionCallbackInfo@VValue@v8@@@Nan@@@Z@4HA 0000000180054858 f   database.obj
 0001:00053866       ?dtor$4@?0??ApproximateSize@Database@leveldown@@CAXAEBV?$FunctionCallbackInfo@VValue@v8@@@Nan@@@Z@4HA 0000000180054866 f   database.obj
 0001:00053872       ?dtor$6@?0??ApproximateSize@Database@leveldown@@CAXAEBV?$FunctionCallbackInfo@VValue@v8@@@Nan@@@Z@4HA 0000000180054872 f   database.obj
 0001:00053880       ?dtor$0@?0??CompactRange@Database@leveldown@@CAXAEBV?$FunctionCallbackInfo@VValue@v8@@@Nan@@@Z@4HA 0000000180054880 f   database.obj
 0001:000538a0       ?dtor$1@?0??CompactRange@Database@leveldown@@CAXAEBV?$FunctionCallbackInfo@VValue@v8@@@Nan@@@Z@4HA 00000001800548a0 f   database.obj
 0001:000538c0       ?dtor$3@?0??CompactRange@Database@leveldown@@CAXAEBV?$FunctionCallbackInfo@VValue@v8@@@Nan@@@Z@4HA 00000001800548c0 f   database.obj
 0001:000538cc       ?dtor$2@?0??CompactRange@Database@leveldown@@CAXAEBV?$FunctionCallbackInfo@VValue@v8@@@Nan@@@Z@4HA 00000001800548cc f   database.obj
 0001:000538d8       ?dtor$5@?0??CompactRange@Database@leveldown@@CAXAEBV?$FunctionCallbackInfo@VValue@v8@@@Nan@@@Z@4HA 00000001800548d8 f   database.obj
 0001:000538e6       ?dtor$4@?0??CompactRange@Database@leveldown@@CAXAEBV?$FunctionCallbackInfo@VValue@v8@@@Nan@@@Z@4HA 00000001800548e6 f   database.obj
 0001:000538f2       ?dtor$6@?0??CompactRange@Database@leveldown@@CAXAEBV?$FunctionCallbackInfo@VValue@v8@@@Nan@@@Z@4HA 00000001800548f2 f   database.obj
 0001:00053900       ?dtor$1@?0??Iterator@Database@leveldown@@CAXAEBV?$FunctionCallbackInfo@VValue@v8@@@Nan@@@Z@4HA 0000000180054900 f   database.obj
 0001:0005390e       ?dtor$0@?0??Iterator@Database@leveldown@@CAXAEBV?$FunctionCallbackInfo@VValue@v8@@@Nan@@@Z@4HA 000000018005490e f   database.obj
 0001:0005391a       ?dtor$2@?0??Iterator@Database@leveldown@@CAXAEBV?$FunctionCallbackInfo@VValue@v8@@@Nan@@@Z@4HA 000000018005491a f   database.obj
 0001:00053928       ?dtor$3@?0??Iterator@Database@leveldown@@CAXAEBV?$FunctionCallbackInfo@VValue@v8@@@Nan@@@Z@4HA 0000000180054928 f   database.obj
 0001:00053940       ?dtor$0@?0???1TryCatch@Nan@@QEAA@XZ@4HA 0000000180054940 f   database.obj
 0001:00053950       ?dtor$0@?0???1?$_Tree@V?$_Tmap_traits@IPEAVIterator@leveldown@@U?$less@I@std@@V?$allocator@U?$pair@$$CBIPEAVIterator@leveldown@@@std@@@4@$0A@@std@@@std@@QEAA@XZ@4HA 0000000180054950 f   database.obj
 0001:00053950       ?dtor$0@?0???1?$_Tree@V?$_Tset_traits@U?$pair@H_K@std@@U?$less@U?$pair@H_K@std@@@2@V?$allocator@U?$pair@H_K@std@@@2@$0A@@std@@@std@@QEAA@XZ@4HA 0000000180054950 f   leveldb:db_impl.obj
 0001:00053960       ?dtor$1@?0??GetFromPersistent@AsyncWorker@Nan@@QEBA?AV?$Local@VValue@v8@@@v8@@PEBD@Z@4HA 0000000180054960 f   database_async.obj
 0001:0005396e       ?dtor$0@?0??GetFromPersistent@AsyncWorker@Nan@@QEBA?AV?$Local@VValue@v8@@@v8@@PEBD@Z@4HA 000000018005496e f   database_async.obj
 0001:0005397a       ?dtor$2@?0??GetFromPersistent@AsyncWorker@Nan@@QEBA?AV?$Local@VValue@v8@@@v8@@PEBD@Z@4HA 000000018005497a f   database_async.obj
 0001:00053988       ?dtor$3@?0??GetFromPersistent@AsyncWorker@Nan@@QEBA?AV?$Local@VValue@v8@@@v8@@PEBD@Z@4HA 0000000180054988 f   database_async.obj
 0001:000539a0       ?dtor$0@?0???_GWriteWorker@leveldown@@UEAAPEAXI@Z@4HA 00000001800549a0 f   database_async.obj
 0001:000539ac       ?dtor$1@?0???_GWriteWorker@leveldown@@UEAAPEAXI@Z@4HA 00000001800549ac f   database_async.obj
 0001:000539b8       ?dtor$2@?0???_GWriteWorker@leveldown@@UEAAPEAXI@Z@4HA 00000001800549b8 f   database_async.obj
 0001:000539c4       ?dtor$3@?0???_GWriteWorker@leveldown@@UEAAPEAXI@Z@4HA 00000001800549c4 f   database_async.obj
 0001:000539d0       ?dtor$4@?0???_GWriteWorker@leveldown@@UEAAPEAXI@Z@4HA 00000001800549d0 f   database_async.obj
 0001:000539f0       ?dtor$0@?0???0IOWorker@leveldown@@QEAA@PEAVDatabase@1@PEAVCallback@Nan@@PEBDVSlice@leveldb@@AEAV?$Local@VObject@v8@@@v8@@@Z@4HA 00000001800549f0 f   database_async.obj
 0001:000539fc       ?dtor$2@?0???0IOWorker@leveldown@@QEAA@PEAVDatabase@1@PEAVCallback@Nan@@PEBDVSlice@leveldb@@AEAV?$Local@VObject@v8@@@v8@@@Z@4HA 00000001800549fc f   database_async.obj
 0001:00053a0a       ?dtor$1@?0???0IOWorker@leveldown@@QEAA@PEAVDatabase@1@PEAVCallback@Nan@@PEBDVSlice@leveldb@@AEAV?$Local@VObject@v8@@@v8@@@Z@4HA 0000000180054a0a f   database_async.obj
 0001:00053a16       ?dtor$4@?0???0IOWorker@leveldown@@QEAA@PEAVDatabase@1@PEAVCallback@Nan@@PEBDVSlice@leveldb@@AEAV?$Local@VObject@v8@@@v8@@@Z@4HA 0000000180054a16 f   database_async.obj
 0001:00053a24       ?dtor$3@?0???0IOWorker@leveldown@@QEAA@PEAVDatabase@1@PEAVCallback@Nan@@PEBDVSlice@leveldb@@AEAV?$Local@VObject@v8@@@v8@@@Z@4HA 0000000180054a24 f   database_async.obj
 0001:00053a30       ?dtor$5@?0???0IOWorker@leveldown@@QEAA@PEAVDatabase@1@PEAVCallback@Nan@@PEBDVSlice@leveldb@@AEAV?$Local@VObject@v8@@@v8@@@Z@4HA 0000000180054a30 f   database_async.obj
 0001:00053a3e       ?dtor$6@?0???0IOWorker@leveldown@@QEAA@PEAVDatabase@1@PEAVCallback@Nan@@PEBDVSlice@leveldb@@AEAV?$Local@VObject@v8@@@v8@@@Z@4HA 0000000180054a3e f   database_async.obj
 0001:00053a50       ?dtor$1@?0??WorkComplete@CompactRangeWorker@leveldown@@UEAAXXZ@4HA 0000000180054a50 f   database_async.obj
 0001:00053a50       ?dtor$1@?0??WorkComplete@ApproximateSizeWorker@leveldown@@UEAAXXZ@4HA 0000000180054a50 f   database_async.obj
 0001:00053a50       ?dtor$1@?0??WorkComplete@IOWorker@leveldown@@UEAAXXZ@4HA 0000000180054a50 f   database_async.obj
 0001:00053a5e       ?dtor$0@?0??WorkComplete@ApproximateSizeWorker@leveldown@@UEAAXXZ@4HA 0000000180054a5e f   database_async.obj
 0001:00053a5e       ?dtor$0@?0??WorkComplete@IOWorker@leveldown@@UEAAXXZ@4HA 0000000180054a5e f   database_async.obj
 0001:00053a5e       ?dtor$0@?0??WorkComplete@CompactRangeWorker@leveldown@@UEAAXXZ@4HA 0000000180054a5e f   database_async.obj
 0001:00053a6a       ?dtor$2@?0??WorkComplete@CompactRangeWorker@leveldown@@UEAAXXZ@4HA 0000000180054a6a f   database_async.obj
 0001:00053a6a       ?dtor$2@?0??WorkComplete@IOWorker@leveldown@@UEAAXXZ@4HA 0000000180054a6a f   database_async.obj
 0001:00053a6a       ?dtor$2@?0??WorkComplete@ApproximateSizeWorker@leveldown@@UEAAXXZ@4HA 0000000180054a6a f   database_async.obj
 0001:00053a80       ?dtor$4@?0???0ReadWorker@leveldown@@QEAA@PEAVDatabase@1@PEAVCallback@Nan@@VSlice@leveldb@@_N3AEAV?$Local@VObject@v8@@@v8@@@Z@4HA 0000000180054a80 f   database_async.obj
 0001:00053a8c       ?dtor$6@?0???0ReadWorker@leveldown@@QEAA@PEAVDatabase@1@PEAVCallback@Nan@@VSlice@leveldb@@_N3AEAV?$Local@VObject@v8@@@v8@@@Z@4HA 0000000180054a8c f   database_async.obj
 0001:00053a9a       ?dtor$5@?0???0ReadWorker@leveldown@@QEAA@PEAVDatabase@1@PEAVCallback@Nan@@VSlice@leveldb@@_N3AEAV?$Local@VObject@v8@@@v8@@@Z@4HA 0000000180054a9a f   database_async.obj
 0001:00053aa6       ?dtor$8@?0???0ReadWorker@leveldown@@QEAA@PEAVDatabase@1@PEAVCallback@Nan@@VSlice@leveldb@@_N3AEAV?$Local@VObject@v8@@@v8@@@Z@4HA 0000000180054aa6 f   database_async.obj
 0001:00053ab4       ?dtor$7@?0???0ReadWorker@leveldown@@QEAA@PEAVDatabase@1@PEAVCallback@Nan@@VSlice@leveldb@@_N3AEAV?$Local@VObject@v8@@@v8@@@Z@4HA 0000000180054ab4 f   database_async.obj
 0001:00053ac0       ?dtor$9@?0???0ReadWorker@leveldown@@QEAA@PEAVDatabase@1@PEAVCallback@Nan@@VSlice@leveldb@@_N3AEAV?$Local@VObject@v8@@@v8@@@Z@4HA 0000000180054ac0 f   database_async.obj
 0001:00053ace       ?dtor$10@?0???0ReadWorker@leveldown@@QEAA@PEAVDatabase@1@PEAVCallback@Nan@@VSlice@leveldb@@_N3AEAV?$Local@VObject@v8@@@v8@@@Z@4HA 0000000180054ace f   database_async.obj
 0001:00053adc       ?dtor$0@?0???0ReadWorker@leveldown@@QEAA@PEAVDatabase@1@PEAVCallback@Nan@@VSlice@leveldb@@_N3AEAV?$Local@VObject@v8@@@v8@@@Z@4HA 0000000180054adc f   database_async.obj
 0001:00053ae8       ?dtor$1@?0???0ReadWorker@leveldown@@QEAA@PEAVDatabase@1@PEAVCallback@Nan@@VSlice@leveldb@@_N3AEAV?$Local@VObject@v8@@@v8@@@Z@4HA 0000000180054ae8 f   database_async.obj
 0001:00053afb       ?dtor$11@?0???0ReadWorker@leveldown@@QEAA@PEAVDatabase@1@PEAVCallback@Nan@@VSlice@leveldb@@_N3AEAV?$Local@VObject@v8@@@v8@@@Z@4HA 0000000180054afb f   database_async.obj
 0001:00053b09       ?dtor$2@?0???0ReadWorker@leveldown@@QEAA@PEAVDatabase@1@PEAVCallback@Nan@@VSlice@leveldb@@_N3AEAV?$Local@VObject@v8@@@v8@@@Z@4HA 0000000180054b09 f   database_async.obj
 0001:00053b15       ?dtor$3@?0???0ReadWorker@leveldown@@QEAA@PEAVDatabase@1@PEAVCallback@Nan@@VSlice@leveldb@@_N3AEAV?$Local@VObject@v8@@@v8@@@Z@4HA 0000000180054b15 f   database_async.obj
 0001:00053b35       ?dtor$13@?0???0ReadWorker@leveldown@@QEAA@PEAVDatabase@1@PEAVCallback@Nan@@VSlice@leveldb@@_N3AEAV?$Local@VObject@v8@@@v8@@@Z@4HA 0000000180054b35 f   database_async.obj
 0001:00053b43       ?dtor$12@?0???0ReadWorker@leveldown@@QEAA@PEAVDatabase@1@PEAVCallback@Nan@@VSlice@leveldb@@_N3AEAV?$Local@VObject@v8@@@v8@@@Z@4HA 0000000180054b43 f   database_async.obj
 0001:00053b4f       ?dtor$14@?0???0ReadWorker@leveldown@@QEAA@PEAVDatabase@1@PEAVCallback@Nan@@VSlice@leveldb@@_N3AEAV?$Local@VObject@v8@@@v8@@@Z@4HA 0000000180054b4f f   database_async.obj
 0001:00053b5d       ?dtor$15@?0???0ReadWorker@leveldown@@QEAA@PEAVDatabase@1@PEAVCallback@Nan@@VSlice@leveldb@@_N3AEAV?$Local@VObject@v8@@@v8@@@Z@4HA 0000000180054b5d f   database_async.obj
 0001:00053b70       ?dtor$0@?0???_GReadWorker@leveldown@@UEAAPEAXI@Z@4HA 0000000180054b70 f   database_async.obj
 0001:00053b7c       ?dtor$1@?0???_GReadWorker@leveldown@@UEAAPEAXI@Z@4HA 0000000180054b7c f   database_async.obj
 0001:00053b8f       ?dtor$2@?0???_GReadWorker@leveldown@@UEAAPEAXI@Z@4HA 0000000180054b8f f   database_async.obj
 0001:00053b9b       ?dtor$3@?0???_GReadWorker@leveldown@@UEAAPEAXI@Z@4HA 0000000180054b9b f   database_async.obj
 0001:00053ba7       ?dtor$4@?0???_GReadWorker@leveldown@@UEAAPEAXI@Z@4HA 0000000180054ba7 f   database_async.obj
 0001:00053bc0       ?dtor$0@?0??Execute@ReadWorker@leveldown@@UEAAXXZ@4HA 0000000180054bc0 f   database_async.obj
 0001:00053bd0       ?dtor$1@?0??HandleOKCallback@ApproximateSizeWorker@leveldown@@UEAAXXZ@4HA 0000000180054bd0 f   database_async.obj
 0001:00053bd0       ?dtor$1@?0??HandleOKCallback@ReadWorker@leveldown@@UEAAXXZ@4HA 0000000180054bd0 f   database_async.obj
 0001:00053bde       ?dtor$0@?0??HandleOKCallback@ApproximateSizeWorker@leveldown@@UEAAXXZ@4HA 0000000180054bde f   database_async.obj
 0001:00053bde       ?dtor$0@?0??HandleOKCallback@ReadWorker@leveldown@@UEAAXXZ@4HA 0000000180054bde f   database_async.obj
 0001:00053bea       ?dtor$2@?0??HandleOKCallback@ReadWorker@leveldown@@UEAAXXZ@4HA 0000000180054bea f   database_async.obj
 0001:00053bea       ?dtor$2@?0??HandleOKCallback@ApproximateSizeWorker@leveldown@@UEAAXXZ@4HA 0000000180054bea f   database_async.obj
 0001:00053c00       ?dtor$0@?0???0DeleteWorker@leveldown@@QEAA@PEAVDatabase@1@PEAVCallback@Nan@@VSlice@leveldb@@_NAEAV?$Local@VObject@v8@@@v8@@PEBD@Z@4HA 0000000180054c00 f   database_async.obj
 0001:00053c0c       ?dtor$3@?0???0DeleteWorker@leveldown@@QEAA@PEAVDatabase@1@PEAVCallback@Nan@@VSlice@leveldb@@_NAEAV?$Local@VObject@v8@@@v8@@PEBD@Z@4HA 0000000180054c0c f   database_async.obj
 0001:00053c1a       ?dtor$1@?0???0DeleteWorker@leveldown@@QEAA@PEAVDatabase@1@PEAVCallback@Nan@@VSlice@leveldb@@_NAEAV?$Local@VObject@v8@@@v8@@PEBD@Z@4HA 0000000180054c1a f   database_async.obj
 0001:00053c26       ?dtor$2@?0???0DeleteWorker@leveldown@@QEAA@PEAVDatabase@1@PEAVCallback@Nan@@VSlice@leveldb@@_NAEAV?$Local@VObject@v8@@@v8@@PEBD@Z@4HA 0000000180054c26 f   database_async.obj
 0001:00053c46       ?dtor$5@?0???0DeleteWorker@leveldown@@QEAA@PEAVDatabase@1@PEAVCallback@Nan@@VSlice@leveldb@@_NAEAV?$Local@VObject@v8@@@v8@@PEBD@Z@4HA 0000000180054c46 f   database_async.obj
 0001:00053c54       ?dtor$4@?0???0DeleteWorker@leveldown@@QEAA@PEAVDatabase@1@PEAVCallback@Nan@@VSlice@leveldb@@_NAEAV?$Local@VObject@v8@@@v8@@PEBD@Z@4HA 0000000180054c54 f   database_async.obj
 0001:00053c60       ?dtor$6@?0???0DeleteWorker@leveldown@@QEAA@PEAVDatabase@1@PEAVCallback@Nan@@VSlice@leveldb@@_NAEAV?$Local@VObject@v8@@@v8@@PEBD@Z@4HA 0000000180054c60 f   database_async.obj
 0001:00053c6e       ?dtor$7@?0???0DeleteWorker@leveldown@@QEAA@PEAVDatabase@1@PEAVCallback@Nan@@VSlice@leveldb@@_NAEAV?$Local@VObject@v8@@@v8@@PEBD@Z@4HA 0000000180054c6e f   database_async.obj
 0001:00053c80       ?dtor$0@?0???1DeleteWorker@leveldown@@UEAA@XZ@4HA 0000000180054c80 f   database_async.obj
 0001:00053c80       ?dtor$0@?0???_GDeleteWorker@leveldown@@UEAAPEAXI@Z@4HA 0000000180054c80 f   database_async.obj
 0001:00053c8c       ?dtor$1@?0???_GDeleteWorker@leveldown@@UEAAPEAXI@Z@4HA 0000000180054c8c f   database_async.obj
 0001:00053c8c       ?dtor$1@?0???1DeleteWorker@leveldown@@UEAA@XZ@4HA 0000000180054c8c f   database_async.obj
 0001:00053c98       ?dtor$2@?0???1DeleteWorker@leveldown@@UEAA@XZ@4HA 0000000180054c98 f   database_async.obj
 0001:00053c98       ?dtor$2@?0???_GDeleteWorker@leveldown@@UEAAPEAXI@Z@4HA 0000000180054c98 f   database_async.obj
 0001:00053ca4       ?dtor$3@?0???_GDeleteWorker@leveldown@@UEAAPEAXI@Z@4HA 0000000180054ca4 f   database_async.obj
 0001:00053ca4       ?dtor$3@?0???1DeleteWorker@leveldown@@UEAA@XZ@4HA 0000000180054ca4 f   database_async.obj
 0001:00053cc0       ?dtor$0@?0??Execute@DeleteWorker@leveldown@@UEAAXXZ@4HA 0000000180054cc0 f   database_async.obj
 0001:00053cd0       ?dtor$0@?0??Execute@WriteWorker@leveldown@@UEAAXXZ@4HA 0000000180054cd0 f   database_async.obj
 0001:00053ce0       ?dtor$1@?0??WorkComplete@WriteWorker@leveldown@@UEAAXXZ@4HA 0000000180054ce0 f   database_async.obj
 0001:00053cee       ?dtor$0@?0??WorkComplete@WriteWorker@leveldown@@UEAAXXZ@4HA 0000000180054cee f   database_async.obj
 0001:00053cfa       ?dtor$3@?0??WorkComplete@WriteWorker@leveldown@@UEAAXXZ@4HA 0000000180054cfa f   database_async.obj
 0001:00053d08       ?dtor$2@?0??WorkComplete@WriteWorker@leveldown@@UEAAXXZ@4HA 0000000180054d08 f   database_async.obj
 0001:00053d14       ?dtor$4@?0??WorkComplete@WriteWorker@leveldown@@UEAAXXZ@4HA 0000000180054d14 f   database_async.obj
 0001:00053d22       ?dtor$5@?0??WorkComplete@WriteWorker@leveldown@@UEAAXXZ@4HA 0000000180054d22 f   database_async.obj
 0001:00053d30       ?dtor$0@?0???0ApproximateSizeWorker@leveldown@@QEAA@PEAVDatabase@1@PEAVCallback@Nan@@VSlice@leveldb@@2AEAV?$Local@VObject@v8@@@v8@@3@Z@4HA 0000000180054d30 f   database_async.obj
 0001:00053d30       ?dtor$0@?0???0CompactRangeWorker@leveldown@@QEAA@PEAVDatabase@1@PEAVCallback@Nan@@VSlice@leveldb@@2AEAV?$Local@VObject@v8@@@v8@@3@Z@4HA 0000000180054d30 f   database_async.obj
 0001:00053d3c       ?dtor$2@?0???0CompactRangeWorker@leveldown@@QEAA@PEAVDatabase@1@PEAVCallback@Nan@@VSlice@leveldb@@2AEAV?$Local@VObject@v8@@@v8@@3@Z@4HA 0000000180054d3c f   database_async.obj
 0001:00053d3c       ?dtor$2@?0???0ApproximateSizeWorker@leveldown@@QEAA@PEAVDatabase@1@PEAVCallback@Nan@@VSlice@leveldb@@2AEAV?$Local@VObject@v8@@@v8@@3@Z@4HA 0000000180054d3c f   database_async.obj
 0001:00053d4a       ?dtor$1@?0???0CompactRangeWorker@leveldown@@QEAA@PEAVDatabase@1@PEAVCallback@Nan@@VSlice@leveldb@@2AEAV?$Local@VObject@v8@@@v8@@3@Z@4HA 0000000180054d4a f   database_async.obj
 0001:00053d4a       ?dtor$1@?0???0ApproximateSizeWorker@leveldown@@QEAA@PEAVDatabase@1@PEAVCallback@Nan@@VSlice@leveldb@@2AEAV?$Local@VObject@v8@@@v8@@3@Z@4HA 0000000180054d4a f   database_async.obj
 0001:00053d56       ?dtor$4@?0???0CompactRangeWorker@leveldown@@QEAA@PEAVDatabase@1@PEAVCallback@Nan@@VSlice@leveldb@@2AEAV?$Local@VObject@v8@@@v8@@3@Z@4HA 0000000180054d56 f   database_async.obj
 0001:00053d56       ?dtor$4@?0???0ApproximateSizeWorker@leveldown@@QEAA@PEAVDatabase@1@PEAVCallback@Nan@@VSlice@leveldb@@2AEAV?$Local@VObject@v8@@@v8@@3@Z@4HA 0000000180054d56 f   database_async.obj
 0001:00053d64       ?dtor$3@?0???0ApproximateSizeWorker@leveldown@@QEAA@PEAVDatabase@1@PEAVCallback@Nan@@VSlice@leveldb@@2AEAV?$Local@VObject@v8@@@v8@@3@Z@4HA 0000000180054d64 f   database_async.obj
 0001:00053d64       ?dtor$3@?0???0CompactRangeWorker@leveldown@@QEAA@PEAVDatabase@1@PEAVCallback@Nan@@VSlice@leveldb@@2AEAV?$Local@VObject@v8@@@v8@@3@Z@4HA 0000000180054d64 f   database_async.obj
 0001:00053d70       ?dtor$5@?0???0CompactRangeWorker@leveldown@@QEAA@PEAVDatabase@1@PEAVCallback@Nan@@VSlice@leveldb@@2AEAV?$Local@VObject@v8@@@v8@@3@Z@4HA 0000000180054d70 f   database_async.obj
 0001:00053d70       ?dtor$5@?0???0ApproximateSizeWorker@leveldown@@QEAA@PEAVDatabase@1@PEAVCallback@Nan@@VSlice@leveldb@@2AEAV?$Local@VObject@v8@@@v8@@3@Z@4HA 0000000180054d70 f   database_async.obj
 0001:00053d7e       ?dtor$7@?0???0ApproximateSizeWorker@leveldown@@QEAA@PEAVDatabase@1@PEAVCallback@Nan@@VSlice@leveldb@@2AEAV?$Local@VObject@v8@@@v8@@3@Z@4HA 0000000180054d7e f   database_async.obj
 0001:00053d7e       ?dtor$7@?0???0CompactRangeWorker@leveldown@@QEAA@PEAVDatabase@1@PEAVCallback@Nan@@VSlice@leveldb@@2AEAV?$Local@VObject@v8@@@v8@@3@Z@4HA 0000000180054d7e f   database_async.obj
 0001:00053d8c       ?dtor$6@?0???0CompactRangeWorker@leveldown@@QEAA@PEAVDatabase@1@PEAVCallback@Nan@@VSlice@leveldb@@2AEAV?$Local@VObject@v8@@@v8@@3@Z@4HA 0000000180054d8c f   database_async.obj
 0001:00053d8c       ?dtor$6@?0???0ApproximateSizeWorker@leveldown@@QEAA@PEAVDatabase@1@PEAVCallback@Nan@@VSlice@leveldb@@2AEAV?$Local@VObject@v8@@@v8@@3@Z@4HA 0000000180054d8c f   database_async.obj
 0001:00053d98       ?dtor$8@?0???0ApproximateSizeWorker@leveldown@@QEAA@PEAVDatabase@1@PEAVCallback@Nan@@VSlice@leveldb@@2AEAV?$Local@VObject@v8@@@v8@@3@Z@4HA 0000000180054d98 f   database_async.obj
 0001:00053d98       ?dtor$8@?0???0CompactRangeWorker@leveldown@@QEAA@PEAVDatabase@1@PEAVCallback@Nan@@VSlice@leveldb@@2AEAV?$Local@VObject@v8@@@v8@@3@Z@4HA 0000000180054d98 f   database_async.obj
 0001:00053da6       ?dtor$9@?0???0ApproximateSizeWorker@leveldown@@QEAA@PEAVDatabase@1@PEAVCallback@Nan@@VSlice@leveldb@@2AEAV?$Local@VObject@v8@@@v8@@3@Z@4HA 0000000180054da6 f   database_async.obj
 0001:00053da6       ?dtor$9@?0???0CompactRangeWorker@leveldown@@QEAA@PEAVDatabase@1@PEAVCallback@Nan@@VSlice@leveldb@@2AEAV?$Local@VObject@v8@@@v8@@3@Z@4HA 0000000180054da6 f   database_async.obj
 0001:00053dc0       ?dtor$0@?0??ToString@Slice@leveldb@@QEBA?AV?$basic_string@DU?$char_traits@D@std@@V?$allocator@D@2@@std@@XZ@4HA 0000000180054dc0 f   iterator.obj
 0001:00053df0       ?dtor$1@?0??StringOrBufferLength@@YA_KV?$Local@VValue@v8@@@v8@@@Z@4HA 0000000180054df0 f   iterator.obj
 0001:00053dfe       ?dtor$0@?0??StringOrBufferLength@@YA_KV?$Local@VValue@v8@@@v8@@@Z@4HA 0000000180054dfe f   iterator.obj
 0001:00053e0a       ?dtor$2@?0??StringOrBufferLength@@YA_KV?$Local@VValue@v8@@@v8@@@Z@4HA 0000000180054e0a f   iterator.obj
 0001:00053e20       ?dtor$0@?0???__Fiterator_constructor@leveldown@@YAXXZ@4HA 0000000180054e20 f   iterator.obj
 0001:00053e20       ?dtor$0@?0???__Eiterator_constructor@leveldown@@YAXXZ@4HA 0000000180054e20 f   iterator.obj
 0001:00053e30       ?dtor$3@?0??GetIterator@Iterator@leveldown@@AEAA_NXZ@4HA 0000000180054e30 f   iterator.obj
 0001:00053e56       ?dtor$4@?0??GetIterator@Iterator@leveldown@@AEAA_NXZ@4HA 0000000180054e56 f   iterator.obj
 0001:00053e7c       ?dtor$2@?0??GetIterator@Iterator@leveldown@@AEAA_NXZ@4HA 0000000180054e7c f   iterator.obj
 0001:00053eb0       ?dtor$0@?0??FindShortSuccessor@InternalKeyComparator@leveldb@@UEBAXPEAV?$basic_string@DU?$char_traits@D@std@@V?$allocator@D@2@@std@@@Z@4HA 0000000180054eb0 f   leveldb:dbformat.obj
 0001:00053eb0       ?dtor$0@?0??Read@Iterator@leveldown@@AEAA_NAEAV?$basic_string@DU?$char_traits@D@std@@V?$allocator@D@2@@std@@0@Z@4HA 0000000180054eb0 f   iterator.obj
 0001:00053ec0       ?dtor$0@?0??IteratorNext@Iterator@leveldown@@QEAA_NAEAV?$vector@U?$pair@V?$basic_string@DU?$char_traits@D@std@@V?$allocator@D@2@@std@@V12@@std@@V?$allocator@U?$pair@V?$basic_string@DU?$char_traits@D@std@@V?$allocator@D@2@@std@@V12@@std@@@2@@std@@@Z@4HA 0000000180054ec0 f   iterator.obj
 0001:00053ecc       ?dtor$1@?0??IteratorNext@Iterator@leveldown@@QEAA_NAEAV?$vector@U?$pair@V?$basic_string@DU?$char_traits@D@std@@V?$allocator@D@2@@std@@V12@@std@@V?$allocator@U?$pair@V?$basic_string@DU?$char_traits@D@std@@V?$allocator@D@2@@std@@V12@@std@@@2@@std@@@Z@4HA 0000000180054ecc f   iterator.obj
 0001:00053ed8       ?dtor$3@?0??IteratorNext@Iterator@leveldown@@QEAA_NAEAV?$vector@U?$pair@V?$basic_string@DU?$char_traits@D@std@@V?$allocator@D@2@@std@@V12@@std@@V?$allocator@U?$pair@V?$basic_string@DU?$char_traits@D@std@@V?$allocator@D@2@@std@@V12@@std@@@2@@std@@@Z@4HA 0000000180054ed8 f   iterator.obj
 0001:00053f01       ?dtor$4@?0??IteratorNext@Iterator@leveldown@@QEAA_NAEAV?$vector@U?$pair@V?$basic_string@DU?$char_traits@D@std@@V?$allocator@D@2@@std@@V12@@std@@V?$allocator@U?$pair@V?$basic_string@DU?$char_traits@D@std@@V?$allocator@D@2@@std@@V12@@std@@@2@@std@@@Z@4HA 0000000180054f01 f   iterator.obj
 0001:00053f0d       ?dtor$5@?0??IteratorNext@Iterator@leveldown@@QEAA_NAEAV?$vector@U?$pair@V?$basic_string@DU?$char_traits@D@std@@V?$allocator@D@2@@std@@V12@@std@@V?$allocator@U?$pair@V?$basic_string@DU?$char_traits@D@std@@V?$allocator@D@2@@std@@V12@@std@@@2@@std@@@Z@4HA 0000000180054f0d f   iterator.obj
 0001:00053f1d       ?dtor$6@?0??IteratorNext@Iterator@leveldown@@QEAA_NAEAV?$vector@U?$pair@V?$basic_string@DU?$char_traits@D@std@@V?$allocator@D@2@@std@@V12@@std@@V?$allocator@U?$pair@V?$basic_string@DU?$char_traits@D@std@@V?$allocator@D@2@@std@@V12@@std@@@2@@std@@@Z@4HA 0000000180054f1d f   iterator.obj
 0001:00053f29       ?dtor$7@?0??IteratorNext@Iterator@leveldown@@QEAA_NAEAV?$vector@U?$pair@V?$basic_string@DU?$char_traits@D@std@@V?$allocator@D@2@@std@@V12@@std@@V?$allocator@U?$pair@V?$basic_string@DU?$char_traits@D@std@@V?$allocator@D@2@@std@@V12@@std@@@2@@std@@@Z@4HA 0000000180054f29 f   iterator.obj
 0001:00053f39       ?dtor$8@?0??IteratorNext@Iterator@leveldown@@QEAA_NAEAV?$vector@U?$pair@V?$basic_string@DU?$char_traits@D@std@@V?$allocator@D@2@@std@@V12@@std@@V?$allocator@U?$pair@V?$basic_string@DU?$char_traits@D@std@@V?$allocator@D@2@@std@@V12@@std@@@2@@std@@@Z@4HA 0000000180054f39 f   iterator.obj
 0001:00053f45       ?dtor$9@?0??IteratorNext@Iterator@leveldown@@QEAA_NAEAV?$vector@U?$pair@V?$basic_string@DU?$char_traits@D@std@@V?$allocator@D@2@@std@@V12@@std@@V?$allocator@U?$pair@V?$basic_string@DU?$char_traits@D@std@@V?$allocator@D@2@@std@@V12@@std@@@2@@std@@@Z@4HA 0000000180054f45 f   iterator.obj
 0001:00053f60       ?dtor$0@?0???1?$pair@V?$basic_string@DU?$char_traits@D@std@@V?$allocator@D@2@@std@@V12@@std@@QEAA@XZ@4HA 0000000180054f60 f   iterator.obj
 0001:00053f6c       ?dtor$1@?0???1?$pair@V?$basic_string@DU?$char_traits@D@std@@V?$allocator@D@2@@std@@V12@@std@@QEAA@XZ@4HA 0000000180054f6c f   iterator.obj
 0001:00053f80       ?dtor$0@?0??Seek@Iterator@leveldown@@CAXAEBV?$FunctionCallbackInfo@VValue@v8@@@Nan@@@Z@4HA 0000000180054f80 f   iterator.obj
 0001:00053fa0       ?dtor$4@?0??Next@Iterator@leveldown@@CAXAEBV?$FunctionCallbackInfo@VValue@v8@@@Nan@@@Z@4HA 0000000180054fa0 f   iterator.obj
 0001:00053fae       ?dtor$3@?0??Next@Iterator@leveldown@@CAXAEBV?$FunctionCallbackInfo@VValue@v8@@@Nan@@@Z@4HA 0000000180054fae f   iterator.obj
 0001:00053fba       ?dtor$5@?0??Next@Iterator@leveldown@@CAXAEBV?$FunctionCallbackInfo@VValue@v8@@@Nan@@@Z@4HA 0000000180054fba f   iterator.obj
 0001:00053fc8       ?dtor$6@?0??Next@Iterator@leveldown@@CAXAEBV?$FunctionCallbackInfo@VValue@v8@@@Nan@@@Z@4HA 0000000180054fc8 f   iterator.obj
 0001:00053fd6       ?dtor$0@?0??Next@Iterator@leveldown@@CAXAEBV?$FunctionCallbackInfo@VValue@v8@@@Nan@@@Z@4HA 0000000180054fd6 f   iterator.obj
 0001:00053fe2       ?dtor$1@?0??Next@Iterator@leveldown@@CAXAEBV?$FunctionCallbackInfo@VValue@v8@@@Nan@@@Z@4HA 0000000180054fe2 f   iterator.obj
 0001:00054002       ?dtor$2@?0??Next@Iterator@leveldown@@CAXAEBV?$FunctionCallbackInfo@VValue@v8@@@Nan@@@Z@4HA 0000000180055002 f   iterator.obj
 0001:00054022       ?dtor$8@?0??Next@Iterator@leveldown@@CAXAEBV?$FunctionCallbackInfo@VValue@v8@@@Nan@@@Z@4HA 0000000180055022 f   iterator.obj
 0001:0005402e       ?dtor$7@?0??Next@Iterator@leveldown@@CAXAEBV?$FunctionCallbackInfo@VValue@v8@@@Nan@@@Z@4HA 000000018005502e f   iterator.obj
 0001:0005403a       ?dtor$9@?0??Next@Iterator@leveldown@@CAXAEBV?$FunctionCallbackInfo@VValue@v8@@@Nan@@@Z@4HA 000000018005503a f   iterator.obj
 0001:00054046       ?dtor$10@?0??Next@Iterator@leveldown@@CAXAEBV?$FunctionCallbackInfo@VValue@v8@@@Nan@@@Z@4HA 0000000180055046 f   iterator.obj
 0001:00054060       ?dtor$0@?0??End@Iterator@leveldown@@CAXAEBV?$FunctionCallbackInfo@VValue@v8@@@Nan@@@Z@4HA 0000000180055060 f   iterator.obj
 0001:0005407d       ?dtor$1@?0??End@Iterator@leveldown@@CAXAEBV?$FunctionCallbackInfo@VValue@v8@@@Nan@@@Z@4HA 000000018005507d f   iterator.obj
 0001:0005409a       ?dtor$3@?0??End@Iterator@leveldown@@CAXAEBV?$FunctionCallbackInfo@VValue@v8@@@Nan@@@Z@4HA 000000018005509a f   iterator.obj
 0001:000540a6       ?dtor$2@?0??End@Iterator@leveldown@@CAXAEBV?$FunctionCallbackInfo@VValue@v8@@@Nan@@@Z@4HA 00000001800550a6 f   iterator.obj
 0001:000540b2       ?dtor$4@?0??End@Iterator@leveldown@@CAXAEBV?$FunctionCallbackInfo@VValue@v8@@@Nan@@@Z@4HA 00000001800550b2 f   iterator.obj
 0001:000540c0       ?dtor$1@?0??NewInstance@Iterator@leveldown@@SA?AV?$Local@VObject@v8@@@v8@@V34@V?$Local@VNumber@v8@@@4@0@Z@4HA 00000001800550c0 f   iterator.obj
 0001:000540ce       ?dtor$0@?0??NewInstance@Iterator@leveldown@@SA?AV?$Local@VObject@v8@@@v8@@V34@V?$Local@VNumber@v8@@@4@0@Z@4HA 00000001800550ce f   iterator.obj
 0001:000540da       ?dtor$2@?0??NewInstance@Iterator@leveldown@@SA?AV?$Local@VObject@v8@@@v8@@V34@V?$Local@VNumber@v8@@@4@0@Z@4HA 00000001800550da f   iterator.obj
 0001:000540e8       ?dtor$3@?0??NewInstance@Iterator@leveldown@@SA?AV?$Local@VObject@v8@@@v8@@V34@V?$Local@VNumber@v8@@@4@0@Z@4HA 00000001800550e8 f   iterator.obj
 0001:000540f6       ?dtor$4@?0??NewInstance@Iterator@leveldown@@SA?AV?$Local@VObject@v8@@@v8@@V34@V?$Local@VNumber@v8@@@4@0@Z@4HA 00000001800550f6 f   iterator.obj
 0001:00054104       ?dtor$5@?0??NewInstance@Iterator@leveldown@@SA?AV?$Local@VObject@v8@@@v8@@V34@V?$Local@VNumber@v8@@@4@0@Z@4HA 0000000180055104 f   iterator.obj
 0001:00054112       ?dtor$6@?0??NewInstance@Iterator@leveldown@@SA?AV?$Local@VObject@v8@@@v8@@V34@V?$Local@VNumber@v8@@@4@0@Z@4HA 0000000180055112 f   iterator.obj
 0001:00054120       ?dtor$7@?0??NewInstance@Iterator@leveldown@@SA?AV?$Local@VObject@v8@@@v8@@V34@V?$Local@VNumber@v8@@@4@0@Z@4HA 0000000180055120 f   iterator.obj
 0001:00054130       ?dtor$0@?0??New@Iterator@leveldown@@CAXAEBV?$FunctionCallbackInfo@VValue@v8@@@Nan@@@Z@4HA 0000000180055130 f   iterator.obj
 0001:00054150       ?dtor$1@?0??New@Iterator@leveldown@@CAXAEBV?$FunctionCallbackInfo@VValue@v8@@@Nan@@@Z@4HA 0000000180055150 f   iterator.obj
 0001:0005416d       ?dtor$2@?0??New@Iterator@leveldown@@CAXAEBV?$FunctionCallbackInfo@VValue@v8@@@Nan@@@Z@4HA 000000018005516d f   iterator.obj
 0001:0005418a       ?dtor$3@?0??New@Iterator@leveldown@@CAXAEBV?$FunctionCallbackInfo@VValue@v8@@@Nan@@@Z@4HA 000000018005518a f   iterator.obj
 0001:000541a7       ?dtor$4@?0??New@Iterator@leveldown@@CAXAEBV?$FunctionCallbackInfo@VValue@v8@@@Nan@@@Z@4HA 00000001800551a7 f   iterator.obj
 0001:000541c4       ?dtor$5@?0??New@Iterator@leveldown@@CAXAEBV?$FunctionCallbackInfo@VValue@v8@@@Nan@@@Z@4HA 00000001800551c4 f   iterator.obj
 0001:000541e1       ?dtor$6@?0??New@Iterator@leveldown@@CAXAEBV?$FunctionCallbackInfo@VValue@v8@@@Nan@@@Z@4HA 00000001800551e1 f   iterator.obj
 0001:000541fe       ?dtor$7@?0??New@Iterator@leveldown@@CAXAEBV?$FunctionCallbackInfo@VValue@v8@@@Nan@@@Z@4HA 00000001800551fe f   iterator.obj
 0001:0005421b       ?dtor$8@?0??New@Iterator@leveldown@@CAXAEBV?$FunctionCallbackInfo@VValue@v8@@@Nan@@@Z@4HA 000000018005521b f   iterator.obj
 0001:00054238       ?dtor$9@?0??New@Iterator@leveldown@@CAXAEBV?$FunctionCallbackInfo@VValue@v8@@@Nan@@@Z@4HA 0000000180055238 f   iterator.obj
 0001:00054258       ?dtor$10@?0??New@Iterator@leveldown@@CAXAEBV?$FunctionCallbackInfo@VValue@v8@@@Nan@@@Z@4HA 0000000180055258 f   iterator.obj
 0001:00054278       ?dtor$15@?0??New@Iterator@leveldown@@CAXAEBV?$FunctionCallbackInfo@VValue@v8@@@Nan@@@Z@4HA 0000000180055278 f   iterator.obj
 0001:00054284       ?dtor$14@?0??New@Iterator@leveldown@@CAXAEBV?$FunctionCallbackInfo@VValue@v8@@@Nan@@@Z@4HA 0000000180055284 f   iterator.obj
 0001:00054294       ?dtor$11@?0??New@Iterator@leveldown@@CAXAEBV?$FunctionCallbackInfo@VValue@v8@@@Nan@@@Z@4HA 0000000180055294 f   iterator.obj
 0001:000542a0       ?dtor$16@?0??New@Iterator@leveldown@@CAXAEBV?$FunctionCallbackInfo@VValue@v8@@@Nan@@@Z@4HA 00000001800552a0 f   iterator.obj
 0001:000542ae       ?dtor$12@?0??New@Iterator@leveldown@@CAXAEBV?$FunctionCallbackInfo@VValue@v8@@@Nan@@@Z@4HA 00000001800552ae f   iterator.obj
 0001:000542ba       ?dtor$13@?0??New@Iterator@leveldown@@CAXAEBV?$FunctionCallbackInfo@VValue@v8@@@Nan@@@Z@4HA 00000001800552ba f   iterator.obj
 0001:000542da       ?dtor$17@?0??New@Iterator@leveldown@@CAXAEBV?$FunctionCallbackInfo@VValue@v8@@@Nan@@@Z@4HA 00000001800552da f   iterator.obj
 0001:000542f0       ?dtor$0@?0???$_Emplace_reallocate@U?$pair@V?$basic_string@DU?$char_traits@D@std@@V?$allocator@D@2@@std@@V12@@std@@@?$vector@U?$pair@V?$basic_string@DU?$char_traits@D@std@@V?$allocator@D@2@@std@@V12@@std@@V?$allocator@U?$pair@V?$basic_string@DU?$char_traits@D@std@@V?$allocator@D@2@@std@@V12@@std@@@2@@std@@QEAAPEAU?$pair@V?$basic_string@DU?$char_traits@D@std@@V?$allocator@D@2@@std@@V12@@1@QEAU21@$$QEAU21@@Z@4HA 00000001800552f0 f   iterator.obj
 0001:000542fc       ?dtor$1@?0???$_Emplace_reallocate@U?$pair@V?$basic_string@DU?$char_traits@D@std@@V?$allocator@D@2@@std@@V12@@std@@@?$vector@U?$pair@V?$basic_string@DU?$char_traits@D@std@@V?$allocator@D@2@@std@@V12@@std@@V?$allocator@U?$pair@V?$basic_string@DU?$char_traits@D@std@@V?$allocator@D@2@@std@@V12@@std@@@2@@std@@QEAAPEAU?$pair@V?$basic_string@DU?$char_traits@D@std@@V?$allocator@D@2@@std@@V12@@1@QEAU21@$$QEAU21@@Z@4HA 00000001800552fc f   iterator.obj
 0001:00054310       ?dtor$0@?0???$_Uninitialized_move@PEAU?$pair@V?$basic_string@DU?$char_traits@D@std@@V?$allocator@D@2@@std@@V12@@std@@PEAU12@V?$allocator@U?$pair@V?$basic_string@DU?$char_traits@D@std@@V?$allocator@D@2@@std@@V12@@std@@@2@@std@@YAPEAU?$pair@V?$basic_string@DU?$char_traits@D@std@@V?$allocator@D@2@@std@@V12@@0@QEAU10@0PEAU10@AEAV?$allocator@U?$pair@V?$basic_string@DU?$char_traits@D@std@@V?$allocator@D@2@@std@@V12@@std@@@0@@Z@4HA 0000000180055310 f   iterator.obj
 0001:0005431c       ?dtor$1@?0???$_Uninitialized_move@PEAU?$pair@V?$basic_string@DU?$char_traits@D@std@@V?$allocator@D@2@@std@@V12@@std@@PEAU12@V?$allocator@U?$pair@V?$basic_string@DU?$char_traits@D@std@@V?$allocator@D@2@@std@@V12@@std@@@2@@std@@YAPEAU?$pair@V?$basic_string@DU?$char_traits@D@std@@V?$allocator@D@2@@std@@V12@@0@QEAU10@0PEAU10@AEAV?$allocator@U?$pair@V?$basic_string@DU?$char_traits@D@std@@V?$allocator@D@2@@std@@V12@@std@@@0@@Z@4HA 000000018005531c f   iterator.obj
 0001:00054328       ?dtor$2@?0???$_Uninitialized_move@PEAU?$pair@V?$basic_string@DU?$char_traits@D@std@@V?$allocator@D@2@@std@@V12@@std@@PEAU12@V?$allocator@U?$pair@V?$basic_string@DU?$char_traits@D@std@@V?$allocator@D@2@@std@@V12@@std@@@2@@std@@YAPEAU?$pair@V?$basic_string@DU?$char_traits@D@std@@V?$allocator@D@2@@std@@V12@@0@QEAU10@0PEAU10@AEAV?$allocator@U?$pair@V?$basic_string@DU?$char_traits@D@std@@V?$allocator@D@2@@std@@V12@@std@@@0@@Z@4HA 0000000180055328 f   iterator.obj
 0001:00054340       ?dtor$0@?0???_GNextWorker@leveldown@@UEAAPEAXI@Z@4HA 0000000180055340 f   iterator_async.obj
 0001:0005434c       ?dtor$1@?0???_GNextWorker@leveldown@@UEAAPEAXI@Z@4HA 000000018005534c f   iterator_async.obj
 0001:0005435f       ?dtor$2@?0???_GNextWorker@leveldown@@UEAAPEAXI@Z@4HA 000000018005535f f   iterator_async.obj
 0001:0005436b       ?dtor$3@?0???_GNextWorker@leveldown@@UEAAPEAXI@Z@4HA 000000018005536b f   iterator_async.obj
 0001:00054380       ?dtor$4@?0??HandleOKCallback@NextWorker@leveldown@@UEAAXXZ@4HA 0000000180055380 f   iterator_async.obj
 0001:0005438e       ?dtor$0@?0??HandleOKCallback@NextWorker@leveldown@@UEAAXXZ@4HA 000000018005538e f   iterator_async.obj
 0001:0005439a       ?dtor$5@?0??HandleOKCallback@NextWorker@leveldown@@UEAAXXZ@4HA 000000018005539a f   iterator_async.obj
 0001:000543a6       ?dtor$6@?0??HandleOKCallback@NextWorker@leveldown@@UEAAXXZ@4HA 00000001800553a6 f   iterator_async.obj
 0001:000543b6       ?dtor$1@?0??HandleOKCallback@NextWorker@leveldown@@UEAAXXZ@4HA 00000001800553b6 f   iterator_async.obj
 0001:000543c2       ?dtor$2@?0??HandleOKCallback@NextWorker@leveldown@@UEAAXXZ@4HA 00000001800553c2 f   iterator_async.obj
 0001:000543ce       ?dtor$3@?0??HandleOKCallback@NextWorker@leveldown@@UEAAXXZ@4HA 00000001800553ce f   iterator_async.obj
 0001:000543da       ?dtor$7@?0??HandleOKCallback@NextWorker@leveldown@@UEAAXXZ@4HA 00000001800553da f   iterator_async.obj
 0001:000543e8       ?dtor$8@?0??HandleOKCallback@NextWorker@leveldown@@UEAAXXZ@4HA 00000001800553e8 f   iterator_async.obj
 0001:000543f6       ?dtor$9@?0??HandleOKCallback@NextWorker@leveldown@@UEAAXXZ@4HA 00000001800553f6 f   iterator_async.obj
 0001:00054404       ?dtor$10@?0??HandleOKCallback@NextWorker@leveldown@@UEAAXXZ@4HA 0000000180055404 f   iterator_async.obj
 0001:00054412       ?dtor$11@?0??HandleOKCallback@NextWorker@leveldown@@UEAAXXZ@4HA 0000000180055412 f   iterator_async.obj
 0001:0005441e       ?dtor$12@?0??HandleOKCallback@NextWorker@leveldown@@UEAAXXZ@4HA 000000018005541e f   iterator_async.obj
 0001:0005442e       ?dtor$13@?0??HandleOKCallback@NextWorker@leveldown@@UEAAXXZ@4HA 000000018005542e f   iterator_async.obj
 0001:00054440       ?dtor$4@?0??RepairDB@leveldown@@YAXAEBV?$FunctionCallbackInfo@VValue@v8@@@Nan@@@Z@4HA 0000000180055440 f   leveldown.obj
 0001:00054440       ?dtor$4@?0??DestroyDB@leveldown@@YAXAEBV?$FunctionCallbackInfo@VValue@v8@@@Nan@@@Z@4HA 0000000180055440 f   leveldown.obj
 0001:0005444e       ?dtor$0@?0??DestroyDB@leveldown@@YAXAEBV?$FunctionCallbackInfo@VValue@v8@@@Nan@@@Z@4HA 000000018005544e f   leveldown.obj
 0001:0005444e       ?dtor$0@?0??RepairDB@leveldown@@YAXAEBV?$FunctionCallbackInfo@VValue@v8@@@Nan@@@Z@4HA 000000018005544e f   leveldown.obj
 0001:0005445a       ?dtor$1@?0??RepairDB@leveldown@@YAXAEBV?$FunctionCallbackInfo@VValue@v8@@@Nan@@@Z@4HA 000000018005545a f   leveldown.obj
 0001:0005445a       ?dtor$1@?0??DestroyDB@leveldown@@YAXAEBV?$FunctionCallbackInfo@VValue@v8@@@Nan@@@Z@4HA 000000018005545a f   leveldown.obj
 0001:00054477       ?dtor$2@?0??DestroyDB@leveldown@@YAXAEBV?$FunctionCallbackInfo@VValue@v8@@@Nan@@@Z@4HA 0000000180055477 f   leveldown.obj
 0001:00054477       ?dtor$2@?0??RepairDB@leveldown@@YAXAEBV?$FunctionCallbackInfo@VValue@v8@@@Nan@@@Z@4HA 0000000180055477 f   leveldown.obj
 0001:00054494       ?dtor$6@?0??DestroyDB@leveldown@@YAXAEBV?$FunctionCallbackInfo@VValue@v8@@@Nan@@@Z@4HA 0000000180055494 f   leveldown.obj
 0001:00054494       ?dtor$6@?0??RepairDB@leveldown@@YAXAEBV?$FunctionCallbackInfo@VValue@v8@@@Nan@@@Z@4HA 0000000180055494 f   leveldown.obj
 0001:000544a0       ?dtor$5@?0??RepairDB@leveldown@@YAXAEBV?$FunctionCallbackInfo@VValue@v8@@@Nan@@@Z@4HA 00000001800554a0 f   leveldown.obj
 0001:000544a0       ?dtor$5@?0??DestroyDB@leveldown@@YAXAEBV?$FunctionCallbackInfo@VValue@v8@@@Nan@@@Z@4HA 00000001800554a0 f   leveldown.obj
 0001:000544ac       ?dtor$3@?0??RepairDB@leveldown@@YAXAEBV?$FunctionCallbackInfo@VValue@v8@@@Nan@@@Z@4HA 00000001800554ac f   leveldown.obj
 0001:000544ac       ?dtor$3@?0??DestroyDB@leveldown@@YAXAEBV?$FunctionCallbackInfo@VValue@v8@@@Nan@@@Z@4HA 00000001800554ac f   leveldown.obj
 0001:000544c9       ?dtor$7@?0??RepairDB@leveldown@@YAXAEBV?$FunctionCallbackInfo@VValue@v8@@@Nan@@@Z@4HA 00000001800554c9 f   leveldown.obj
 0001:000544c9       ?dtor$7@?0??DestroyDB@leveldown@@YAXAEBV?$FunctionCallbackInfo@VValue@v8@@@Nan@@@Z@4HA 00000001800554c9 f   leveldown.obj
 0001:000544d5       ?dtor$8@?0??DestroyDB@leveldown@@YAXAEBV?$FunctionCallbackInfo@VValue@v8@@@Nan@@@Z@4HA 00000001800554d5 f   leveldown.obj
 0001:000544d5       ?dtor$8@?0??RepairDB@leveldown@@YAXAEBV?$FunctionCallbackInfo@VValue@v8@@@Nan@@@Z@4HA 00000001800554d5 f   leveldown.obj
 0001:000544f0       ?dtor$0@?0??Execute@DestroyWorker@leveldown@@UEAAXXZ@4HA 00000001800554f0 f   leveldown_async.obj
 0001:000544f0       ?dtor$0@?0??Execute@RepairWorker@leveldown@@UEAAXXZ@4HA 00000001800554f0 f   leveldown_async.obj
 0001:000544fc       ?dtor$1@?0??Execute@DestroyWorker@leveldown@@UEAAXXZ@4HA 00000001800554fc f   leveldown_async.obj
 0001:000544fc       ?dtor$1@?0??Execute@RepairWorker@leveldown@@UEAAXXZ@4HA 00000001800554fc f   leveldown_async.obj
 0001:00054510       ?dtor$0@?0??OK@Status@leveldb@@SA?AV12@XZ@4HA 0000000180055510 f   leveldb:write_batch.obj
 0001:00054540       ?dtor$1@?0??Iterate@WriteBatch@leveldb@@QEBA?AVStatus@2@PEAVHandler@12@@Z@4HA 0000000180055540 f   leveldb:write_batch.obj
 0001:00054569       ?dtor$0@?0??Iterate@WriteBatch@leveldb@@QEBA?AVStatus@2@PEAVHandler@12@@Z@4HA 0000000180055569 f   leveldb:write_batch.obj
 0001:00054592       ?dtor$2@?0??Iterate@WriteBatch@leveldb@@QEBA?AVStatus@2@PEAVHandler@12@@Z@4HA 0000000180055592 f   leveldb:write_batch.obj
 0001:000545bb       ?dtor$3@?0??Iterate@WriteBatch@leveldb@@QEBA?AVStatus@2@PEAVHandler@12@@Z@4HA 00000001800555bb f   leveldb:write_batch.obj
 0001:000545e4       ?dtor$4@?0??Iterate@WriteBatch@leveldb@@QEBA?AVStatus@2@PEAVHandler@12@@Z@4HA 00000001800555e4 f   leveldb:write_batch.obj
 0001:0005460d       ?dtor$5@?0??Iterate@WriteBatch@leveldb@@QEBA?AVStatus@2@PEAVHandler@12@@Z@4HA 000000018005560d f   leveldb:write_batch.obj
 0001:00054636       ?dtor$6@?0??Iterate@WriteBatch@leveldb@@QEBA?AVStatus@2@PEAVHandler@12@@Z@4HA 0000000180055636 f   leveldb:write_batch.obj
 0001:00054660       ?dtor$2@?0??InsertInto@WriteBatchInternal@leveldb@@SA?AVStatus@2@PEBVWriteBatch@2@PEAVMemTable@2@@Z@4HA 0000000180055660 f   leveldb:write_batch.obj
 0001:0005466c       ?dtor$0@?0??InsertInto@WriteBatchInternal@leveldb@@SA?AVStatus@2@PEBVWriteBatch@2@PEAVMemTable@2@@Z@4HA 000000018005566c f   leveldb:write_batch.obj
 0001:00054678       ?dtor$1@?0??InsertInto@WriteBatchInternal@leveldb@@SA?AVStatus@2@PEBVWriteBatch@2@PEAVMemTable@2@@Z@4HA 0000000180055678 f   leveldb:write_batch.obj
 0001:0005469e       ?dtor$3@?0??InsertInto@WriteBatchInternal@leveldb@@SA?AVStatus@2@PEBVWriteBatch@2@PEAVMemTable@2@@Z@4HA 000000018005569e f   leveldb:write_batch.obj
 0001:000546b0       ?dtor$0@?0???1MemTableInserter@?A0xc69a136d@leveldb@@UEAA@XZ@4HA 00000001800556b0 f   leveldb:write_batch.obj
 0001:000546c0       ?dtor$0@?0???_GMemTableInserter@?A0xc69a136d@leveldb@@UEAAPEAXI@Z@4HA 00000001800556c0 f   leveldb:write_batch.obj
 0001:000546d0       ?dtor$0@?0??ToString@Status@leveldb@@QEBA?AV?$basic_string@DU?$char_traits@D@std@@V?$allocator@D@2@@std@@XZ@4HA 00000001800556d0 f   leveldb:status.obj
 0001:000546f6       ?dtor$1@?0??ToString@Status@leveldb@@QEBA?AV?$basic_string@DU?$char_traits@D@std@@V?$allocator@D@2@@std@@XZ@4HA 00000001800556f6 f   leveldb:status.obj
 0001:00054710       ?dtor$0@?0???_GByteArraySource@snappy@@UEAAPEAXI@Z@4HA 0000000180055710 f   snappy:snappy.obj
 0001:00054710       ?dtor$0@?0???_GBloomFilterPolicy@?A0xa213ca84@leveldb@@UEAAPEAXI@Z@4HA 0000000180055710 f   leveldb:bloom.obj
 0001:00054710       ?dtor$0@?0???_GInternalFilterPolicy@leveldb@@UEAAPEAXI@Z@4HA 0000000180055710 f   leveldb:db_impl.obj
 0001:00054720       ?dtor$0@?0??IOError@Status@leveldb@@SA?AV12@AEBVSlice@2@0@Z@4HA 0000000180055720 f   leveldb:db_impl.obj
 0001:00054750       ?dtor$0@?0???_GBytewiseComparatorImpl@?A0x7e2d94b9@leveldb@@UEAAPEAXI@Z@4HA 0000000180055750 f   leveldb:comparator.obj
 0001:00054750       ?dtor$0@?0???_GInternalKeyComparator@leveldb@@UEAAPEAXI@Z@4HA 0000000180055750 f   leveldb:db_impl.obj
 0001:00054760       ?dtor$0@?0???1InternalKeyComparator@leveldb@@UEAA@XZ@4HA 0000000180055760 f   leveldb:db_impl.obj
 0001:00054770       ?dtor$0@?0???1ByteArraySource@snappy@@UEAA@XZ@4HA 0000000180055770 f   snappy:snappy-sinksource.obj
 0001:00054770       ?dtor$0@?0???1InternalFilterPolicy@leveldb@@UEAA@XZ@4HA 0000000180055770 f   leveldb:db_impl.obj
 0001:00054780       ?dtor$0@?0???1SnapshotImpl@leveldb@@UEAA@XZ@4HA 0000000180055780 f   leveldb:db_impl.obj
 0001:00054790       ?dtor$0@?0???_GSnapshotImpl@leveldb@@UEAAPEAXI@Z@4HA 0000000180055790 f   leveldb:db_impl.obj
 0001:000547a0       ?dtor$0@?0??Unref@MemTable@leveldb@@QEAAXXZ@4HA 00000001800557a0 f   leveldb:db_impl.obj
 0001:000547ac       ?dtor$1@?0??Unref@MemTable@leveldb@@QEAAXXZ@4HA 00000001800557ac f   leveldb:db_impl.obj
 0001:000547bc       ?dtor$2@?0??Unref@MemTable@leveldb@@QEAAXXZ@4HA 00000001800557bc f   leveldb:db_impl.obj
 0001:000547cc       ?dtor$3@?0??Unref@MemTable@leveldb@@QEAAXXZ@4HA 00000001800557cc f   leveldb:db_impl.obj
 0001:000547d8       ?dtor$4@?0??Unref@MemTable@leveldb@@QEAAXXZ@4HA 00000001800557d8 f   leveldb:db_impl.obj
 0001:000547e4       ?dtor$5@?0??Unref@MemTable@leveldb@@QEAAXXZ@4HA 00000001800557e4 f   leveldb:db_impl.obj
 0001:000547f0       ?dtor$6@?0??Unref@MemTable@leveldb@@QEAAXXZ@4HA 00000001800557f0 f   leveldb:db_impl.obj
 0001:000547fc       ?dtor$7@?0??Unref@MemTable@leveldb@@QEAAXXZ@4HA 00000001800557fc f   leveldb:db_impl.obj
 0001:00054810       ?dtor$0@?0???0VersionEdit@leveldb@@QEAA@XZ@4HA 0000000180055810 f   leveldb:db_impl.obj
 0001:0005481c       ?dtor$1@?0???0VersionEdit@leveldb@@QEAA@XZ@4HA 000000018005581c f   leveldb:db_impl.obj
 0001:0005482c       ?dtor$5@?0???0VersionEdit@leveldb@@QEAA@XZ@4HA 000000018005582c f   leveldb:db_impl.obj
 0001:00054838       ?dtor$4@?0???0VersionEdit@leveldb@@QEAA@XZ@4HA 0000000180055838 f   leveldb:db_impl.obj
 0001:00054844       ?dtor$2@?0???0VersionEdit@leveldb@@QEAA@XZ@4HA 0000000180055844 f   leveldb:db_impl.obj
 0001:00054854       ?dtor$3@?0???0VersionEdit@leveldb@@QEAA@XZ@4HA 0000000180055854 f   leveldb:db_impl.obj
 0001:00054870       ?dtor$0@?0???1VersionEdit@leveldb@@QEAA@XZ@4HA 0000000180055870 f   leveldb:db_impl.obj
 0001:0005487c       ?dtor$1@?0???1VersionEdit@leveldb@@QEAA@XZ@4HA 000000018005587c f   leveldb:db_impl.obj
 0001:0005488c       ?dtor$2@?0???1VersionEdit@leveldb@@QEAA@XZ@4HA 000000018005588c f   leveldb:db_impl.obj
 0001:0005489c       ?dtor$3@?0???1VersionEdit@leveldb@@QEAA@XZ@4HA 000000018005589c f   leveldb:db_impl.obj
 0001:000548ac       ?dtor$4@?0???1VersionEdit@leveldb@@QEAA@XZ@4HA 00000001800558ac f   leveldb:db_impl.obj
 0001:000548bc       ?dtor$5@?0???1VersionEdit@leveldb@@QEAA@XZ@4HA 00000001800558bc f   leveldb:db_impl.obj
 0001:000548c8       ?dtor$6@?0???1VersionEdit@leveldb@@QEAA@XZ@4HA 00000001800558c8 f   leveldb:db_impl.obj
 0001:000548e0       ?dtor$1@?0??SetComparatorName@VersionEdit@leveldb@@QEAAXAEBVSlice@2@@Z@4HA 00000001800558e0 f   leveldb:db_impl.obj
 0001:00054910       ?dtor$4@?0??AddFile@VersionEdit@leveldb@@QEAAXH_K0AEBVInternalKey@2@1@Z@4HA 0000000180055910 f   leveldb:db_impl.obj
 0001:0005491c       ?dtor$2@?0??AddFile@VersionEdit@leveldb@@QEAAXH_K0AEBVInternalKey@2@1@Z@4HA 000000018005591c f   leveldb:db_impl.obj
 0001:0005492c       ?dtor$5@?0??AddFile@VersionEdit@leveldb@@QEAAXH_K0AEBVInternalKey@2@1@Z@4HA 000000018005592c f   leveldb:db_impl.obj
 0001:00054938       ?dtor$3@?0??AddFile@VersionEdit@leveldb@@QEAAXH_K0AEBVInternalKey@2@1@Z@4HA 0000000180055938 f   leveldb:db_impl.obj
 0001:00054948       ?dtor$0@?0??AddFile@VersionEdit@leveldb@@QEAAXH_K0AEBVInternalKey@2@1@Z@4HA 0000000180055948 f   leveldb:db_impl.obj
 0001:00054954       ?dtor$6@?0??AddFile@VersionEdit@leveldb@@QEAAXH_K0AEBVInternalKey@2@1@Z@4HA 0000000180055954 f   leveldb:db_impl.obj
 0001:0005497d       ?dtor$10@?0??AddFile@VersionEdit@leveldb@@QEAAXH_K0AEBVInternalKey@2@1@Z@4HA 000000018005597d f   leveldb:db_impl.obj
 0001:00054989       ?dtor$8@?0??AddFile@VersionEdit@leveldb@@QEAAXH_K0AEBVInternalKey@2@1@Z@4HA 0000000180055989 f   leveldb:db_impl.obj
 0001:00054999       ?dtor$11@?0??AddFile@VersionEdit@leveldb@@QEAAXH_K0AEBVInternalKey@2@1@Z@4HA 0000000180055999 f   leveldb:db_impl.obj
 0001:000549a5       ?dtor$9@?0??AddFile@VersionEdit@leveldb@@QEAAXH_K0AEBVInternalKey@2@1@Z@4HA 00000001800559a5 f   leveldb:db_impl.obj
 0001:000549b5       ?dtor$7@?0??AddFile@VersionEdit@leveldb@@QEAAXH_K0AEBVInternalKey@2@1@Z@4HA 00000001800559b5 f   leveldb:db_impl.obj
 0001:000549c5       ?dtor$12@?0??AddFile@VersionEdit@leveldb@@QEAAXH_K0AEBVInternalKey@2@1@Z@4HA 00000001800559c5 f   leveldb:db_impl.obj
 0001:000549e0       ?dtor$0@?0???1?$set@U?$pair@H_K@std@@U?$less@U?$pair@H_K@std@@@2@V?$allocator@U?$pair@H_K@std@@@2@@std@@QEAA@XZ@4HA 00000001800559e0 f   leveldb:db_impl.obj
 0001:000549ec       ?dtor$1@?0???1?$set@U?$pair@H_K@std@@U?$less@U?$pair@H_K@std@@@2@V?$allocator@U?$pair@H_K@std@@@2@@std@@QEAA@XZ@4HA 00000001800559ec f   leveldb:db_impl.obj
 0001:00054a00       ?dtor$0@?0???1?$pair@HVInternalKey@leveldb@@@std@@QEAA@XZ@4HA 0000000180055a00 f   leveldb:db_impl.obj
 0001:00054a10       ?dtor$1@?0???1?$pair@HVInternalKey@leveldb@@@std@@QEAA@XZ@4HA 0000000180055a10 f   leveldb:db_impl.obj
 0001:00054a20       ?dtor$0@?0???1FileMetaData@leveldb@@QEAA@XZ@4HA 0000000180055a20 f   leveldb:db_impl.obj
 0001:00054a30       ?dtor$1@?0???1FileMetaData@leveldb@@QEAA@XZ@4HA 0000000180055a30 f   leveldb:db_impl.obj
 0001:00054a40       ?dtor$2@?0???1FileMetaData@leveldb@@QEAA@XZ@4HA 0000000180055a40 f   leveldb:db_impl.obj
 0001:00054a4c       ?dtor$3@?0???1FileMetaData@leveldb@@QEAA@XZ@4HA 0000000180055a4c f   leveldb:db_impl.obj
 0001:00054a60       ?dtor$0@?0??Clear@VersionEdit@leveldb@@QEAAXXZ@4HA 0000000180055a60 f   leveldb:version_edit.obj
 0001:00054a60       ?dtor$0@?0???1?$_Uninitialized_backout_al@PEAU?$pair@HUFileMetaData@leveldb@@@std@@V?$allocator@U?$pair@HUFileMetaData@leveldb@@@std@@@2@@std@@QEAA@XZ@4HA 0000000180055a60 f   leveldb:db_impl.obj
 0001:00054a60       ?dtor$0@?0???1?$pair@HUFileMetaData@leveldb@@@std@@QEAA@XZ@4HA 0000000180055a60 f   leveldb:db_impl.obj
 0001:00054a60       ?dtor$0@?0???1?$vector@U?$pair@HUFileMetaData@leveldb@@@std@@V?$allocator@U?$pair@HUFileMetaData@leveldb@@@std@@@2@@std@@QEAA@XZ@4HA 0000000180055a60 f   leveldb:db_impl.obj
 0001:00054a70       ?dtor$6@?0??SanitizeOptions@leveldb@@YA?AUOptions@1@AEBV?$basic_string@DU?$char_traits@D@std@@V?$allocator@D@2@@std@@PEBVInternalKeyComparator@1@PEBVInternalFilterPolicy@1@AEBU21@@Z@4HA 0000000180055a70 f   leveldb:db_impl.obj
 0001:00054a96       ?dtor$7@?0??SanitizeOptions@leveldb@@YA?AUOptions@1@AEBV?$basic_string@DU?$char_traits@D@std@@V?$allocator@D@2@@std@@PEBVInternalKeyComparator@1@PEBVInternalFilterPolicy@1@AEBU21@@Z@4HA 0000000180055a96 f   leveldb:db_impl.obj
 0001:00054abc       ?dtor$8@?0??SanitizeOptions@leveldb@@YA?AUOptions@1@AEBV?$basic_string@DU?$char_traits@D@std@@V?$allocator@D@2@@std@@PEBVInternalKeyComparator@1@PEBVInternalFilterPolicy@1@AEBU21@@Z@4HA 0000000180055abc f   leveldb:db_impl.obj
 0001:00054ae2       ?dtor$9@?0??SanitizeOptions@leveldb@@YA?AUOptions@1@AEBV?$basic_string@DU?$char_traits@D@std@@V?$allocator@D@2@@std@@PEBVInternalKeyComparator@1@PEBVInternalFilterPolicy@1@AEBU21@@Z@4HA 0000000180055ae2 f   leveldb:db_impl.obj
 0001:00054b08       ?dtor$10@?0??SanitizeOptions@leveldb@@YA?AUOptions@1@AEBV?$basic_string@DU?$char_traits@D@std@@V?$allocator@D@2@@std@@PEBVInternalKeyComparator@1@PEBVInternalFilterPolicy@1@AEBU21@@Z@4HA 0000000180055b08 f   leveldb:db_impl.obj
 0001:00054b2e       ?dtor$11@?0??SanitizeOptions@leveldb@@YA?AUOptions@1@AEBV?$basic_string@DU?$char_traits@D@std@@V?$allocator@D@2@@std@@PEBVInternalKeyComparator@1@PEBVInternalFilterPolicy@1@AEBU21@@Z@4HA 0000000180055b2e f   leveldb:db_impl.obj
 0001:00054b54       ?dtor$5@?0??SanitizeOptions@leveldb@@YA?AUOptions@1@AEBV?$basic_string@DU?$char_traits@D@std@@V?$allocator@D@2@@std@@PEBVInternalKeyComparator@1@PEBVInternalFilterPolicy@1@AEBU21@@Z@4HA 0000000180055b54 f   leveldb:db_impl.obj
 0001:00054b60       ?dtor$0@?0???0DBImpl@leveldb@@QEAA@AEBUOptions@1@AEBV?$basic_string@DU?$char_traits@D@std@@V?$allocator@D@2@@std@@@Z@4HA 0000000180055b60 f   leveldb:db_impl.obj
 0001:00054b6c       ?dtor$13@?0???0DBImpl@leveldb@@QEAA@AEBUOptions@1@AEBV?$basic_string@DU?$char_traits@D@std@@V?$allocator@D@2@@std@@@Z@4HA 0000000180055b6c f   leveldb:db_impl.obj
 0001:00054b78       ?dtor$1@?0???0DBImpl@leveldb@@QEAA@AEBUOptions@1@AEBV?$basic_string@DU?$char_traits@D@std@@V?$allocator@D@2@@std@@@Z@4HA 0000000180055b78 f   leveldb:db_impl.obj
 0001:00054b88       ?dtor$14@?0???0DBImpl@leveldb@@QEAA@AEBUOptions@1@AEBV?$basic_string@DU?$char_traits@D@std@@V?$allocator@D@2@@std@@@Z@4HA 0000000180055b88 f   leveldb:db_impl.obj
 0001:00054b94       ?dtor$2@?0???0DBImpl@leveldb@@QEAA@AEBUOptions@1@AEBV?$basic_string@DU?$char_traits@D@std@@V?$allocator@D@2@@std@@@Z@4HA 0000000180055b94 f   leveldb:db_impl.obj
 0001:00054ba4       ?dtor$3@?0???0DBImpl@leveldb@@QEAA@AEBUOptions@1@AEBV?$basic_string@DU?$char_traits@D@std@@V?$allocator@D@2@@std@@@Z@4HA 0000000180055ba4 f   leveldb:db_impl.obj
 0001:00054bb7       ?dtor$4@?0???0DBImpl@leveldb@@QEAA@AEBUOptions@1@AEBV?$basic_string@DU?$char_traits@D@std@@V?$allocator@D@2@@std@@@Z@4HA 0000000180055bb7 f   leveldb:db_impl.obj
 0001:00054bca       ?dtor$5@?0???0DBImpl@leveldb@@QEAA@AEBUOptions@1@AEBV?$basic_string@DU?$char_traits@D@std@@V?$allocator@D@2@@std@@@Z@4HA 0000000180055bca f   leveldb:db_impl.obj
 0001:00054bdd       ?dtor$15@?0???0DBImpl@leveldb@@QEAA@AEBUOptions@1@AEBV?$basic_string@DU?$char_traits@D@std@@V?$allocator@D@2@@std@@@Z@4HA 0000000180055bdd f   leveldb:db_impl.obj
 0001:00054be9       ?dtor$6@?0???0DBImpl@leveldb@@QEAA@AEBUOptions@1@AEBV?$basic_string@DU?$char_traits@D@std@@V?$allocator@D@2@@std@@@Z@4HA 0000000180055be9 f   leveldb:db_impl.obj
 0001:00054bfc       ?dtor$7@?0???0DBImpl@leveldb@@QEAA@AEBUOptions@1@AEBV?$basic_string@DU?$char_traits@D@std@@V?$allocator@D@2@@std@@@Z@4HA 0000000180055bfc f   leveldb:db_impl.obj
 0001:00054c1c       ?dtor$16@?0???0DBImpl@leveldb@@QEAA@AEBUOptions@1@AEBV?$basic_string@DU?$char_traits@D@std@@V?$allocator@D@2@@std@@@Z@4HA 0000000180055c1c f   leveldb:db_impl.obj
 0001:00054c28       ?dtor$18@?0???0DBImpl@leveldb@@QEAA@AEBUOptions@1@AEBV?$basic_string@DU?$char_traits@D@std@@V?$allocator@D@2@@std@@@Z@4HA 0000000180055c28 f   leveldb:db_impl.obj
 0001:00054c34       ?dtor$17@?0???0DBImpl@leveldb@@QEAA@AEBUOptions@1@AEBV?$basic_string@DU?$char_traits@D@std@@V?$allocator@D@2@@std@@@Z@4HA 0000000180055c34 f   leveldb:db_impl.obj
 0001:00054c40       ?dtor$8@?0???0DBImpl@leveldb@@QEAA@AEBUOptions@1@AEBV?$basic_string@DU?$char_traits@D@std@@V?$allocator@D@2@@std@@@Z@4HA 0000000180055c40 f   leveldb:db_impl.obj
 0001:00054c53       ?dtor$20@?0???0DBImpl@leveldb@@QEAA@AEBUOptions@1@AEBV?$basic_string@DU?$char_traits@D@std@@V?$allocator@D@2@@std@@@Z@4HA 0000000180055c53 f   leveldb:db_impl.obj
 0001:00054c5f       ?dtor$19@?0???0DBImpl@leveldb@@QEAA@AEBUOptions@1@AEBV?$basic_string@DU?$char_traits@D@std@@V?$allocator@D@2@@std@@@Z@4HA 0000000180055c5f f   leveldb:db_impl.obj
 0001:00054c6b       ?dtor$9@?0???0DBImpl@leveldb@@QEAA@AEBUOptions@1@AEBV?$basic_string@DU?$char_traits@D@std@@V?$allocator@D@2@@std@@@Z@4HA 0000000180055c6b f   leveldb:db_impl.obj
 0001:00054c7e       ?dtor$10@?0???0DBImpl@leveldb@@QEAA@AEBUOptions@1@AEBV?$basic_string@DU?$char_traits@D@std@@V?$allocator@D@2@@std@@@Z@4HA 0000000180055c7e f   leveldb:db_impl.obj
 0001:00054c91       ?dtor$11@?0???0DBImpl@leveldb@@QEAA@AEBUOptions@1@AEBV?$basic_string@DU?$char_traits@D@std@@V?$allocator@D@2@@std@@@Z@4HA 0000000180055c91 f   leveldb:db_impl.obj
 0001:00054cb1       ?dtor$21@?0???0DBImpl@leveldb@@QEAA@AEBUOptions@1@AEBV?$basic_string@DU?$char_traits@D@std@@V?$allocator@D@2@@std@@@Z@4HA 0000000180055cb1 f   leveldb:db_impl.obj
 0001:00054cc1       ?dtor$12@?0???0DBImpl@leveldb@@QEAA@AEBUOptions@1@AEBV?$basic_string@DU?$char_traits@D@std@@V?$allocator@D@2@@std@@@Z@4HA 0000000180055cc1 f   leveldb:db_impl.obj
 0001:00054ce1       ?dtor$22@?0???0DBImpl@leveldb@@QEAA@AEBUOptions@1@AEBV?$basic_string@DU?$char_traits@D@std@@V?$allocator@D@2@@std@@@Z@4HA 0000000180055ce1 f   leveldb:db_impl.obj
 0001:00054cf1       ?dtor$27@?0???0DBImpl@leveldb@@QEAA@AEBUOptions@1@AEBV?$basic_string@DU?$char_traits@D@std@@V?$allocator@D@2@@std@@@Z@4HA 0000000180055cf1 f   leveldb:db_impl.obj
 0001:00054cfd       ?dtor$23@?0???0DBImpl@leveldb@@QEAA@AEBUOptions@1@AEBV?$basic_string@DU?$char_traits@D@std@@V?$allocator@D@2@@std@@@Z@4HA 0000000180055cfd f   leveldb:db_impl.obj
 0001:00054d0d       ?dtor$24@?0???0DBImpl@leveldb@@QEAA@AEBUOptions@1@AEBV?$basic_string@DU?$char_traits@D@std@@V?$allocator@D@2@@std@@@Z@4HA 0000000180055d0d f   leveldb:db_impl.obj
 0001:00054d20       ?dtor$25@?0???0DBImpl@leveldb@@QEAA@AEBUOptions@1@AEBV?$basic_string@DU?$char_traits@D@std@@V?$allocator@D@2@@std@@@Z@4HA 0000000180055d20 f   leveldb:db_impl.obj
 0001:00054d54       ?dtor$26@?0???0DBImpl@leveldb@@QEAA@AEBUOptions@1@AEBV?$basic_string@DU?$char_traits@D@std@@V?$allocator@D@2@@std@@@Z@4HA 0000000180055d54 f   leveldb:db_impl.obj
 0001:00054d80       ?dtor$0@?0???1DBImpl@leveldb@@UEAA@XZ@4HA 0000000180055d80 f   leveldb:db_impl.obj
 0001:00054d8c       ?dtor$1@?0???1DBImpl@leveldb@@UEAA@XZ@4HA 0000000180055d8c f   leveldb:db_impl.obj
 0001:00054d9c       ?dtor$2@?0???1DBImpl@leveldb@@UEAA@XZ@4HA 0000000180055d9c f   leveldb:db_impl.obj
 0001:00054dac       ?dtor$3@?0???1DBImpl@leveldb@@UEAA@XZ@4HA 0000000180055dac f   leveldb:db_impl.obj
 0001:00054dbf       ?dtor$4@?0???1DBImpl@leveldb@@UEAA@XZ@4HA 0000000180055dbf f   leveldb:db_impl.obj
 0001:00054dd2       ?dtor$5@?0???1DBImpl@leveldb@@UEAA@XZ@4HA 0000000180055dd2 f   leveldb:db_impl.obj
 0001:00054de5       ?dtor$6@?0???1DBImpl@leveldb@@UEAA@XZ@4HA 0000000180055de5 f   leveldb:db_impl.obj
 0001:00054df8       ?dtor$7@?0???1DBImpl@leveldb@@UEAA@XZ@4HA 0000000180055df8 f   leveldb:db_impl.obj
 0001:00054e0b       ?dtor$8@?0???1DBImpl@leveldb@@UEAA@XZ@4HA 0000000180055e0b f   leveldb:db_impl.obj
 0001:00054e1e       ?dtor$9@?0???1DBImpl@leveldb@@UEAA@XZ@4HA 0000000180055e1e f   leveldb:db_impl.obj
 0001:00054e31       ?dtor$11@?0???1DBImpl@leveldb@@UEAA@XZ@4HA 0000000180055e31 f   leveldb:db_impl.obj
 0001:00054e41       ?dtor$12@?0???1DBImpl@leveldb@@UEAA@XZ@4HA 0000000180055e41 f   leveldb:db_impl.obj
 0001:00054e51       ?dtor$13@?0???1DBImpl@leveldb@@UEAA@XZ@4HA 0000000180055e51 f   leveldb:db_impl.obj
 0001:00054e64       ?dtor$14@?0???1DBImpl@leveldb@@UEAA@XZ@4HA 0000000180055e64 f   leveldb:db_impl.obj
 0001:00054e95       ?dtor$15@?0???1DBImpl@leveldb@@UEAA@XZ@4HA 0000000180055e95 f   leveldb:db_impl.obj
 0001:00054ea1       ?dtor$16@?0???1DBImpl@leveldb@@UEAA@XZ@4HA 0000000180055ea1 f   leveldb:db_impl.obj
 0001:00054ead       ?dtor$17@?0???1DBImpl@leveldb@@UEAA@XZ@4HA 0000000180055ead f   leveldb:db_impl.obj
 0001:00054eb9       ?dtor$18@?0???1DBImpl@leveldb@@UEAA@XZ@4HA 0000000180055eb9 f   leveldb:db_impl.obj
 0001:00054ec5       ?dtor$19@?0???1DBImpl@leveldb@@UEAA@XZ@4HA 0000000180055ec5 f   leveldb:db_impl.obj
 0001:00054ed1       ?dtor$20@?0???1DBImpl@leveldb@@UEAA@XZ@4HA 0000000180055ed1 f   leveldb:db_impl.obj
 0001:00054edd       ?dtor$21@?0???1DBImpl@leveldb@@UEAA@XZ@4HA 0000000180055edd f   leveldb:db_impl.obj
